ARM GAS  /var/folders/6w/sx7v0gy94nj4l80r62zsklwh0000gn/T//ccA4AFzN.s 			page 1


   1              		.cpu cortex-m7
   2              		.arch armv7e-m
   3              		.fpu fpv5-d16
   4              		.eabi_attribute 28, 1
   5              		.eabi_attribute 20, 1
   6              		.eabi_attribute 21, 1
   7              		.eabi_attribute 23, 3
   8              		.eabi_attribute 24, 1
   9              		.eabi_attribute 25, 1
  10              		.eabi_attribute 26, 1
  11              		.eabi_attribute 30, 2
  12              		.eabi_attribute 34, 1
  13              		.eabi_attribute 18, 4
  14              		.file	"axis.cpp"
  15              		.text
  16              	.Ltext0:
  17              		.cfi_sections	.debug_frame
  18              		.section	.text._ZN5daisy9DaisySeedD2Ev,"axG",%progbits,_ZN5daisy9DaisySeedD5Ev,comdat
  19              		.align	1
  20              		.p2align 2,,3
  21              		.weak	_ZN5daisy9DaisySeedD2Ev
  22              		.syntax unified
  23              		.thumb
  24              		.thumb_func
  26              	_ZN5daisy9DaisySeedD2Ev:
  27              	.LVL0:
  28              	.LFB2556:
  29              		.file 1 "/Users/paulwang/Desktop/DaisyExamples/libDaisy/src/daisy_seed.h"
   1:/Users/paulwang/Desktop/DaisyExamples/libDaisy/src/daisy_seed.h **** #pragma once
   2:/Users/paulwang/Desktop/DaisyExamples/libDaisy/src/daisy_seed.h **** #ifndef DSY_SEED_H
   3:/Users/paulwang/Desktop/DaisyExamples/libDaisy/src/daisy_seed.h **** #define DSY_SEED_H
   4:/Users/paulwang/Desktop/DaisyExamples/libDaisy/src/daisy_seed.h **** 
   5:/Users/paulwang/Desktop/DaisyExamples/libDaisy/src/daisy_seed.h **** #include "daisy.h"
   6:/Users/paulwang/Desktop/DaisyExamples/libDaisy/src/daisy_seed.h **** 
   7:/Users/paulwang/Desktop/DaisyExamples/libDaisy/src/daisy_seed.h **** //Uncomment this out if you're still using the rev2 hardware
   8:/Users/paulwang/Desktop/DaisyExamples/libDaisy/src/daisy_seed.h **** //#define SEED_REV2
   9:/Users/paulwang/Desktop/DaisyExamples/libDaisy/src/daisy_seed.h **** 
  10:/Users/paulwang/Desktop/DaisyExamples/libDaisy/src/daisy_seed.h **** namespace daisy
  11:/Users/paulwang/Desktop/DaisyExamples/libDaisy/src/daisy_seed.h **** {
  12:/Users/paulwang/Desktop/DaisyExamples/libDaisy/src/daisy_seed.h **** /**
  13:/Users/paulwang/Desktop/DaisyExamples/libDaisy/src/daisy_seed.h ****    @brief This is the higher-level interface for the Daisy board. \n 
  14:/Users/paulwang/Desktop/DaisyExamples/libDaisy/src/daisy_seed.h ****     All basic peripheral configuration/initialization is setup here. \n
  15:/Users/paulwang/Desktop/DaisyExamples/libDaisy/src/daisy_seed.h **** 
  16:/Users/paulwang/Desktop/DaisyExamples/libDaisy/src/daisy_seed.h ****    @ingroup boards
  17:/Users/paulwang/Desktop/DaisyExamples/libDaisy/src/daisy_seed.h **** */
  18:/Users/paulwang/Desktop/DaisyExamples/libDaisy/src/daisy_seed.h **** class DaisySeed
  19:/Users/paulwang/Desktop/DaisyExamples/libDaisy/src/daisy_seed.h **** {
  20:/Users/paulwang/Desktop/DaisyExamples/libDaisy/src/daisy_seed.h ****   public:
  21:/Users/paulwang/Desktop/DaisyExamples/libDaisy/src/daisy_seed.h ****     DaisySeed() {}
  22:/Users/paulwang/Desktop/DaisyExamples/libDaisy/src/daisy_seed.h ****     ~DaisySeed() {}
  30              		.loc 1 22 5 view -0
  31              		.cfi_startproc
  32              		@ args = 0, pretend = 0, frame = 0
  33              		@ frame_needed = 0, uses_anonymous_args = 0
  34              		@ link register save eliminated.
  35              	.LBB86:
  36              	.LBI86:
ARM GAS  /var/folders/6w/sx7v0gy94nj4l80r62zsklwh0000gn/T//ccA4AFzN.s 			page 2


  37              		.file 2 "/Users/paulwang/Desktop/DaisyExamples/libDaisy/src/sys/system.h"
   1:/Users/paulwang/Desktop/DaisyExamples/libDaisy/src/sys/system.h **** #ifndef DSY_SYSTEM_H
   2:/Users/paulwang/Desktop/DaisyExamples/libDaisy/src/sys/system.h **** #define DSY_SYSTEM_H
   3:/Users/paulwang/Desktop/DaisyExamples/libDaisy/src/sys/system.h **** 
   4:/Users/paulwang/Desktop/DaisyExamples/libDaisy/src/sys/system.h **** #ifndef UNIT_TEST // for unit tests, a dummy implementation is provided below
   5:/Users/paulwang/Desktop/DaisyExamples/libDaisy/src/sys/system.h **** 
   6:/Users/paulwang/Desktop/DaisyExamples/libDaisy/src/sys/system.h **** #include <cstdint>
   7:/Users/paulwang/Desktop/DaisyExamples/libDaisy/src/sys/system.h **** #include "per/tim.h"
   8:/Users/paulwang/Desktop/DaisyExamples/libDaisy/src/sys/system.h **** 
   9:/Users/paulwang/Desktop/DaisyExamples/libDaisy/src/sys/system.h **** namespace daisy
  10:/Users/paulwang/Desktop/DaisyExamples/libDaisy/src/sys/system.h **** {
  11:/Users/paulwang/Desktop/DaisyExamples/libDaisy/src/sys/system.h **** /** A handle for interacting with the Core System.
  12:/Users/paulwang/Desktop/DaisyExamples/libDaisy/src/sys/system.h ****  ** This includes the Clock tree, MPU, global DMA initialization,
  13:/Users/paulwang/Desktop/DaisyExamples/libDaisy/src/sys/system.h ****  ** cache handling, and any other necessary global initiailzation
  14:/Users/paulwang/Desktop/DaisyExamples/libDaisy/src/sys/system.h ****  **
  15:/Users/paulwang/Desktop/DaisyExamples/libDaisy/src/sys/system.h ****  ** @author shensley
  16:/Users/paulwang/Desktop/DaisyExamples/libDaisy/src/sys/system.h ****  ** @ingroup system
  17:/Users/paulwang/Desktop/DaisyExamples/libDaisy/src/sys/system.h ****  */
  18:/Users/paulwang/Desktop/DaisyExamples/libDaisy/src/sys/system.h **** class System
  19:/Users/paulwang/Desktop/DaisyExamples/libDaisy/src/sys/system.h **** {
  20:/Users/paulwang/Desktop/DaisyExamples/libDaisy/src/sys/system.h ****   public:
  21:/Users/paulwang/Desktop/DaisyExamples/libDaisy/src/sys/system.h ****     /** Contains settings for initializing the System */
  22:/Users/paulwang/Desktop/DaisyExamples/libDaisy/src/sys/system.h ****     struct Config
  23:/Users/paulwang/Desktop/DaisyExamples/libDaisy/src/sys/system.h ****     {
  24:/Users/paulwang/Desktop/DaisyExamples/libDaisy/src/sys/system.h ****         /** Specifies the system clock frequency that feeds APB/AHB clocks, etc. */
  25:/Users/paulwang/Desktop/DaisyExamples/libDaisy/src/sys/system.h ****         enum class SysClkFreq
  26:/Users/paulwang/Desktop/DaisyExamples/libDaisy/src/sys/system.h ****         {
  27:/Users/paulwang/Desktop/DaisyExamples/libDaisy/src/sys/system.h ****             FREQ_400MHZ,
  28:/Users/paulwang/Desktop/DaisyExamples/libDaisy/src/sys/system.h ****             FREQ_480MHZ,
  29:/Users/paulwang/Desktop/DaisyExamples/libDaisy/src/sys/system.h ****         };
  30:/Users/paulwang/Desktop/DaisyExamples/libDaisy/src/sys/system.h **** 
  31:/Users/paulwang/Desktop/DaisyExamples/libDaisy/src/sys/system.h ****         /** Method to call on the struct to set to defaults
  32:/Users/paulwang/Desktop/DaisyExamples/libDaisy/src/sys/system.h ****          ** CPU Freq set to 400MHz
  33:/Users/paulwang/Desktop/DaisyExamples/libDaisy/src/sys/system.h ****          ** Cache Enabled
  34:/Users/paulwang/Desktop/DaisyExamples/libDaisy/src/sys/system.h ****          ** */
  35:/Users/paulwang/Desktop/DaisyExamples/libDaisy/src/sys/system.h ****         void Defaults()
  36:/Users/paulwang/Desktop/DaisyExamples/libDaisy/src/sys/system.h ****         {
  37:/Users/paulwang/Desktop/DaisyExamples/libDaisy/src/sys/system.h ****             cpu_freq    = SysClkFreq::FREQ_400MHZ;
  38:/Users/paulwang/Desktop/DaisyExamples/libDaisy/src/sys/system.h ****             use_dcache  = true;
  39:/Users/paulwang/Desktop/DaisyExamples/libDaisy/src/sys/system.h ****             use_icache  = true;
  40:/Users/paulwang/Desktop/DaisyExamples/libDaisy/src/sys/system.h ****             skip_clocks = false;
  41:/Users/paulwang/Desktop/DaisyExamples/libDaisy/src/sys/system.h ****         }
  42:/Users/paulwang/Desktop/DaisyExamples/libDaisy/src/sys/system.h **** 
  43:/Users/paulwang/Desktop/DaisyExamples/libDaisy/src/sys/system.h ****         /** Method to call on the struct to set to boost mode:
  44:/Users/paulwang/Desktop/DaisyExamples/libDaisy/src/sys/system.h ****          ** CPU Freq set to 480MHz
  45:/Users/paulwang/Desktop/DaisyExamples/libDaisy/src/sys/system.h ****          ** Cache Enabled
  46:/Users/paulwang/Desktop/DaisyExamples/libDaisy/src/sys/system.h ****          ** */
  47:/Users/paulwang/Desktop/DaisyExamples/libDaisy/src/sys/system.h ****         void Boost()
  48:/Users/paulwang/Desktop/DaisyExamples/libDaisy/src/sys/system.h ****         {
  49:/Users/paulwang/Desktop/DaisyExamples/libDaisy/src/sys/system.h ****             cpu_freq    = SysClkFreq::FREQ_480MHZ;
  50:/Users/paulwang/Desktop/DaisyExamples/libDaisy/src/sys/system.h ****             use_dcache  = true;
  51:/Users/paulwang/Desktop/DaisyExamples/libDaisy/src/sys/system.h ****             use_icache  = true;
  52:/Users/paulwang/Desktop/DaisyExamples/libDaisy/src/sys/system.h ****             skip_clocks = false;
  53:/Users/paulwang/Desktop/DaisyExamples/libDaisy/src/sys/system.h ****         }
  54:/Users/paulwang/Desktop/DaisyExamples/libDaisy/src/sys/system.h **** 
  55:/Users/paulwang/Desktop/DaisyExamples/libDaisy/src/sys/system.h ****         SysClkFreq cpu_freq;
  56:/Users/paulwang/Desktop/DaisyExamples/libDaisy/src/sys/system.h ****         bool       use_dcache;
ARM GAS  /var/folders/6w/sx7v0gy94nj4l80r62zsklwh0000gn/T//ccA4AFzN.s 			page 3


  57:/Users/paulwang/Desktop/DaisyExamples/libDaisy/src/sys/system.h ****         bool       use_icache;
  58:/Users/paulwang/Desktop/DaisyExamples/libDaisy/src/sys/system.h ****         bool       skip_clocks;
  59:/Users/paulwang/Desktop/DaisyExamples/libDaisy/src/sys/system.h ****     };
  60:/Users/paulwang/Desktop/DaisyExamples/libDaisy/src/sys/system.h **** 
  61:/Users/paulwang/Desktop/DaisyExamples/libDaisy/src/sys/system.h ****     /** Describes the different regions of memory available to the Daisy */
  62:/Users/paulwang/Desktop/DaisyExamples/libDaisy/src/sys/system.h ****     enum MemoryRegion
  63:/Users/paulwang/Desktop/DaisyExamples/libDaisy/src/sys/system.h ****     {
  64:/Users/paulwang/Desktop/DaisyExamples/libDaisy/src/sys/system.h ****         INTERNAL_FLASH = 0,
  65:/Users/paulwang/Desktop/DaisyExamples/libDaisy/src/sys/system.h ****         ITCMRAM,
  66:/Users/paulwang/Desktop/DaisyExamples/libDaisy/src/sys/system.h ****         DTCMRAM,
  67:/Users/paulwang/Desktop/DaisyExamples/libDaisy/src/sys/system.h ****         SRAM_D1,
  68:/Users/paulwang/Desktop/DaisyExamples/libDaisy/src/sys/system.h ****         SRAM_D2,
  69:/Users/paulwang/Desktop/DaisyExamples/libDaisy/src/sys/system.h ****         SRAM_D3,
  70:/Users/paulwang/Desktop/DaisyExamples/libDaisy/src/sys/system.h ****         SDRAM,
  71:/Users/paulwang/Desktop/DaisyExamples/libDaisy/src/sys/system.h ****         QSPI,
  72:/Users/paulwang/Desktop/DaisyExamples/libDaisy/src/sys/system.h ****         INVALID_ADDRESS,
  73:/Users/paulwang/Desktop/DaisyExamples/libDaisy/src/sys/system.h ****     };
  74:/Users/paulwang/Desktop/DaisyExamples/libDaisy/src/sys/system.h **** 
  75:/Users/paulwang/Desktop/DaisyExamples/libDaisy/src/sys/system.h ****     /** Bootloader struct for controlling bootloading parameters */
  76:/Users/paulwang/Desktop/DaisyExamples/libDaisy/src/sys/system.h ****     struct BootInfo
  77:/Users/paulwang/Desktop/DaisyExamples/libDaisy/src/sys/system.h ****     {
  78:/Users/paulwang/Desktop/DaisyExamples/libDaisy/src/sys/system.h ****         enum class Type : uint32_t
  79:/Users/paulwang/Desktop/DaisyExamples/libDaisy/src/sys/system.h ****         {
  80:/Users/paulwang/Desktop/DaisyExamples/libDaisy/src/sys/system.h ****             INVALID      = 0x00000000,
  81:/Users/paulwang/Desktop/DaisyExamples/libDaisy/src/sys/system.h ****             JUMP         = 0xDEADBEEF,
  82:/Users/paulwang/Desktop/DaisyExamples/libDaisy/src/sys/system.h ****             SKIP_TIMEOUT = 0x5AFEB007,
  83:/Users/paulwang/Desktop/DaisyExamples/libDaisy/src/sys/system.h ****             INF_TIMEOUT  = 0xB0074EFA,
  84:/Users/paulwang/Desktop/DaisyExamples/libDaisy/src/sys/system.h ****         } status;
  85:/Users/paulwang/Desktop/DaisyExamples/libDaisy/src/sys/system.h ****         uint32_t data;
  86:/Users/paulwang/Desktop/DaisyExamples/libDaisy/src/sys/system.h ****         enum class Version : uint32_t
  87:/Users/paulwang/Desktop/DaisyExamples/libDaisy/src/sys/system.h ****         {
  88:/Users/paulwang/Desktop/DaisyExamples/libDaisy/src/sys/system.h ****             LT_v6_0 = 0, // Less than v6.0
  89:/Users/paulwang/Desktop/DaisyExamples/libDaisy/src/sys/system.h ****             NONE,        // No bootloader present
  90:/Users/paulwang/Desktop/DaisyExamples/libDaisy/src/sys/system.h ****             v6_0,        // v6.0
  91:/Users/paulwang/Desktop/DaisyExamples/libDaisy/src/sys/system.h ****             v6_1,        // v6.1 or greater
  92:/Users/paulwang/Desktop/DaisyExamples/libDaisy/src/sys/system.h ****             LAST
  93:/Users/paulwang/Desktop/DaisyExamples/libDaisy/src/sys/system.h ****         } version;
  94:/Users/paulwang/Desktop/DaisyExamples/libDaisy/src/sys/system.h ****     };
  95:/Users/paulwang/Desktop/DaisyExamples/libDaisy/src/sys/system.h **** 
  96:/Users/paulwang/Desktop/DaisyExamples/libDaisy/src/sys/system.h ****     System() {}
  97:/Users/paulwang/Desktop/DaisyExamples/libDaisy/src/sys/system.h ****     ~System() {}
  38              		.loc 2 97 5 view .LVU1
  39              		.loc 2 97 5 is_stmt 0 view .LVU2
  40              	.LBE86:
  41              	.LBB87:
  42              	.LBI87:
  43              		.file 3 "/Users/paulwang/Desktop/DaisyExamples/libDaisy/src/hid/usb.h"
   1:/Users/paulwang/Desktop/DaisyExamples/libDaisy/src/hid/usb.h **** #pragma once
   2:/Users/paulwang/Desktop/DaisyExamples/libDaisy/src/hid/usb.h **** #ifndef DSY_HID_USB_H
   3:/Users/paulwang/Desktop/DaisyExamples/libDaisy/src/hid/usb.h **** #define DSY_HID_USB_H
   4:/Users/paulwang/Desktop/DaisyExamples/libDaisy/src/hid/usb.h **** #include <stdint.h>
   5:/Users/paulwang/Desktop/DaisyExamples/libDaisy/src/hid/usb.h **** #include <stdlib.h>
   6:/Users/paulwang/Desktop/DaisyExamples/libDaisy/src/hid/usb.h **** 
   7:/Users/paulwang/Desktop/DaisyExamples/libDaisy/src/hid/usb.h **** namespace daisy
   8:/Users/paulwang/Desktop/DaisyExamples/libDaisy/src/hid/usb.h **** /** @addtogroup human_interface
   9:/Users/paulwang/Desktop/DaisyExamples/libDaisy/src/hid/usb.h ****     @{
  10:/Users/paulwang/Desktop/DaisyExamples/libDaisy/src/hid/usb.h **** */
ARM GAS  /var/folders/6w/sx7v0gy94nj4l80r62zsklwh0000gn/T//ccA4AFzN.s 			page 4


  11:/Users/paulwang/Desktop/DaisyExamples/libDaisy/src/hid/usb.h **** 
  12:/Users/paulwang/Desktop/DaisyExamples/libDaisy/src/hid/usb.h **** {
  13:/Users/paulwang/Desktop/DaisyExamples/libDaisy/src/hid/usb.h **** /** 
  14:/Users/paulwang/Desktop/DaisyExamples/libDaisy/src/hid/usb.h ****     @brief Interface for initializing and using the USB Peripherals on the daisy
  15:/Users/paulwang/Desktop/DaisyExamples/libDaisy/src/hid/usb.h ****     @author Stephen Hensley
  16:/Users/paulwang/Desktop/DaisyExamples/libDaisy/src/hid/usb.h ****     @date December 2019
  17:/Users/paulwang/Desktop/DaisyExamples/libDaisy/src/hid/usb.h **** */
  18:/Users/paulwang/Desktop/DaisyExamples/libDaisy/src/hid/usb.h **** class UsbHandle
  19:/Users/paulwang/Desktop/DaisyExamples/libDaisy/src/hid/usb.h **** {
  20:/Users/paulwang/Desktop/DaisyExamples/libDaisy/src/hid/usb.h ****   public:
  21:/Users/paulwang/Desktop/DaisyExamples/libDaisy/src/hid/usb.h ****     /** Return values for USBHandle Functions */
  22:/Users/paulwang/Desktop/DaisyExamples/libDaisy/src/hid/usb.h ****     enum class Result
  23:/Users/paulwang/Desktop/DaisyExamples/libDaisy/src/hid/usb.h ****     {
  24:/Users/paulwang/Desktop/DaisyExamples/libDaisy/src/hid/usb.h ****         OK,
  25:/Users/paulwang/Desktop/DaisyExamples/libDaisy/src/hid/usb.h ****         ERR,
  26:/Users/paulwang/Desktop/DaisyExamples/libDaisy/src/hid/usb.h ****     };
  27:/Users/paulwang/Desktop/DaisyExamples/libDaisy/src/hid/usb.h **** 
  28:/Users/paulwang/Desktop/DaisyExamples/libDaisy/src/hid/usb.h ****     /** Specified which of the two USB Peripherals to initialize. */
  29:/Users/paulwang/Desktop/DaisyExamples/libDaisy/src/hid/usb.h ****     enum UsbPeriph
  30:/Users/paulwang/Desktop/DaisyExamples/libDaisy/src/hid/usb.h ****     {
  31:/Users/paulwang/Desktop/DaisyExamples/libDaisy/src/hid/usb.h ****         FS_INTERNAL, /**< Internal pin */
  32:/Users/paulwang/Desktop/DaisyExamples/libDaisy/src/hid/usb.h ****         FS_EXTERNAL, /**< FS External D+ pin is Pin 38 (GPIO32). FS External D- pin is Pin 37 (GPIO
  33:/Users/paulwang/Desktop/DaisyExamples/libDaisy/src/hid/usb.h ****         FS_BOTH,     /**< Both */
  34:/Users/paulwang/Desktop/DaisyExamples/libDaisy/src/hid/usb.h ****     };
  35:/Users/paulwang/Desktop/DaisyExamples/libDaisy/src/hid/usb.h **** 
  36:/Users/paulwang/Desktop/DaisyExamples/libDaisy/src/hid/usb.h **** 
  37:/Users/paulwang/Desktop/DaisyExamples/libDaisy/src/hid/usb.h ****     /** Function called upon reception of a buffer */
  38:/Users/paulwang/Desktop/DaisyExamples/libDaisy/src/hid/usb.h ****     typedef void (*ReceiveCallback)(uint8_t* buff, uint32_t* len);
  39:/Users/paulwang/Desktop/DaisyExamples/libDaisy/src/hid/usb.h **** 
  40:/Users/paulwang/Desktop/DaisyExamples/libDaisy/src/hid/usb.h ****     UsbHandle() {}
  41:/Users/paulwang/Desktop/DaisyExamples/libDaisy/src/hid/usb.h **** 
  42:/Users/paulwang/Desktop/DaisyExamples/libDaisy/src/hid/usb.h ****     ~UsbHandle() {}
  44              		.loc 3 42 5 is_stmt 1 view .LVU3
  45              		.loc 3 42 5 is_stmt 0 view .LVU4
  46              	.LBE87:
  47              	.LBB88:
  48              	.LBI88:
  49              		.file 4 "/Users/paulwang/Desktop/DaisyExamples/libDaisy/src/per/adc.h"
   1:/Users/paulwang/Desktop/DaisyExamples/libDaisy/src/per/adc.h **** #pragma once
   2:/Users/paulwang/Desktop/DaisyExamples/libDaisy/src/per/adc.h **** #ifndef DSY_ADC_H
   3:/Users/paulwang/Desktop/DaisyExamples/libDaisy/src/per/adc.h **** #define DSY_ADC_H /**< Macro */
   4:/Users/paulwang/Desktop/DaisyExamples/libDaisy/src/per/adc.h **** #include <stdint.h>
   5:/Users/paulwang/Desktop/DaisyExamples/libDaisy/src/per/adc.h **** #include <stdlib.h>
   6:/Users/paulwang/Desktop/DaisyExamples/libDaisy/src/per/adc.h **** #include "daisy_core.h"
   7:/Users/paulwang/Desktop/DaisyExamples/libDaisy/src/per/adc.h **** #include "per/gpio.h"
   8:/Users/paulwang/Desktop/DaisyExamples/libDaisy/src/per/adc.h **** 
   9:/Users/paulwang/Desktop/DaisyExamples/libDaisy/src/per/adc.h **** #define DSY_ADC_MAX_CHANNELS 16 /**< Maximum number of ADC channels */
  10:/Users/paulwang/Desktop/DaisyExamples/libDaisy/src/per/adc.h **** 
  11:/Users/paulwang/Desktop/DaisyExamples/libDaisy/src/per/adc.h **** namespace daisy
  12:/Users/paulwang/Desktop/DaisyExamples/libDaisy/src/per/adc.h **** {
  13:/Users/paulwang/Desktop/DaisyExamples/libDaisy/src/per/adc.h **** /** @addtogroup per_analog
  14:/Users/paulwang/Desktop/DaisyExamples/libDaisy/src/per/adc.h ****     @{
  15:/Users/paulwang/Desktop/DaisyExamples/libDaisy/src/per/adc.h **** */
  16:/Users/paulwang/Desktop/DaisyExamples/libDaisy/src/per/adc.h **** 
  17:/Users/paulwang/Desktop/DaisyExamples/libDaisy/src/per/adc.h **** /* While there may not be many configuration options here,
  18:/Users/paulwang/Desktop/DaisyExamples/libDaisy/src/per/adc.h **** using a struct like this allows us to add more configuration
  19:/Users/paulwang/Desktop/DaisyExamples/libDaisy/src/per/adc.h **** later without breaking existing functionality.
ARM GAS  /var/folders/6w/sx7v0gy94nj4l80r62zsklwh0000gn/T//ccA4AFzN.s 			page 5


  20:/Users/paulwang/Desktop/DaisyExamples/libDaisy/src/per/adc.h **** */
  21:/Users/paulwang/Desktop/DaisyExamples/libDaisy/src/per/adc.h **** 
  22:/Users/paulwang/Desktop/DaisyExamples/libDaisy/src/per/adc.h **** /** @brief   Configuration Structure for an ADC Channel 
  23:/Users/paulwang/Desktop/DaisyExamples/libDaisy/src/per/adc.h ****  *  @details This can be used to configure a a single input, 
  24:/Users/paulwang/Desktop/DaisyExamples/libDaisy/src/per/adc.h ****  *           or a multiplexed input, allowing up to 8 inputs on 
  25:/Users/paulwang/Desktop/DaisyExamples/libDaisy/src/per/adc.h ****  *           one channel.
  26:/Users/paulwang/Desktop/DaisyExamples/libDaisy/src/per/adc.h ****  *  @note    Sharing data lines to multiple muxes _is_ possible, but
  27:/Users/paulwang/Desktop/DaisyExamples/libDaisy/src/per/adc.h ****  *           each channel sharing data lines must be set to the maximum
  28:/Users/paulwang/Desktop/DaisyExamples/libDaisy/src/per/adc.h ****  *           number of channels, even if some multiplexers have fewer
  29:/Users/paulwang/Desktop/DaisyExamples/libDaisy/src/per/adc.h ****  *           inputs connected.
  30:/Users/paulwang/Desktop/DaisyExamples/libDaisy/src/per/adc.h **** */
  31:/Users/paulwang/Desktop/DaisyExamples/libDaisy/src/per/adc.h **** struct AdcChannelConfig
  32:/Users/paulwang/Desktop/DaisyExamples/libDaisy/src/per/adc.h **** {
  33:/Users/paulwang/Desktop/DaisyExamples/libDaisy/src/per/adc.h ****     /** Which pin to use for multiplexing */
  34:/Users/paulwang/Desktop/DaisyExamples/libDaisy/src/per/adc.h ****     enum MuxPin
  35:/Users/paulwang/Desktop/DaisyExamples/libDaisy/src/per/adc.h ****     {
  36:/Users/paulwang/Desktop/DaisyExamples/libDaisy/src/per/adc.h ****         MUX_SEL_0,    /**< & */
  37:/Users/paulwang/Desktop/DaisyExamples/libDaisy/src/per/adc.h ****         MUX_SEL_1,    /**< & */
  38:/Users/paulwang/Desktop/DaisyExamples/libDaisy/src/per/adc.h ****         MUX_SEL_2,    /**< & */
  39:/Users/paulwang/Desktop/DaisyExamples/libDaisy/src/per/adc.h ****         MUX_SEL_LAST, /**< & */
  40:/Users/paulwang/Desktop/DaisyExamples/libDaisy/src/per/adc.h ****     };
  41:/Users/paulwang/Desktop/DaisyExamples/libDaisy/src/per/adc.h **** 
  42:/Users/paulwang/Desktop/DaisyExamples/libDaisy/src/per/adc.h ****     /** \brief per channel conversion speed added to fixed time based on bitdepth, etc. */
  43:/Users/paulwang/Desktop/DaisyExamples/libDaisy/src/per/adc.h ****     enum ConversionSpeed
  44:/Users/paulwang/Desktop/DaisyExamples/libDaisy/src/per/adc.h ****     {
  45:/Users/paulwang/Desktop/DaisyExamples/libDaisy/src/per/adc.h ****         SPEED_1CYCLES_5,
  46:/Users/paulwang/Desktop/DaisyExamples/libDaisy/src/per/adc.h ****         SPEED_2CYCLES_5,
  47:/Users/paulwang/Desktop/DaisyExamples/libDaisy/src/per/adc.h ****         SPEED_8CYCLES_5,
  48:/Users/paulwang/Desktop/DaisyExamples/libDaisy/src/per/adc.h ****         SPEED_16CYCLES_5,
  49:/Users/paulwang/Desktop/DaisyExamples/libDaisy/src/per/adc.h ****         SPEED_32CYCLES_5,
  50:/Users/paulwang/Desktop/DaisyExamples/libDaisy/src/per/adc.h ****         SPEED_64CYCLES_5,
  51:/Users/paulwang/Desktop/DaisyExamples/libDaisy/src/per/adc.h ****         SPEED_387CYCLES_5,
  52:/Users/paulwang/Desktop/DaisyExamples/libDaisy/src/per/adc.h ****         SPEED_810CYCLES_5,
  53:/Users/paulwang/Desktop/DaisyExamples/libDaisy/src/per/adc.h ****     };
  54:/Users/paulwang/Desktop/DaisyExamples/libDaisy/src/per/adc.h **** 
  55:/Users/paulwang/Desktop/DaisyExamples/libDaisy/src/per/adc.h ****     /** Initializes a single ADC pin as an ADC. 
  56:/Users/paulwang/Desktop/DaisyExamples/libDaisy/src/per/adc.h ****     \param pin Pin to init.
  57:/Users/paulwang/Desktop/DaisyExamples/libDaisy/src/per/adc.h ****     \param speed conversion speed for this pin defaults to 8.5 cycles
  58:/Users/paulwang/Desktop/DaisyExamples/libDaisy/src/per/adc.h ****      */
  59:/Users/paulwang/Desktop/DaisyExamples/libDaisy/src/per/adc.h ****     void InitSingle(dsy_gpio_pin pin, ConversionSpeed speed = SPEED_8CYCLES_5);
  60:/Users/paulwang/Desktop/DaisyExamples/libDaisy/src/per/adc.h **** 
  61:/Users/paulwang/Desktop/DaisyExamples/libDaisy/src/per/adc.h ****     /** 
  62:/Users/paulwang/Desktop/DaisyExamples/libDaisy/src/per/adc.h ****     Initializes a single ADC pin as a Multiplexed ADC.
  63:/Users/paulwang/Desktop/DaisyExamples/libDaisy/src/per/adc.h ****     Requires a CD405X Multiplexer connected to the pin.
  64:/Users/paulwang/Desktop/DaisyExamples/libDaisy/src/per/adc.h ****     You only need to supply the mux pins that are required,
  65:/Users/paulwang/Desktop/DaisyExamples/libDaisy/src/per/adc.h ****     e.g. a 4052 mux would only require mux_0 and mux_1.
  66:/Users/paulwang/Desktop/DaisyExamples/libDaisy/src/per/adc.h ****     Internal Callbacks handle the pin addressing.
  67:/Users/paulwang/Desktop/DaisyExamples/libDaisy/src/per/adc.h ****     \param adc_pin &
  68:/Users/paulwang/Desktop/DaisyExamples/libDaisy/src/per/adc.h ****     \param mux_channels must be 1-8
  69:/Users/paulwang/Desktop/DaisyExamples/libDaisy/src/per/adc.h ****     \param mux_0 First mux pin
  70:/Users/paulwang/Desktop/DaisyExamples/libDaisy/src/per/adc.h ****     \param mux_1 Second mux pin
  71:/Users/paulwang/Desktop/DaisyExamples/libDaisy/src/per/adc.h ****     \param mux_2 Third mux pin
  72:/Users/paulwang/Desktop/DaisyExamples/libDaisy/src/per/adc.h ****     \param speed conversion speed for this pin defaults to 8.5 cycles
  73:/Users/paulwang/Desktop/DaisyExamples/libDaisy/src/per/adc.h ****     */
  74:/Users/paulwang/Desktop/DaisyExamples/libDaisy/src/per/adc.h ****     void InitMux(dsy_gpio_pin    adc_pin,
  75:/Users/paulwang/Desktop/DaisyExamples/libDaisy/src/per/adc.h ****                  size_t          mux_channels,
  76:/Users/paulwang/Desktop/DaisyExamples/libDaisy/src/per/adc.h ****                  dsy_gpio_pin    mux_0,
ARM GAS  /var/folders/6w/sx7v0gy94nj4l80r62zsklwh0000gn/T//ccA4AFzN.s 			page 6


  77:/Users/paulwang/Desktop/DaisyExamples/libDaisy/src/per/adc.h ****                  dsy_gpio_pin    mux_1 = {DSY_GPIOX, 0},
  78:/Users/paulwang/Desktop/DaisyExamples/libDaisy/src/per/adc.h ****                  dsy_gpio_pin    mux_2 = {DSY_GPIOX, 0},
  79:/Users/paulwang/Desktop/DaisyExamples/libDaisy/src/per/adc.h ****                  ConversionSpeed speed = SPEED_8CYCLES_5);
  80:/Users/paulwang/Desktop/DaisyExamples/libDaisy/src/per/adc.h **** 
  81:/Users/paulwang/Desktop/DaisyExamples/libDaisy/src/per/adc.h ****     dsy_gpio        pin_;                   /**< & */
  82:/Users/paulwang/Desktop/DaisyExamples/libDaisy/src/per/adc.h ****     dsy_gpio        mux_pin_[MUX_SEL_LAST]; /**< & */
  83:/Users/paulwang/Desktop/DaisyExamples/libDaisy/src/per/adc.h ****     uint8_t         mux_channels_;          /**< & */
  84:/Users/paulwang/Desktop/DaisyExamples/libDaisy/src/per/adc.h ****     ConversionSpeed speed_;
  85:/Users/paulwang/Desktop/DaisyExamples/libDaisy/src/per/adc.h **** };
  86:/Users/paulwang/Desktop/DaisyExamples/libDaisy/src/per/adc.h **** 
  87:/Users/paulwang/Desktop/DaisyExamples/libDaisy/src/per/adc.h **** /**
  88:/Users/paulwang/Desktop/DaisyExamples/libDaisy/src/per/adc.h ****    @brief Handler for analog to digital conversion
  89:/Users/paulwang/Desktop/DaisyExamples/libDaisy/src/per/adc.h **** */
  90:/Users/paulwang/Desktop/DaisyExamples/libDaisy/src/per/adc.h **** class AdcHandle
  91:/Users/paulwang/Desktop/DaisyExamples/libDaisy/src/per/adc.h **** {
  92:/Users/paulwang/Desktop/DaisyExamples/libDaisy/src/per/adc.h ****   public:
  93:/Users/paulwang/Desktop/DaisyExamples/libDaisy/src/per/adc.h ****     /** Supported oversampling amounts */
  94:/Users/paulwang/Desktop/DaisyExamples/libDaisy/src/per/adc.h ****     enum OverSampling
  95:/Users/paulwang/Desktop/DaisyExamples/libDaisy/src/per/adc.h ****     {
  96:/Users/paulwang/Desktop/DaisyExamples/libDaisy/src/per/adc.h ****         OVS_NONE, /**< & */
  97:/Users/paulwang/Desktop/DaisyExamples/libDaisy/src/per/adc.h ****         OVS_4,    /**< & */
  98:/Users/paulwang/Desktop/DaisyExamples/libDaisy/src/per/adc.h ****         OVS_8,    /**< & */
  99:/Users/paulwang/Desktop/DaisyExamples/libDaisy/src/per/adc.h ****         OVS_16,   /**< & */
 100:/Users/paulwang/Desktop/DaisyExamples/libDaisy/src/per/adc.h ****         OVS_32,   /**< & */
 101:/Users/paulwang/Desktop/DaisyExamples/libDaisy/src/per/adc.h ****         OVS_64,   /**< & */
 102:/Users/paulwang/Desktop/DaisyExamples/libDaisy/src/per/adc.h ****         OVS_128,  /**< & */
 103:/Users/paulwang/Desktop/DaisyExamples/libDaisy/src/per/adc.h ****         OVS_256,  /**< & */
 104:/Users/paulwang/Desktop/DaisyExamples/libDaisy/src/per/adc.h ****         OVS_512,  /**< & */
 105:/Users/paulwang/Desktop/DaisyExamples/libDaisy/src/per/adc.h ****         OVS_1024, /**< & */
 106:/Users/paulwang/Desktop/DaisyExamples/libDaisy/src/per/adc.h ****         OVS_LAST, /**< & */
 107:/Users/paulwang/Desktop/DaisyExamples/libDaisy/src/per/adc.h ****     };
 108:/Users/paulwang/Desktop/DaisyExamples/libDaisy/src/per/adc.h **** 
 109:/Users/paulwang/Desktop/DaisyExamples/libDaisy/src/per/adc.h ****     AdcHandle() {}
 110:/Users/paulwang/Desktop/DaisyExamples/libDaisy/src/per/adc.h ****     ~AdcHandle() {}
  50              		.loc 4 110 5 is_stmt 1 view .LVU5
  51              		.loc 4 110 5 is_stmt 0 view .LVU6
  52              	.LBE88:
  53              	.LBB89:
  54              	.LBI89:
  55              		.file 5 "/Users/paulwang/Desktop/DaisyExamples/libDaisy/src/hid/audio.h"
   1:/Users/paulwang/Desktop/DaisyExamples/libDaisy/src/hid/audio.h **** #ifndef DSY_AUDIO_H
   2:/Users/paulwang/Desktop/DaisyExamples/libDaisy/src/hid/audio.h **** #define DSY_AUDIO_H /**< & */
   3:/Users/paulwang/Desktop/DaisyExamples/libDaisy/src/hid/audio.h **** 
   4:/Users/paulwang/Desktop/DaisyExamples/libDaisy/src/hid/audio.h **** #include "per/sai.h"
   5:/Users/paulwang/Desktop/DaisyExamples/libDaisy/src/hid/audio.h **** 
   6:/Users/paulwang/Desktop/DaisyExamples/libDaisy/src/hid/audio.h **** namespace daisy
   7:/Users/paulwang/Desktop/DaisyExamples/libDaisy/src/hid/audio.h **** {
   8:/Users/paulwang/Desktop/DaisyExamples/libDaisy/src/hid/audio.h **** /** @brief Audio Engine Handle
   9:/Users/paulwang/Desktop/DaisyExamples/libDaisy/src/hid/audio.h ****  *  @ingroup audio 
  10:/Users/paulwang/Desktop/DaisyExamples/libDaisy/src/hid/audio.h ****  *  @details This class allows for higher level access to an audio engine.
  11:/Users/paulwang/Desktop/DaisyExamples/libDaisy/src/hid/audio.h ****  *           If you're using a SOM like the DaisySeed or DaisyPatchSM (or any 
  12:/Users/paulwang/Desktop/DaisyExamples/libDaisy/src/hid/audio.h ****  *            board that includes one of those objects) then the intialization
  13:/Users/paulwang/Desktop/DaisyExamples/libDaisy/src/hid/audio.h ****  *            is already taken  care of.
  14:/Users/paulwang/Desktop/DaisyExamples/libDaisy/src/hid/audio.h ****  *           If you're setting up your own custom hardware, or need to make changes
  15:/Users/paulwang/Desktop/DaisyExamples/libDaisy/src/hid/audio.h ****  *           you will have to take the following steps:
  16:/Users/paulwang/Desktop/DaisyExamples/libDaisy/src/hid/audio.h ****  *             1. Create and Initialize an SaiHandle or two depending on your requirements
  17:/Users/paulwang/Desktop/DaisyExamples/libDaisy/src/hid/audio.h ****  *             2. Initialize the Audio Handle with the desired settings and the Initialized SaiHand
ARM GAS  /var/folders/6w/sx7v0gy94nj4l80r62zsklwh0000gn/T//ccA4AFzN.s 			page 7


  18:/Users/paulwang/Desktop/DaisyExamples/libDaisy/src/hid/audio.h ****  *             3. If the connected codec requires special configuration or initialization, do so
  19:/Users/paulwang/Desktop/DaisyExamples/libDaisy/src/hid/audio.h ****  *             4. Write a callback method using either the AudioCallback or the InterleavingAudioCa
  20:/Users/paulwang/Desktop/DaisyExamples/libDaisy/src/hid/audio.h ****  *             5. Start the Audio using one of the StartAudio function
  21:/Users/paulwang/Desktop/DaisyExamples/libDaisy/src/hid/audio.h ****  */
  22:/Users/paulwang/Desktop/DaisyExamples/libDaisy/src/hid/audio.h **** class AudioHandle
  23:/Users/paulwang/Desktop/DaisyExamples/libDaisy/src/hid/audio.h **** {
  24:/Users/paulwang/Desktop/DaisyExamples/libDaisy/src/hid/audio.h ****   public:
  25:/Users/paulwang/Desktop/DaisyExamples/libDaisy/src/hid/audio.h ****     /** Manually configurable details about the Audio Engine */
  26:/Users/paulwang/Desktop/DaisyExamples/libDaisy/src/hid/audio.h ****     /** TODO: Figure out how to get samplerate in here. */
  27:/Users/paulwang/Desktop/DaisyExamples/libDaisy/src/hid/audio.h ****     struct Config
  28:/Users/paulwang/Desktop/DaisyExamples/libDaisy/src/hid/audio.h ****     {
  29:/Users/paulwang/Desktop/DaisyExamples/libDaisy/src/hid/audio.h ****         /** number of samples to process per callback */
  30:/Users/paulwang/Desktop/DaisyExamples/libDaisy/src/hid/audio.h ****         size_t blocksize;
  31:/Users/paulwang/Desktop/DaisyExamples/libDaisy/src/hid/audio.h **** 
  32:/Users/paulwang/Desktop/DaisyExamples/libDaisy/src/hid/audio.h ****         /**< Sample rate of audio */
  33:/Users/paulwang/Desktop/DaisyExamples/libDaisy/src/hid/audio.h ****         SaiHandle::Config::SampleRate samplerate;
  34:/Users/paulwang/Desktop/DaisyExamples/libDaisy/src/hid/audio.h **** 
  35:/Users/paulwang/Desktop/DaisyExamples/libDaisy/src/hid/audio.h ****         /** factor for adjustment before and after callback for hardware that may have extra headro
  36:/Users/paulwang/Desktop/DaisyExamples/libDaisy/src/hid/audio.h ****         float postgain;
  37:/Users/paulwang/Desktop/DaisyExamples/libDaisy/src/hid/audio.h **** 
  38:/Users/paulwang/Desktop/DaisyExamples/libDaisy/src/hid/audio.h ****         /** factor for additional one-sided compensation to audio path for hardware that may
  39:/Users/paulwang/Desktop/DaisyExamples/libDaisy/src/hid/audio.h ****          *  have unequal input/output ranges
  40:/Users/paulwang/Desktop/DaisyExamples/libDaisy/src/hid/audio.h ****          */
  41:/Users/paulwang/Desktop/DaisyExamples/libDaisy/src/hid/audio.h ****         float output_compensation;
  42:/Users/paulwang/Desktop/DaisyExamples/libDaisy/src/hid/audio.h **** 
  43:/Users/paulwang/Desktop/DaisyExamples/libDaisy/src/hid/audio.h ****         /** Sets default values for config struct */
  44:/Users/paulwang/Desktop/DaisyExamples/libDaisy/src/hid/audio.h ****         Config()
  45:/Users/paulwang/Desktop/DaisyExamples/libDaisy/src/hid/audio.h ****         : blocksize(48),
  46:/Users/paulwang/Desktop/DaisyExamples/libDaisy/src/hid/audio.h ****           samplerate(SaiHandle::Config::SampleRate::SAI_48KHZ),
  47:/Users/paulwang/Desktop/DaisyExamples/libDaisy/src/hid/audio.h ****           postgain(1.f),
  48:/Users/paulwang/Desktop/DaisyExamples/libDaisy/src/hid/audio.h ****           output_compensation(1.f)
  49:/Users/paulwang/Desktop/DaisyExamples/libDaisy/src/hid/audio.h ****         {
  50:/Users/paulwang/Desktop/DaisyExamples/libDaisy/src/hid/audio.h ****         }
  51:/Users/paulwang/Desktop/DaisyExamples/libDaisy/src/hid/audio.h ****     };
  52:/Users/paulwang/Desktop/DaisyExamples/libDaisy/src/hid/audio.h **** 
  53:/Users/paulwang/Desktop/DaisyExamples/libDaisy/src/hid/audio.h ****     enum class Result
  54:/Users/paulwang/Desktop/DaisyExamples/libDaisy/src/hid/audio.h ****     {
  55:/Users/paulwang/Desktop/DaisyExamples/libDaisy/src/hid/audio.h ****         OK,
  56:/Users/paulwang/Desktop/DaisyExamples/libDaisy/src/hid/audio.h ****         ERR,
  57:/Users/paulwang/Desktop/DaisyExamples/libDaisy/src/hid/audio.h ****     };
  58:/Users/paulwang/Desktop/DaisyExamples/libDaisy/src/hid/audio.h **** 
  59:/Users/paulwang/Desktop/DaisyExamples/libDaisy/src/hid/audio.h ****     /** Non-Interleaving input buffer
  60:/Users/paulwang/Desktop/DaisyExamples/libDaisy/src/hid/audio.h ****      * Buffer arranged by float[chn][sample] 
  61:/Users/paulwang/Desktop/DaisyExamples/libDaisy/src/hid/audio.h ****      * const so that the user can't modify the input
  62:/Users/paulwang/Desktop/DaisyExamples/libDaisy/src/hid/audio.h ****      */
  63:/Users/paulwang/Desktop/DaisyExamples/libDaisy/src/hid/audio.h ****     typedef const float* const* InputBuffer;
  64:/Users/paulwang/Desktop/DaisyExamples/libDaisy/src/hid/audio.h **** 
  65:/Users/paulwang/Desktop/DaisyExamples/libDaisy/src/hid/audio.h ****     /** Non-Interleaving output buffer
  66:/Users/paulwang/Desktop/DaisyExamples/libDaisy/src/hid/audio.h ****      * Arranged by float[chn][sample] 
  67:/Users/paulwang/Desktop/DaisyExamples/libDaisy/src/hid/audio.h ****      */
  68:/Users/paulwang/Desktop/DaisyExamples/libDaisy/src/hid/audio.h ****     typedef float** OutputBuffer;
  69:/Users/paulwang/Desktop/DaisyExamples/libDaisy/src/hid/audio.h **** 
  70:/Users/paulwang/Desktop/DaisyExamples/libDaisy/src/hid/audio.h ****     /** Type for a Non-Interleaving audio callback 
  71:/Users/paulwang/Desktop/DaisyExamples/libDaisy/src/hid/audio.h ****      * Non-Interleaving audio callbacks in daisy will be of this type
  72:/Users/paulwang/Desktop/DaisyExamples/libDaisy/src/hid/audio.h ****      */
  73:/Users/paulwang/Desktop/DaisyExamples/libDaisy/src/hid/audio.h ****     typedef void (*AudioCallback)(InputBuffer  in,
  74:/Users/paulwang/Desktop/DaisyExamples/libDaisy/src/hid/audio.h ****                                   OutputBuffer out,
ARM GAS  /var/folders/6w/sx7v0gy94nj4l80r62zsklwh0000gn/T//ccA4AFzN.s 			page 8


  75:/Users/paulwang/Desktop/DaisyExamples/libDaisy/src/hid/audio.h ****                                   size_t       size);
  76:/Users/paulwang/Desktop/DaisyExamples/libDaisy/src/hid/audio.h **** 
  77:/Users/paulwang/Desktop/DaisyExamples/libDaisy/src/hid/audio.h ****     /** Interleaving Input buffer
  78:/Users/paulwang/Desktop/DaisyExamples/libDaisy/src/hid/audio.h ****      ** audio is prepared as { L0, R0, L1, R1, . . . LN, RN }]
  79:/Users/paulwang/Desktop/DaisyExamples/libDaisy/src/hid/audio.h ****      ** this is const, as the user shouldn't modify it
  80:/Users/paulwang/Desktop/DaisyExamples/libDaisy/src/hid/audio.h ****     */
  81:/Users/paulwang/Desktop/DaisyExamples/libDaisy/src/hid/audio.h ****     typedef const float* InterleavingInputBuffer;
  82:/Users/paulwang/Desktop/DaisyExamples/libDaisy/src/hid/audio.h **** 
  83:/Users/paulwang/Desktop/DaisyExamples/libDaisy/src/hid/audio.h ****     /** Interleaving Output buffer 
  84:/Users/paulwang/Desktop/DaisyExamples/libDaisy/src/hid/audio.h ****      ** audio is prepared as { L0, R0, L1, R1, . . . LN, RN }
  85:/Users/paulwang/Desktop/DaisyExamples/libDaisy/src/hid/audio.h ****     */
  86:/Users/paulwang/Desktop/DaisyExamples/libDaisy/src/hid/audio.h ****     typedef float* InterleavingOutputBuffer;
  87:/Users/paulwang/Desktop/DaisyExamples/libDaisy/src/hid/audio.h **** 
  88:/Users/paulwang/Desktop/DaisyExamples/libDaisy/src/hid/audio.h ****     /** Interleaving Audio Callback 
  89:/Users/paulwang/Desktop/DaisyExamples/libDaisy/src/hid/audio.h ****      * Interleaving audio callbacks in daisy must be of this type
  90:/Users/paulwang/Desktop/DaisyExamples/libDaisy/src/hid/audio.h ****      */
  91:/Users/paulwang/Desktop/DaisyExamples/libDaisy/src/hid/audio.h ****     typedef void (*InterleavingAudioCallback)(InterleavingInputBuffer  in,
  92:/Users/paulwang/Desktop/DaisyExamples/libDaisy/src/hid/audio.h ****                                               InterleavingOutputBuffer out,
  93:/Users/paulwang/Desktop/DaisyExamples/libDaisy/src/hid/audio.h ****                                               size_t                   size);
  94:/Users/paulwang/Desktop/DaisyExamples/libDaisy/src/hid/audio.h **** 
  95:/Users/paulwang/Desktop/DaisyExamples/libDaisy/src/hid/audio.h ****     AudioHandle() : pimpl_(nullptr) {}
  96:/Users/paulwang/Desktop/DaisyExamples/libDaisy/src/hid/audio.h ****     ~AudioHandle() {}
  56              		.loc 5 96 5 is_stmt 1 view .LVU7
  57              		.loc 5 96 5 is_stmt 0 view .LVU8
  58              	.LBE89:
  59              		.loc 1 22 19 view .LVU9
  60 0000 7047     		bx	lr
  61              		.cfi_endproc
  62              	.LFE2556:
  64              		.weak	_ZN5daisy9DaisySeedD1Ev
  65              		.thumb_set _ZN5daisy9DaisySeedD1Ev,_ZN5daisy9DaisySeedD2Ev
  66 0002 00BF     		.section	.text._ZN7daisysp7TremoloD2Ev,"axG",%progbits,_ZN7daisysp7TremoloD5Ev,comdat
  67              		.align	1
  68              		.p2align 2,,3
  69              		.weak	_ZN7daisysp7TremoloD2Ev
  70              		.syntax unified
  71              		.thumb
  72              		.thumb_func
  74              	_ZN7daisysp7TremoloD2Ev:
  75              	.LVL1:
  76              	.LFB4433:
  77              		.file 6 "/Users/paulwang/Desktop/DaisyExamples/DaisySP/Source/Effects/tremolo.h"
   1:/Users/paulwang/Desktop/DaisyExamples/DaisySP/Source/Effects/tremolo.h **** /*
   2:/Users/paulwang/Desktop/DaisyExamples/DaisySP/Source/Effects/tremolo.h **** Copyright (c) 2020 Electrosmith, Corp
   3:/Users/paulwang/Desktop/DaisyExamples/DaisySP/Source/Effects/tremolo.h **** 
   4:/Users/paulwang/Desktop/DaisyExamples/DaisySP/Source/Effects/tremolo.h **** Use of this source code is governed by an MIT-style
   5:/Users/paulwang/Desktop/DaisyExamples/DaisySP/Source/Effects/tremolo.h **** license that can be found in the LICENSE file or at
   6:/Users/paulwang/Desktop/DaisyExamples/DaisySP/Source/Effects/tremolo.h **** https://opensource.org/licenses/MIT.
   7:/Users/paulwang/Desktop/DaisyExamples/DaisySP/Source/Effects/tremolo.h **** */
   8:/Users/paulwang/Desktop/DaisyExamples/DaisySP/Source/Effects/tremolo.h **** 
   9:/Users/paulwang/Desktop/DaisyExamples/DaisySP/Source/Effects/tremolo.h **** #pragma once
  10:/Users/paulwang/Desktop/DaisyExamples/DaisySP/Source/Effects/tremolo.h **** #ifndef DSY_TREMOLO_H
  11:/Users/paulwang/Desktop/DaisyExamples/DaisySP/Source/Effects/tremolo.h **** #define DSY_TREMOLO_H
  12:/Users/paulwang/Desktop/DaisyExamples/DaisySP/Source/Effects/tremolo.h **** 
  13:/Users/paulwang/Desktop/DaisyExamples/DaisySP/Source/Effects/tremolo.h **** #include <stdint.h>
  14:/Users/paulwang/Desktop/DaisyExamples/DaisySP/Source/Effects/tremolo.h **** #ifdef __cplusplus
  15:/Users/paulwang/Desktop/DaisyExamples/DaisySP/Source/Effects/tremolo.h **** 
ARM GAS  /var/folders/6w/sx7v0gy94nj4l80r62zsklwh0000gn/T//ccA4AFzN.s 			page 9


  16:/Users/paulwang/Desktop/DaisyExamples/DaisySP/Source/Effects/tremolo.h **** #include <math.h>
  17:/Users/paulwang/Desktop/DaisyExamples/DaisySP/Source/Effects/tremolo.h **** #include "Synthesis/oscillator.h"
  18:/Users/paulwang/Desktop/DaisyExamples/DaisySP/Source/Effects/tremolo.h **** 
  19:/Users/paulwang/Desktop/DaisyExamples/DaisySP/Source/Effects/tremolo.h **** /** @file tremolo.h */
  20:/Users/paulwang/Desktop/DaisyExamples/DaisySP/Source/Effects/tremolo.h **** 
  21:/Users/paulwang/Desktop/DaisyExamples/DaisySP/Source/Effects/tremolo.h **** namespace daisysp
  22:/Users/paulwang/Desktop/DaisyExamples/DaisySP/Source/Effects/tremolo.h **** {
  23:/Users/paulwang/Desktop/DaisyExamples/DaisySP/Source/Effects/tremolo.h **** /**  
  24:/Users/paulwang/Desktop/DaisyExamples/DaisySP/Source/Effects/tremolo.h ****     @brief Tremolo effect.
  25:/Users/paulwang/Desktop/DaisyExamples/DaisySP/Source/Effects/tremolo.h ****     @author Ben Sergentanis
  26:/Users/paulwang/Desktop/DaisyExamples/DaisySP/Source/Effects/tremolo.h ****     @date Jan 2021
  27:/Users/paulwang/Desktop/DaisyExamples/DaisySP/Source/Effects/tremolo.h ****     Based on https://christianfloisand.wordpress.com/2012/04/18/coding-some-tremolo/ \n
  28:/Users/paulwang/Desktop/DaisyExamples/DaisySP/Source/Effects/tremolo.h **** */
  29:/Users/paulwang/Desktop/DaisyExamples/DaisySP/Source/Effects/tremolo.h **** class Tremolo
  30:/Users/paulwang/Desktop/DaisyExamples/DaisySP/Source/Effects/tremolo.h **** {
  31:/Users/paulwang/Desktop/DaisyExamples/DaisySP/Source/Effects/tremolo.h ****   public:
  32:/Users/paulwang/Desktop/DaisyExamples/DaisySP/Source/Effects/tremolo.h ****     Tremolo() {}
  33:/Users/paulwang/Desktop/DaisyExamples/DaisySP/Source/Effects/tremolo.h ****     ~Tremolo() {}
  78              		.loc 6 33 5 is_stmt 1 view -0
  79              		.cfi_startproc
  80              		@ args = 0, pretend = 0, frame = 0
  81              		@ frame_needed = 0, uses_anonymous_args = 0
  82              		@ link register save eliminated.
  83              	.LBB90:
  84              	.LBI90:
  85              		.file 7 "/Users/paulwang/Desktop/DaisyExamples/DaisySP/Source/Synthesis/oscillator.h"
   1:/Users/paulwang/Desktop/DaisyExamples/DaisySP/Source/Synthesis/oscillator.h **** /*
   2:/Users/paulwang/Desktop/DaisyExamples/DaisySP/Source/Synthesis/oscillator.h **** Copyright (c) 2020 Electrosmith, Corp
   3:/Users/paulwang/Desktop/DaisyExamples/DaisySP/Source/Synthesis/oscillator.h **** 
   4:/Users/paulwang/Desktop/DaisyExamples/DaisySP/Source/Synthesis/oscillator.h **** Use of this source code is governed by an MIT-style
   5:/Users/paulwang/Desktop/DaisyExamples/DaisySP/Source/Synthesis/oscillator.h **** license that can be found in the LICENSE file or at
   6:/Users/paulwang/Desktop/DaisyExamples/DaisySP/Source/Synthesis/oscillator.h **** https://opensource.org/licenses/MIT.
   7:/Users/paulwang/Desktop/DaisyExamples/DaisySP/Source/Synthesis/oscillator.h **** */
   8:/Users/paulwang/Desktop/DaisyExamples/DaisySP/Source/Synthesis/oscillator.h **** 
   9:/Users/paulwang/Desktop/DaisyExamples/DaisySP/Source/Synthesis/oscillator.h **** #pragma once
  10:/Users/paulwang/Desktop/DaisyExamples/DaisySP/Source/Synthesis/oscillator.h **** #ifndef DSY_OSCILLATOR_H
  11:/Users/paulwang/Desktop/DaisyExamples/DaisySP/Source/Synthesis/oscillator.h **** #define DSY_OSCILLATOR_H
  12:/Users/paulwang/Desktop/DaisyExamples/DaisySP/Source/Synthesis/oscillator.h **** #include <stdint.h>
  13:/Users/paulwang/Desktop/DaisyExamples/DaisySP/Source/Synthesis/oscillator.h **** #include "Utility/dsp.h"
  14:/Users/paulwang/Desktop/DaisyExamples/DaisySP/Source/Synthesis/oscillator.h **** #ifdef __cplusplus
  15:/Users/paulwang/Desktop/DaisyExamples/DaisySP/Source/Synthesis/oscillator.h **** 
  16:/Users/paulwang/Desktop/DaisyExamples/DaisySP/Source/Synthesis/oscillator.h **** namespace daisysp
  17:/Users/paulwang/Desktop/DaisyExamples/DaisySP/Source/Synthesis/oscillator.h **** {
  18:/Users/paulwang/Desktop/DaisyExamples/DaisySP/Source/Synthesis/oscillator.h **** /** Synthesis of several waveforms, including polyBLEP bandlimited waveforms.
  19:/Users/paulwang/Desktop/DaisyExamples/DaisySP/Source/Synthesis/oscillator.h **** */
  20:/Users/paulwang/Desktop/DaisyExamples/DaisySP/Source/Synthesis/oscillator.h **** class Oscillator
  21:/Users/paulwang/Desktop/DaisyExamples/DaisySP/Source/Synthesis/oscillator.h **** {
  22:/Users/paulwang/Desktop/DaisyExamples/DaisySP/Source/Synthesis/oscillator.h ****   public:
  23:/Users/paulwang/Desktop/DaisyExamples/DaisySP/Source/Synthesis/oscillator.h ****     Oscillator() {}
  24:/Users/paulwang/Desktop/DaisyExamples/DaisySP/Source/Synthesis/oscillator.h ****     ~Oscillator() {}
  86              		.loc 7 24 5 view .LVU11
  87              		.loc 7 24 5 is_stmt 0 view .LVU12
  88              	.LBE90:
  89              		.loc 6 33 17 view .LVU13
  90 0000 7047     		bx	lr
  91              		.cfi_endproc
  92              	.LFE4433:
ARM GAS  /var/folders/6w/sx7v0gy94nj4l80r62zsklwh0000gn/T//ccA4AFzN.s 			page 10


  94              		.weak	_ZN7daisysp7TremoloD1Ev
  95              		.thumb_set _ZN7daisysp7TremoloD1Ev,_ZN7daisysp7TremoloD2Ev
  96 0002 00BF     		.section	.text._Z13AudioCallbackPKPKfPPfj,"ax",%progbits
  97              		.align	1
  98              		.p2align 2,,3
  99              		.global	_Z13AudioCallbackPKPKfPPfj
 100              		.syntax unified
 101              		.thumb
 102              		.thumb_func
 104              	_Z13AudioCallbackPKPKfPPfj:
 105              	.LVL2:
 106              	.LFB4682:
 107              		.file 8 "axis.cpp"
   1:axis.cpp      **** // #include "mpu6050.h"
   2:axis.cpp      **** // #include "daisy_seed.h"
   3:axis.cpp      **** // #include "daisysp.h"
   4:axis.cpp      **** 
   5:axis.cpp      **** // using namespace daisy;
   6:axis.cpp      **** // using namespace daisysp;
   7:axis.cpp      **** 
   8:axis.cpp      **** 
   9:axis.cpp      **** // DaisySeed hw;
  10:axis.cpp      **** // Oscillator osc;
  11:axis.cpp      **** // PitchShifter ps;
  12:axis.cpp      **** // SensorData data;
  13:axis.cpp      **** // Tremolo tremolo;
  14:axis.cpp      **** 
  15:axis.cpp      **** 
  16:axis.cpp      **** // volatile float trem_depth = 0.5f;
  17:axis.cpp      **** // volatile float trem_freq = 5.0f;
  18:axis.cpp      **** // void AudioCallback(AudioHandle::InputBuffer  in,
  19:axis.cpp      **** //                    AudioHandle::OutputBuffer out,
  20:axis.cpp      **** //                    size_t                    size)
  21:axis.cpp      **** // {
  22:axis.cpp      **** 
  23:axis.cpp      **** 
  24:axis.cpp      **** // //          tremolo.SetDepth(trem_depth);
  25:axis.cpp      **** // //     tremolo.SetFreq(trem_freq);
  26:axis.cpp      **** 
  27:axis.cpp      **** // // for (size_t i = 0; i < size; i++) {
  28:axis.cpp      **** // //         float dry = in[0][i];
  29:axis.cpp      **** // //         float wet = tremolo.Process(dry);
  30:axis.cpp      ****         
  31:axis.cpp      **** // //         out[0][i] = wet;
  32:axis.cpp      **** // //         out[1][i] = wet;
  33:axis.cpp      **** // //     }
  34:axis.cpp      **** 
  35:axis.cpp      **** //     for (size_t i = 0; i < size; i++) {
  36:axis.cpp      **** //         out[0][i] = in[0][i];
  37:axis.cpp      **** //         out[1][i] = in[1][i];
  38:axis.cpp      **** //     }
  39:axis.cpp      **** // }
  40:axis.cpp      **** 
  41:axis.cpp      **** 
  42:axis.cpp      **** // float Map(float x, float in_min, float in_max, float out_min, float out_max) {
  43:axis.cpp      **** //     x = fminf(fmaxf(x, in_min), in_max);  // Clamp input
  44:axis.cpp      **** //     return (x - in_min) * (out_max - out_min) / (in_max - in_min) + out_min;
ARM GAS  /var/folders/6w/sx7v0gy94nj4l80r62zsklwh0000gn/T//ccA4AFzN.s 			page 11


  45:axis.cpp      **** // }
  46:axis.cpp      **** 
  47:axis.cpp      **** 
  48:axis.cpp      **** // int main(void)
  49:axis.cpp      **** // {
  50:axis.cpp      **** //     // Initialize Daisy
  51:axis.cpp      **** //     hw.Configure();
  52:axis.cpp      **** //     hw.Init();
  53:axis.cpp      **** //     hw.SetAudioBlockSize(4);
  54:axis.cpp      ****     
  55:axis.cpp      **** //     // Start USB serial for debugging
  56:axis.cpp      **** //     hw.StartLog(true);
  57:axis.cpp      **** //     System::Delay(1000);
  58:axis.cpp      ****     
  59:axis.cpp      **** //     hw.PrintLine("=== MPU6050 Test ===");
  60:axis.cpp      ****     
  61:axis.cpp      **** //     // Initialize MPU6050
  62:axis.cpp      **** //     InitMPU6050();
  63:axis.cpp      **** //     hw.PrintLine("MPU6050 Initialized");
  64:axis.cpp      ****     
  65:axis.cpp      **** //     // Test connection
  66:axis.cpp      **** //     if(TestMPU6050()) {
  67:axis.cpp      **** //         hw.PrintLine("MPU6050 Connected!");
  68:axis.cpp      **** //     } else {
  69:axis.cpp      **** //         hw.PrintLine("ERROR: MPU6050 Not Found!");
  70:axis.cpp      **** //         while(1) {
  71:axis.cpp      **** //             hw.SetLed(true);
  72:axis.cpp      **** //             System::Delay(100);
  73:axis.cpp      **** //             hw.SetLed(false);
  74:axis.cpp      **** //             System::Delay(100);
  75:axis.cpp      **** //         }
  76:axis.cpp      **** //     }
  77:axis.cpp      **** //     tremolo.Init(hw.AudioSampleRate());
  78:axis.cpp      **** //     tremolo.SetWaveform(Oscillator::WAVE_SIN);
  79:axis.cpp      ****     
  80:axis.cpp      **** //     hw.StartAudio(AudioCallback);
  81:axis.cpp      **** 
  82:axis.cpp      **** //     int sample_rate = hw.AudioSampleRate();
  83:axis.cpp      **** 
  84:axis.cpp      **** //     // ps.Init(sample_rate);
  85:axis.cpp      **** 
  86:axis.cpp      ****     
  87:axis.cpp      **** //     // Start audio
  88:axis.cpp      **** //     // hw.StartAudio(AudioCallback);
  89:axis.cpp      **** //     hw.PrintLine("Starting main loop...\n");
  90:axis.cpp      **** // ///
  91:axis.cpp      **** //     // Main loop - read sensor data
  92:axis.cpp      **** //     uint32_t last_read = System::GetNow();
  93:axis.cpp      ****     
  94:axis.cpp      **** //     while(1)
  95:axis.cpp      **** //     {
  96:axis.cpp      **** //         // Read sensor every 100ms
  97:axis.cpp      **** //         if(System::GetNow() - last_read >= 100)
  98:axis.cpp      **** //         {
  99:axis.cpp      **** //             // hw.PrintLine("Reading Data now...\n");
 100:axis.cpp      **** //             data = ReadSensorData();
 101:axis.cpp      **** //             last_read = System::GetNow();
ARM GAS  /var/folders/6w/sx7v0gy94nj4l80r62zsklwh0000gn/T//ccA4AFzN.s 			page 12


 102:axis.cpp      **** 
 103:axis.cpp      **** //             // ps.SetTransposition((int(data.pitch/ 10) % 36));
 104:axis.cpp      **** 
 105:axis.cpp      **** 
 106:axis.cpp      **** 
 107:axis.cpp      **** //             trem_depth = Map(data.pitch, -45.0f, 45.0f, 0.0f, 1.0f);
 108:axis.cpp      ****         
 109:axis.cpp      **** //         // Example: roll controls speed
 110:axis.cpp      **** //              trem_freq = Map(data.roll, -45.0f, 45.0f, 2.0f, 12.0f);
 111:axis.cpp      **** 
 112:axis.cpp      **** //         }
 113:axis.cpp      **** //     }
 114:axis.cpp      **** // }
 115:axis.cpp      **** 
 116:axis.cpp      **** // #include "mpu6050.h"
 117:axis.cpp      **** // #include "daisy_seed.h"
 118:axis.cpp      **** // #include "daisysp.h"
 119:axis.cpp      **** 
 120:axis.cpp      **** // using namespace daisy;
 121:axis.cpp      **** // using namespace daisysp;
 122:axis.cpp      **** 
 123:axis.cpp      **** 
 124:axis.cpp      **** // DaisySeed hw;
 125:axis.cpp      **** // Oscillator osc;
 126:axis.cpp      **** 
 127:axis.cpp      **** // void AudioCallback(AudioHandle::InputBuffer  in,
 128:axis.cpp      **** //                    AudioHandle::OutputBuffer out,
 129:axis.cpp      **** //                    size_t                    size)
 130:axis.cpp      **** // {
 131:axis.cpp      **** //     //osc.SetFreq(440 + data.pitch/3.6);
 132:axis.cpp      **** //     // Pass-through audio for now
 133:axis.cpp      **** //     for(size_t i = 0; i < size; i++)
 134:axis.cpp      **** //     {
 135:axis.cpp      **** //         out[0][i] = osc.Process();
 136:axis.cpp      **** //         out[1][i] = osc.Process();
 137:axis.cpp      **** //     }
 138:axis.cpp      **** // }
 139:axis.cpp      **** 
 140:axis.cpp      **** // int main(void)
 141:axis.cpp      **** // {
 142:axis.cpp      **** //     // Initialize Daisy
 143:axis.cpp      **** //     hw.Configure();
 144:axis.cpp      **** //     hw.Init();
 145:axis.cpp      **** //     hw.SetAudioBlockSize(4);
 146:axis.cpp      ****     
 147:axis.cpp      **** //     // Start USB serial for debugging
 148:axis.cpp      **** //     // hw.StartLog(false);
 149:axis.cpp      **** //     // System::Delay(1000);
 150:axis.cpp      ****     
 151:axis.cpp      **** //     float sample_rate = hw.AudioSampleRate();
 152:axis.cpp      **** //     osc.Init(sample_rate);
 153:axis.cpp      **** //     osc.SetWaveform(Oscillator::WAVE_SIN);
 154:axis.cpp      **** //     osc.SetAmp(0.5f);
 155:axis.cpp      **** //     osc.SetFreq(440.0f);
 156:axis.cpp      ****     
 157:axis.cpp      **** //     //Start audio
 158:axis.cpp      **** //     hw.StartAudio(AudioCallback);
ARM GAS  /var/folders/6w/sx7v0gy94nj4l80r62zsklwh0000gn/T//ccA4AFzN.s 			page 13


 159:axis.cpp      ****     
 160:axis.cpp      **** //     while(1)
 161:axis.cpp      **** //     {
 162:axis.cpp      **** 
 163:axis.cpp      **** //     }
 164:axis.cpp      **** // }
 165:axis.cpp      **** 
 166:axis.cpp      **** 
 167:axis.cpp      ****             // int data_sample = 10;
 168:axis.cpp      ****             // hw.PrintLine("Sample data:%d", 10);
 169:axis.cpp      ****             // Print accelerometer (in g's)
 170:axis.cpp      ****             // hw.PrintLine("Accel: X=%.2f Y=%.2f Z=%.2f g", 
 171:axis.cpp      ****             //              data.accel_x_g, data.accel_y_g, data.accel_z_g);
 172:axis.cpp      ****             
 173:axis.cpp      ****             // Print gyroscope (in degrees/second)
 174:axis.cpp      ****             // hw.PrintLine("Gyro:  X=%.1f Y=%.1f Z=%.1f dps", 
 175:axis.cpp      ****             //              data.gyro_x_dps, data.gyro_y_dps, data.gyro_z_dps);
 176:axis.cpp      ****             // int tilt = int(data.roll);  // -180 to +180 degrees
 177:axis.cpp      ****             // Print calculated angles (in degrees)
 178:axis.cpp      ****             // hw.PrintLine("Angles: Roll= %d", tilt);
 179:axis.cpp      **** 
 180:axis.cpp      **** 
 181:axis.cpp      **** #include "mpu6050.h"
 182:axis.cpp      **** #include "daisy_seed.h"
 183:axis.cpp      **** #include "daisysp.h"
 184:axis.cpp      **** 
 185:axis.cpp      **** using namespace daisy;
 186:axis.cpp      **** using namespace daisysp;
 187:axis.cpp      **** 
 188:axis.cpp      **** DaisySeed hw;
 189:axis.cpp      **** Tremolo tremolo;
 190:axis.cpp      **** SensorData data;
 191:axis.cpp      **** 
 192:axis.cpp      **** volatile float trem_depth = 0.5f;
 193:axis.cpp      **** volatile float trem_freq = 5.0f;
 194:axis.cpp      **** 
 195:axis.cpp      **** void AudioCallback(AudioHandle::InputBuffer  in,
 196:axis.cpp      ****                    AudioHandle::OutputBuffer out,
 197:axis.cpp      ****                    size_t                    size)
 198:axis.cpp      **** {
 108              		.loc 8 198 1 is_stmt 1 view -0
 109              		.cfi_startproc
 110              		@ args = 0, pretend = 0, frame = 0
 111              		@ frame_needed = 0, uses_anonymous_args = 0
 199:axis.cpp      ****     tremolo.SetDepth(trem_depth);
 112              		.loc 8 199 5 view .LVU15
 113              		.loc 8 199 21 is_stmt 0 view .LVU16
 114 0000 144B     		ldr	r3, .L12
 198:axis.cpp      ****     tremolo.SetDepth(trem_depth);
 115              		.loc 8 198 1 view .LVU17
 116 0002 2DE9F041 		push	{r4, r5, r6, r7, r8, lr}
 117              		.cfi_def_cfa_offset 24
 118              		.cfi_offset 4, -24
 119              		.cfi_offset 5, -20
 120              		.cfi_offset 6, -16
 121              		.cfi_offset 7, -12
 122              		.cfi_offset 8, -8
ARM GAS  /var/folders/6w/sx7v0gy94nj4l80r62zsklwh0000gn/T//ccA4AFzN.s 			page 14


 123              		.cfi_offset 14, -4
 124              		.loc 8 199 21 view .LVU18
 125 0006 93ED000A 		vldr.32	s0, [r3]
 198:axis.cpp      ****     tremolo.SetDepth(trem_depth);
 126              		.loc 8 198 1 view .LVU19
 127 000a 0646     		mov	r6, r0
 128              		.loc 8 199 21 view .LVU20
 129 000c 1248     		ldr	r0, .L12+4
 130              	.LVL3:
 198:axis.cpp      ****     tremolo.SetDepth(trem_depth);
 131              		.loc 8 198 1 view .LVU21
 132 000e 1546     		mov	r5, r2
 133 0010 8846     		mov	r8, r1
 134              		.loc 8 199 21 view .LVU22
 135 0012 FFF7FEFF 		bl	_ZN7daisysp7Tremolo8SetDepthEf
 136              	.LVL4:
 200:axis.cpp      ****     tremolo.SetFreq(trem_freq);
 137              		.loc 8 200 5 is_stmt 1 view .LVU23
 138              		.loc 8 200 20 is_stmt 0 view .LVU24
 139 0016 114B     		ldr	r3, .L12+8
 140 0018 0F48     		ldr	r0, .L12+4
 141 001a 93ED000A 		vldr.32	s0, [r3]
 142 001e FFF7FEFF 		bl	_ZN7daisysp7Tremolo7SetFreqEf
 143              	.LVL5:
 201:axis.cpp      **** 
 202:axis.cpp      ****     for (size_t i = 0; i < size; i++) {
 144              		.loc 8 202 5 is_stmt 1 view .LVU25
 145              	.LBB91:
 146              		.loc 8 202 26 view .LVU26
 147 0022 ADB1     		cbz	r5, .L4
 148              		.loc 8 202 17 is_stmt 0 view .LVU27
 149 0024 0024     		movs	r4, #0
 150              	.LVL6:
 151              	.L6:
 152              	.LBB92:
 203:axis.cpp      ****         float dry = in[0][i];
 153              		.loc 8 203 9 is_stmt 1 discriminator 2 view .LVU28
 154              		.loc 8 203 15 is_stmt 0 discriminator 2 view .LVU29
 155 0026 3268     		ldr	r2, [r6]
 156 0028 A700     		lsls	r7, r4, #2
 157              	.LVL7:
 204:axis.cpp      ****         float wet = tremolo.Process(dry);
 158              		.loc 8 204 9 is_stmt 1 discriminator 2 view .LVU30
 159              		.loc 8 204 36 is_stmt 0 discriminator 2 view .LVU31
 160 002a 0B48     		ldr	r0, .L12+4
 203:axis.cpp      ****         float dry = in[0][i];
 161              		.loc 8 203 15 discriminator 2 view .LVU32
 162 002c 02EB8402 		add	r2, r2, r4, lsl #2
 163              	.LVL8:
 203:axis.cpp      ****         float dry = in[0][i];
 164              		.loc 8 203 15 discriminator 2 view .LVU33
 165              	.LBE92:
 202:axis.cpp      ****         float dry = in[0][i];
 166              		.loc 8 202 5 discriminator 2 view .LVU34
 167 0030 0134     		adds	r4, r4, #1
 168              	.LVL9:
 169              	.LBB93:
ARM GAS  /var/folders/6w/sx7v0gy94nj4l80r62zsklwh0000gn/T//ccA4AFzN.s 			page 15


 170              		.loc 8 204 36 discriminator 2 view .LVU35
 171 0032 92ED000A 		vldr.32	s0, [r2]
 172 0036 FFF7FEFF 		bl	_ZN7daisysp7Tremolo7ProcessEf
 173              	.LVL10:
 174              		.loc 8 204 36 discriminator 2 view .LVU36
 175              	.LBE93:
 202:axis.cpp      ****         float dry = in[0][i];
 176              		.loc 8 202 26 discriminator 2 view .LVU37
 177 003a A542     		cmp	r5, r4
 178              	.LBB94:
 205:axis.cpp      ****         out[0][i] = wet;
 179              		.loc 8 205 19 discriminator 2 view .LVU38
 180 003c D8E90023 		ldrd	r2, r3, [r8]
 181 0040 02EB070C 		add	ip, r2, r7
 206:axis.cpp      ****         out[1][i] = wet;
 182              		.loc 8 206 19 discriminator 2 view .LVU39
 183 0044 3B44     		add	r3, r3, r7
 205:axis.cpp      ****         out[0][i] = wet;
 184              		.loc 8 205 19 discriminator 2 view .LVU40
 185 0046 8CED000A 		vstr.32	s0, [ip]
 186              		.loc 8 206 9 is_stmt 1 discriminator 2 view .LVU41
 187              		.loc 8 206 19 is_stmt 0 discriminator 2 view .LVU42
 188 004a 83ED000A 		vstr.32	s0, [r3]
 189              	.LBE94:
 202:axis.cpp      ****         float dry = in[0][i];
 190              		.loc 8 202 5 is_stmt 1 discriminator 2 view .LVU43
 191              	.LVL11:
 202:axis.cpp      ****         float dry = in[0][i];
 192              		.loc 8 202 26 discriminator 2 view .LVU44
 193 004e EAD1     		bne	.L6
 194              	.LVL12:
 195              	.L4:
 202:axis.cpp      ****         float dry = in[0][i];
 196              		.loc 8 202 26 is_stmt 0 discriminator 2 view .LVU45
 197              	.LBE91:
 207:axis.cpp      ****     }
 208:axis.cpp      **** }
 198              		.loc 8 208 1 view .LVU46
 199 0050 BDE8F081 		pop	{r4, r5, r6, r7, r8, pc}
 200              	.LVL13:
 201              	.L13:
 202              		.loc 8 208 1 view .LVU47
 203              		.align	2
 204              	.L12:
 205 0054 00000000 		.word	.LANCHOR0
 206 0058 00000000 		.word	.LANCHOR1
 207 005c 00000000 		.word	.LANCHOR2
 208              		.cfi_endproc
 209              	.LFE4682:
 211              		.section	.text._Z3Mapfffff,"ax",%progbits
 212              		.align	1
 213              		.p2align 2,,3
 214              		.global	_Z3Mapfffff
 215              		.syntax unified
 216              		.thumb
 217              		.thumb_func
 219              	_Z3Mapfffff:
ARM GAS  /var/folders/6w/sx7v0gy94nj4l80r62zsklwh0000gn/T//ccA4AFzN.s 			page 16


 220              	.LVL14:
 221              	.LFB4683:
 209:axis.cpp      **** 
 210:axis.cpp      **** float Map(float x, float in_min, float in_max, float out_min, float out_max) {
 222              		.loc 8 210 78 is_stmt 1 view -0
 223              		.cfi_startproc
 224              		@ args = 0, pretend = 0, frame = 0
 225              		@ frame_needed = 0, uses_anonymous_args = 0
 226              		@ link register save eliminated.
 211:axis.cpp      ****     x = fminf(fmaxf(x, in_min), in_max);
 227              		.loc 8 211 5 view .LVU49
 228              		.loc 8 211 14 is_stmt 0 view .LVU50
 229 0000 C0FE207A 		vmaxnm.f32	s15, s0, s1
 212:axis.cpp      ****     return (x - in_min) * (out_max - out_min) / (in_max - in_min) + out_min;
 230              		.loc 8 212 36 view .LVU51
 231 0004 32EE612A 		vsub.f32	s4, s4, s3
 232              	.LVL15:
 211:axis.cpp      ****     x = fminf(fmaxf(x, in_min), in_max);
 233              		.loc 8 211 14 view .LVU52
 234 0008 C7FEC17A 		vminnm.f32	s15, s15, s2
 235              	.LVL16:
 236              		.loc 8 212 5 is_stmt 1 view .LVU53
 237              		.loc 8 212 15 is_stmt 0 view .LVU54
 238 000c 77EEE07A 		vsub.f32	s15, s15, s1
 239              	.LVL17:
 240              		.loc 8 212 57 view .LVU55
 241 0010 31EE601A 		vsub.f32	s2, s2, s1
 242              	.LVL18:
 243              		.loc 8 212 25 view .LVU56
 244 0014 67EE827A 		vmul.f32	s15, s15, s4
 245              		.loc 8 212 47 view .LVU57
 246 0018 87EE810A 		vdiv.f32	s0, s15, s2
 247              	.LVL19:
 213:axis.cpp      **** }
 248              		.loc 8 213 1 view .LVU58
 249 001c 30EE210A 		vadd.f32	s0, s0, s3
 250 0020 7047     		bx	lr
 251              		.cfi_endproc
 252              	.LFE4683:
 254 0022 00BF     		.section	.text.startup.main,"ax",%progbits
 255              		.align	1
 256              		.p2align 2,,3
 257              		.global	main
 258              		.syntax unified
 259              		.thumb
 260              		.thumb_func
 262              	main:
 263              	.LFB4684:
 214:axis.cpp      **** 
 215:axis.cpp      **** int main(void)
 216:axis.cpp      **** {
 264              		.loc 8 216 1 is_stmt 1 view -0
 265              		.cfi_startproc
 266              		@ args = 0, pretend = 0, frame = 48
 267              		@ frame_needed = 0, uses_anonymous_args = 0
 217:axis.cpp      ****     hw.Configure();
 268              		.loc 8 217 5 view .LVU60
ARM GAS  /var/folders/6w/sx7v0gy94nj4l80r62zsklwh0000gn/T//ccA4AFzN.s 			page 17


 216:axis.cpp      ****     hw.Configure();
 269              		.loc 8 216 1 is_stmt 0 view .LVU61
 270 0000 70B5     		push	{r4, r5, r6, lr}
 271              		.cfi_def_cfa_offset 16
 272              		.cfi_offset 4, -16
 273              		.cfi_offset 5, -12
 274              		.cfi_offset 6, -8
 275              		.cfi_offset 14, -4
 276              		.loc 8 217 17 view .LVU62
 277 0002 3348     		ldr	r0, .L20
 216:axis.cpp      ****     hw.Configure();
 278              		.loc 8 216 1 view .LVU63
 279 0004 8CB0     		sub	sp, sp, #48
 280              		.cfi_def_cfa_offset 64
 281              		.loc 8 217 17 view .LVU64
 282 0006 FFF7FEFF 		bl	_ZN5daisy9DaisySeed9ConfigureEv
 283              	.LVL20:
 218:axis.cpp      ****     hw.Init();
 284              		.loc 8 218 5 is_stmt 1 view .LVU65
 285              		.loc 8 218 12 is_stmt 0 view .LVU66
 286 000a 0021     		movs	r1, #0
 287 000c 3048     		ldr	r0, .L20
 288 000e FFF7FEFF 		bl	_ZN5daisy9DaisySeed4InitEb
 289              	.LVL21:
 219:axis.cpp      ****     hw.SetAudioBlockSize(4);
 290              		.loc 8 219 5 is_stmt 1 view .LVU67
 291              		.loc 8 219 25 is_stmt 0 view .LVU68
 292 0012 0421     		movs	r1, #4
 293 0014 2E48     		ldr	r0, .L20
 294 0016 FFF7FEFF 		bl	_ZN5daisy9DaisySeed17SetAudioBlockSizeEj
 295              	.LVL22:
 220:axis.cpp      ****     
 221:axis.cpp      ****     // No StartLog - it might interfere
 222:axis.cpp      ****     
 223:axis.cpp      ****     InitMPU6050();
 296              		.loc 8 223 5 is_stmt 1 view .LVU69
 297 001a 2E4E     		ldr	r6, .L20+4
 298              		.loc 8 223 16 is_stmt 0 view .LVU70
 299 001c FFF7FEFF 		bl	_Z11InitMPU6050v
 300              	.LVL23:
 224:axis.cpp      ****     
 225:axis.cpp      ****     float sample_rate = hw.AudioSampleRate();
 301              		.loc 8 225 5 is_stmt 1 view .LVU71
 302              		.loc 8 225 43 is_stmt 0 view .LVU72
 303 0020 2B48     		ldr	r0, .L20
 304 0022 FFF7FEFF 		bl	_ZN5daisy9DaisySeed15AudioSampleRateEv
 305              	.LVL24:
 226:axis.cpp      ****     tremolo.Init(sample_rate);
 306              		.loc 8 226 5 is_stmt 1 view .LVU73
 307              		.loc 8 226 17 is_stmt 0 view .LVU74
 308 0026 2C48     		ldr	r0, .L20+8
 309 0028 FFF7FEFF 		bl	_ZN7daisysp7Tremolo4InitEf
 310              	.LVL25:
 227:axis.cpp      ****     tremolo.SetWaveform(Oscillator::WAVE_SIN);
 311              		.loc 8 227 5 is_stmt 1 view .LVU75
 312              		.loc 8 227 24 is_stmt 0 view .LVU76
 313 002c 0021     		movs	r1, #0
ARM GAS  /var/folders/6w/sx7v0gy94nj4l80r62zsklwh0000gn/T//ccA4AFzN.s 			page 18


 314 002e 2A48     		ldr	r0, .L20+8
 315 0030 FFF7FEFF 		bl	_ZN7daisysp7Tremolo11SetWaveformEi
 316              	.LVL26:
 228:axis.cpp      ****     
 229:axis.cpp      ****     hw.StartAudio(AudioCallback);
 317              		.loc 8 229 5 is_stmt 1 view .LVU77
 318              		.loc 8 229 18 is_stmt 0 view .LVU78
 319 0034 2949     		ldr	r1, .L20+12
 320 0036 2648     		ldr	r0, .L20
 321 0038 FFF7FEFF 		bl	_ZN5daisy9DaisySeed10StartAudioEPFvPKPKfPPfjE
 322              	.LVL27:
 230:axis.cpp      ****     
 231:axis.cpp      ****     uint32_t last_read = System::GetNow();
 323              		.loc 8 231 5 is_stmt 1 view .LVU79
 324 003c 284D     		ldr	r5, .L20+16
 325              		.loc 8 231 40 is_stmt 0 view .LVU80
 326 003e FFF7FEFF 		bl	_ZN5daisy6System6GetNowEv
 327              	.LVL28:
 328 0042 0446     		mov	r4, r0
 329              	.LVL29:
 330              	.L16:
 232:axis.cpp      ****     
 233:axis.cpp      ****     while(1)
 331              		.loc 8 233 5 is_stmt 1 view .LVU81
 234:axis.cpp      ****     {
 235:axis.cpp      ****         if(System::GetNow() - last_read >= 100)
 332              		.loc 8 235 9 view .LVU82
 333              		.loc 8 235 26 is_stmt 0 view .LVU83
 334 0044 FFF7FEFF 		bl	_ZN5daisy6System6GetNowEv
 335              	.LVL30:
 336              		.loc 8 235 29 view .LVU84
 337 0048 031B     		subs	r3, r0, r4
 338              		.loc 8 235 9 view .LVU85
 339 004a 632B     		cmp	r3, #99
 340 004c FAD9     		bls	.L16
 236:axis.cpp      ****         {
 237:axis.cpp      ****             data = ReadSensorData();
 341              		.loc 8 237 13 is_stmt 1 view .LVU86
 342              		.loc 8 237 35 is_stmt 0 view .LVU87
 343 004e 6846     		mov	r0, sp
 344 0050 244C     		ldr	r4, .L20+20
 345              	.LVL31:
 346              		.loc 8 237 35 view .LVU88
 347 0052 FFF7FEFF 		bl	_Z14ReadSensorDatav
 348              	.LVL32:
 349 0056 EE46     		mov	lr, sp
 350 0058 A446     		mov	ip, r4
 351 005a BEE80F00 		ldmia	lr!, {r0, r1, r2, r3}
 352 005e ACE80F00 		stmia	ip!, {r0, r1, r2, r3}
 353 0062 BEE80F00 		ldmia	lr!, {r0, r1, r2, r3}
 354 0066 ACE80F00 		stmia	ip!, {r0, r1, r2, r3}
 355 006a 9EE80700 		ldm	lr, {r0, r1, r2}
 356 006e 8CE80700 		stm	ip, {r0, r1, r2}
 238:axis.cpp      ****             last_read = System::GetNow();
 357              		.loc 8 238 13 is_stmt 1 view .LVU89
 358              		.loc 8 238 39 is_stmt 0 view .LVU90
 359 0072 FFF7FEFF 		bl	_ZN5daisy6System6GetNowEv
ARM GAS  /var/folders/6w/sx7v0gy94nj4l80r62zsklwh0000gn/T//ccA4AFzN.s 			page 19


 360              	.LVL33:
 361              	.LBB99:
 362              	.LBB100:
 211:axis.cpp      ****     return (x - in_min) * (out_max - out_min) / (in_max - in_min) + out_min;
 363              		.loc 8 211 14 view .LVU91
 364 0076 DFED1C6A 		vldr.32	s13, .L20+24
 365 007a 9FED1C6A 		vldr.32	s12, .L20+28
 366              	.LBE100:
 367              	.LBE99:
 368              	.LBB106:
 369              	.LBB107:
 212:axis.cpp      **** }
 370              		.loc 8 212 25 view .LVU92
 371 007e B2EE045A 		vmov.f32	s10, #1.0e+1
 211:axis.cpp      ****     return (x - in_min) * (out_max - out_min) / (in_max - in_min) + out_min;
 372              		.loc 8 211 14 view .LVU93
 373 0082 D4ED097A 		vldr.32	s15, [r4, #36]
 212:axis.cpp      **** }
 374              		.loc 8 212 69 view .LVU94
 375 0086 F0EE005A 		vmov.f32	s11, #2.0e+0
 376              	.LBE107:
 377              	.LBE106:
 378              	.LBB112:
 379              	.LBB101:
 211:axis.cpp      ****     return (x - in_min) * (out_max - out_min) / (in_max - in_min) + out_min;
 380              		.loc 8 211 14 view .LVU95
 381 008a 94ED0A7A 		vldr.32	s14, [r4, #40]
 382              	.LBE101:
 383              	.LBE112:
 384              		.loc 8 238 39 view .LVU96
 385 008e 0446     		mov	r4, r0
 386              	.LBB113:
 387              	.LBB108:
 211:axis.cpp      ****     return (x - in_min) * (out_max - out_min) / (in_max - in_min) + out_min;
 388              		.loc 8 211 14 view .LVU97
 389 0090 C7FE867A 		vmaxnm.f32	s15, s15, s12
 390 0094 C7FEE67A 		vminnm.f32	s15, s15, s13
 212:axis.cpp      **** }
 391              		.loc 8 212 15 view .LVU98
 392 0098 77EEA67A 		vadd.f32	s15, s15, s13
 393              	.LBE108:
 394              	.LBE113:
 395              	.LBB114:
 396              	.LBB102:
 211:axis.cpp      ****     return (x - in_min) * (out_max - out_min) / (in_max - in_min) + out_min;
 397              		.loc 8 211 14 view .LVU99
 398 009c 87FE067A 		vmaxnm.f32	s14, s14, s12
 399 00a0 87FE667A 		vminnm.f32	s14, s14, s13
 400              	.LVL34:
 211:axis.cpp      ****     return (x - in_min) * (out_max - out_min) / (in_max - in_min) + out_min;
 401              		.loc 8 211 14 view .LVU100
 402              	.LBE102:
 403              	.LBE114:
 239:axis.cpp      ****             
 240:axis.cpp      ****             trem_depth = Map(data.pitch, -45.0f, 45.0f, 0.0f, 1.0f);
 404              		.loc 8 240 13 is_stmt 1 view .LVU101
 405              	.LBB115:
ARM GAS  /var/folders/6w/sx7v0gy94nj4l80r62zsklwh0000gn/T//ccA4AFzN.s 			page 20


 406              	.LBI99:
 210:axis.cpp      ****     x = fminf(fmaxf(x, in_min), in_max);
 407              		.loc 8 210 7 view .LVU102
 408              	.LBB103:
 211:axis.cpp      ****     return (x - in_min) * (out_max - out_min) / (in_max - in_min) + out_min;
 409              		.loc 8 211 5 view .LVU103
 212:axis.cpp      **** }
 410              		.loc 8 212 5 view .LVU104
 212:axis.cpp      **** }
 411              		.loc 8 212 15 is_stmt 0 view .LVU105
 412 00a4 37EE267A 		vadd.f32	s14, s14, s13
 413              	.LVL35:
 212:axis.cpp      **** }
 414              		.loc 8 212 47 view .LVU106
 415 00a8 9FED116A 		vldr.32	s12, .L20+32
 416              	.LVL36:
 212:axis.cpp      **** }
 417              		.loc 8 212 47 view .LVU107
 418              	.LBE103:
 419              	.LBE115:
 420              	.LBB116:
 421              	.LBB109:
 212:axis.cpp      **** }
 422              		.loc 8 212 25 view .LVU108
 423 00ac 67EE857A 		vmul.f32	s15, s15, s10
 424              	.LBE109:
 425              	.LBE116:
 426              	.LBB117:
 427              	.LBB104:
 212:axis.cpp      **** }
 428              		.loc 8 212 69 view .LVU109
 429 00b0 9FED105A 		vldr.32	s10, .L20+36
 212:axis.cpp      **** }
 430              		.loc 8 212 47 view .LVU110
 431 00b4 C7EE066A 		vdiv.f32	s13, s14, s12
 432              	.LVL37:
 212:axis.cpp      **** }
 433              		.loc 8 212 47 view .LVU111
 434              	.LBE104:
 435              	.LBE117:
 436              	.LBB118:
 437              	.LBB110:
 438 00b8 87EE867A 		vdiv.f32	s14, s15, s12
 439              	.LBE110:
 440              	.LBE118:
 441              	.LBB119:
 442              	.LBB105:
 212:axis.cpp      **** }
 443              		.loc 8 212 69 view .LVU112
 444 00bc 76EE856A 		vadd.f32	s13, s13, s10
 445              	.LVL38:
 212:axis.cpp      **** }
 446              		.loc 8 212 69 view .LVU113
 447              	.LBE105:
 448              	.LBE119:
 449              		.loc 8 240 24 view .LVU114
 450 00c0 C6ED006A 		vstr.32	s13, [r6]
ARM GAS  /var/folders/6w/sx7v0gy94nj4l80r62zsklwh0000gn/T//ccA4AFzN.s 			page 21


 241:axis.cpp      ****             trem_freq = Map(data.roll, -45.0f, 45.0f, 2.0f, 12.0f);
 451              		.loc 8 241 13 is_stmt 1 view .LVU115
 452              	.LVL39:
 453              	.LBB120:
 454              	.LBI106:
 210:axis.cpp      ****     x = fminf(fmaxf(x, in_min), in_max);
 455              		.loc 8 210 7 view .LVU116
 456              	.LBB111:
 211:axis.cpp      ****     return (x - in_min) * (out_max - out_min) / (in_max - in_min) + out_min;
 457              		.loc 8 211 5 view .LVU117
 212:axis.cpp      **** }
 458              		.loc 8 212 5 view .LVU118
 212:axis.cpp      **** }
 459              		.loc 8 212 69 is_stmt 0 view .LVU119
 460 00c4 77EE257A 		vadd.f32	s15, s14, s11
 461              	.LBE111:
 462              	.LBE120:
 463              		.loc 8 241 23 view .LVU120
 464 00c8 C5ED007A 		vstr.32	s15, [r5]
 465 00cc BAE7     		b	.L16
 466              	.L21:
 467 00ce 00BF     		.align	2
 468              	.L20:
 469 00d0 00000000 		.word	.LANCHOR3
 470 00d4 00000000 		.word	.LANCHOR0
 471 00d8 00000000 		.word	.LANCHOR1
 472 00dc 00000000 		.word	_Z13AudioCallbackPKPKfPPfj
 473 00e0 00000000 		.word	.LANCHOR2
 474 00e4 00000000 		.word	.LANCHOR4
 475 00e8 00003442 		.word	1110704128
 476 00ec 000034C2 		.word	-1036779520
 477 00f0 0000B442 		.word	1119092736
 478 00f4 00000000 		.word	0
 479              		.cfi_endproc
 480              	.LFE4684:
 482              		.section	.text.startup._GLOBAL__sub_I_hw,"ax",%progbits
 483              		.align	1
 484              		.p2align 2,,3
 485              		.syntax unified
 486              		.thumb
 487              		.thumb_func
 489              	_GLOBAL__sub_I_hw:
 490              	.LFB5247:
 242:axis.cpp      ****         }
 243:axis.cpp      ****     }
 244:axis.cpp      **** }...
 491              		.loc 8 244 1 is_stmt 1 view -0
 492              		.cfi_startproc
 493              		@ args = 0, pretend = 0, frame = 0
 494              		@ frame_needed = 0, uses_anonymous_args = 0
 495              	.LBB146:
 496              	.LBI146:
 497              		.loc 8 244 1 view .LVU122
 498              	.LVL40:
 499              	.LBB147:
 500              	.LBB148:
 501              	.LBI148:
ARM GAS  /var/folders/6w/sx7v0gy94nj4l80r62zsklwh0000gn/T//ccA4AFzN.s 			page 22


  21:/Users/paulwang/Desktop/DaisyExamples/libDaisy/src/daisy_seed.h ****     ~DaisySeed() {}
 502              		.loc 1 21 5 view .LVU123
 503              	.LBB149:
 504              	.LBB150:
 505              	.LBI150:
 506              		.file 9 "/Users/paulwang/Desktop/DaisyExamples/libDaisy/src/per/qspi.h"
   1:/Users/paulwang/Desktop/DaisyExamples/libDaisy/src/per/qspi.h **** #ifndef DSY_QSPI
   2:/Users/paulwang/Desktop/DaisyExamples/libDaisy/src/per/qspi.h **** #define DSY_QSPI /**< Macro */
   3:/Users/paulwang/Desktop/DaisyExamples/libDaisy/src/per/qspi.h **** 
   4:/Users/paulwang/Desktop/DaisyExamples/libDaisy/src/per/qspi.h **** #ifndef UNIT_TEST // for unit tests, a dummy implementation
   5:/Users/paulwang/Desktop/DaisyExamples/libDaisy/src/per/qspi.h **** 
   6:/Users/paulwang/Desktop/DaisyExamples/libDaisy/src/per/qspi.h **** #include <cstdint>
   7:/Users/paulwang/Desktop/DaisyExamples/libDaisy/src/per/qspi.h **** #include "daisy_core.h" // Added for dsy_gpio_pin typedef
   8:/Users/paulwang/Desktop/DaisyExamples/libDaisy/src/per/qspi.h **** 
   9:/Users/paulwang/Desktop/DaisyExamples/libDaisy/src/per/qspi.h **** #define DSY_QSPI_TEXT       \
  10:/Users/paulwang/Desktop/DaisyExamples/libDaisy/src/per/qspi.h ****     __attribute__((section( \
  11:/Users/paulwang/Desktop/DaisyExamples/libDaisy/src/per/qspi.h ****         ".qspiflash_text"))) /**< used for reading memory in memory_mapped mode. */
  12:/Users/paulwang/Desktop/DaisyExamples/libDaisy/src/per/qspi.h **** #define DSY_QSPI_DATA       \
  13:/Users/paulwang/Desktop/DaisyExamples/libDaisy/src/per/qspi.h ****     __attribute__((section( \
  14:/Users/paulwang/Desktop/DaisyExamples/libDaisy/src/per/qspi.h ****         ".qspiflash_data"))) /**< used for reading memory in memory_mapped mode. */
  15:/Users/paulwang/Desktop/DaisyExamples/libDaisy/src/per/qspi.h **** #define DSY_QSPI_BSS        \
  16:/Users/paulwang/Desktop/DaisyExamples/libDaisy/src/per/qspi.h ****     __attribute__((section( \
  17:/Users/paulwang/Desktop/DaisyExamples/libDaisy/src/per/qspi.h ****         ".qspiflash_bss"))) /**< used for reading memory in memory_mapped mode. */
  18:/Users/paulwang/Desktop/DaisyExamples/libDaisy/src/per/qspi.h **** 
  19:/Users/paulwang/Desktop/DaisyExamples/libDaisy/src/per/qspi.h **** namespace daisy
  20:/Users/paulwang/Desktop/DaisyExamples/libDaisy/src/per/qspi.h **** {
  21:/Users/paulwang/Desktop/DaisyExamples/libDaisy/src/per/qspi.h **** /** @addtogroup serial
  22:/Users/paulwang/Desktop/DaisyExamples/libDaisy/src/per/qspi.h **** @{
  23:/Users/paulwang/Desktop/DaisyExamples/libDaisy/src/per/qspi.h **** */
  24:/Users/paulwang/Desktop/DaisyExamples/libDaisy/src/per/qspi.h **** 
  25:/Users/paulwang/Desktop/DaisyExamples/libDaisy/src/per/qspi.h **** /** 
  26:/Users/paulwang/Desktop/DaisyExamples/libDaisy/src/per/qspi.h ****  Driver for QSPI peripheral to interface with external flash memory. \n 
  27:/Users/paulwang/Desktop/DaisyExamples/libDaisy/src/per/qspi.h ****     Currently supported QSPI Devices: \n 
  28:/Users/paulwang/Desktop/DaisyExamples/libDaisy/src/per/qspi.h ****     * IS25LP080D
  29:/Users/paulwang/Desktop/DaisyExamples/libDaisy/src/per/qspi.h **** */
  30:/Users/paulwang/Desktop/DaisyExamples/libDaisy/src/per/qspi.h **** class QSPIHandle
  31:/Users/paulwang/Desktop/DaisyExamples/libDaisy/src/per/qspi.h **** {
  32:/Users/paulwang/Desktop/DaisyExamples/libDaisy/src/per/qspi.h ****   public:
  33:/Users/paulwang/Desktop/DaisyExamples/libDaisy/src/per/qspi.h ****     enum Result
  34:/Users/paulwang/Desktop/DaisyExamples/libDaisy/src/per/qspi.h ****     {
  35:/Users/paulwang/Desktop/DaisyExamples/libDaisy/src/per/qspi.h ****         OK = 0,
  36:/Users/paulwang/Desktop/DaisyExamples/libDaisy/src/per/qspi.h ****         ERR
  37:/Users/paulwang/Desktop/DaisyExamples/libDaisy/src/per/qspi.h ****     };
  38:/Users/paulwang/Desktop/DaisyExamples/libDaisy/src/per/qspi.h **** 
  39:/Users/paulwang/Desktop/DaisyExamples/libDaisy/src/per/qspi.h ****     /** Indicates the current status of the module. 
  40:/Users/paulwang/Desktop/DaisyExamples/libDaisy/src/per/qspi.h ****          *  Warnings are indicated by a leading W.
  41:/Users/paulwang/Desktop/DaisyExamples/libDaisy/src/per/qspi.h ****          *  Errors are indicated by a leading E and cause an immediate exit.
  42:/Users/paulwang/Desktop/DaisyExamples/libDaisy/src/per/qspi.h ****          * 
  43:/Users/paulwang/Desktop/DaisyExamples/libDaisy/src/per/qspi.h ****          *  \param GOOD - No errors have been reported.
  44:/Users/paulwang/Desktop/DaisyExamples/libDaisy/src/per/qspi.h ****          *  \param E_HAL_ERROR - HAL code did not return HAL_OK.
  45:/Users/paulwang/Desktop/DaisyExamples/libDaisy/src/per/qspi.h ****          *  \param E_SWITCHING_MODES - An error was encountered while switching QSPI peripheral mod
  46:/Users/paulwang/Desktop/DaisyExamples/libDaisy/src/per/qspi.h ****          *  \param E_INVALID_MODE - QSPI should not be written to while the program is executing fr
  47:/Users/paulwang/Desktop/DaisyExamples/libDaisy/src/per/qspi.h ****          */
  48:/Users/paulwang/Desktop/DaisyExamples/libDaisy/src/per/qspi.h ****     enum Status
  49:/Users/paulwang/Desktop/DaisyExamples/libDaisy/src/per/qspi.h ****     {
  50:/Users/paulwang/Desktop/DaisyExamples/libDaisy/src/per/qspi.h ****         GOOD = 0,
  51:/Users/paulwang/Desktop/DaisyExamples/libDaisy/src/per/qspi.h ****         E_HAL_ERROR,
ARM GAS  /var/folders/6w/sx7v0gy94nj4l80r62zsklwh0000gn/T//ccA4AFzN.s 			page 23


  52:/Users/paulwang/Desktop/DaisyExamples/libDaisy/src/per/qspi.h ****         E_SWITCHING_MODES,
  53:/Users/paulwang/Desktop/DaisyExamples/libDaisy/src/per/qspi.h ****         E_INVALID_MODE,
  54:/Users/paulwang/Desktop/DaisyExamples/libDaisy/src/per/qspi.h ****     };
  55:/Users/paulwang/Desktop/DaisyExamples/libDaisy/src/per/qspi.h **** 
  56:/Users/paulwang/Desktop/DaisyExamples/libDaisy/src/per/qspi.h ****     /** Configuration structure for interfacing with QSPI Driver */
  57:/Users/paulwang/Desktop/DaisyExamples/libDaisy/src/per/qspi.h ****     struct Config
  58:/Users/paulwang/Desktop/DaisyExamples/libDaisy/src/per/qspi.h ****     {
  59:/Users/paulwang/Desktop/DaisyExamples/libDaisy/src/per/qspi.h ****         /** Flash Devices supported. (Both of these are more-or-less the same, just different sizes
  60:/Users/paulwang/Desktop/DaisyExamples/libDaisy/src/per/qspi.h ****         enum Device
  61:/Users/paulwang/Desktop/DaisyExamples/libDaisy/src/per/qspi.h ****         {
  62:/Users/paulwang/Desktop/DaisyExamples/libDaisy/src/per/qspi.h ****             IS25LP080D,  /**< & */
  63:/Users/paulwang/Desktop/DaisyExamples/libDaisy/src/per/qspi.h ****             IS25LP064A,  /**< & */
  64:/Users/paulwang/Desktop/DaisyExamples/libDaisy/src/per/qspi.h ****             DEVICE_LAST, /**< & */
  65:/Users/paulwang/Desktop/DaisyExamples/libDaisy/src/per/qspi.h ****         };
  66:/Users/paulwang/Desktop/DaisyExamples/libDaisy/src/per/qspi.h **** 
  67:/Users/paulwang/Desktop/DaisyExamples/libDaisy/src/per/qspi.h ****         /** 
  68:/Users/paulwang/Desktop/DaisyExamples/libDaisy/src/per/qspi.h ****         Modes of operation.
  69:/Users/paulwang/Desktop/DaisyExamples/libDaisy/src/per/qspi.h ****         Memory Mapped mode: QSPI configured so that the QSPI can be
  70:/Users/paulwang/Desktop/DaisyExamples/libDaisy/src/per/qspi.h ****         read from starting address 0x90000000. Writing is not
  71:/Users/paulwang/Desktop/DaisyExamples/libDaisy/src/per/qspi.h ****         possible in this mode. \n 
  72:/Users/paulwang/Desktop/DaisyExamples/libDaisy/src/per/qspi.h ****         Indirect Polling mode: Device driver enabled. 
  73:/Users/paulwang/Desktop/DaisyExamples/libDaisy/src/per/qspi.h ****         */
  74:/Users/paulwang/Desktop/DaisyExamples/libDaisy/src/per/qspi.h ****         enum Mode
  75:/Users/paulwang/Desktop/DaisyExamples/libDaisy/src/per/qspi.h ****         {
  76:/Users/paulwang/Desktop/DaisyExamples/libDaisy/src/per/qspi.h ****             MEMORY_MAPPED,    /**< & */
  77:/Users/paulwang/Desktop/DaisyExamples/libDaisy/src/per/qspi.h ****             INDIRECT_POLLING, /**< & */
  78:/Users/paulwang/Desktop/DaisyExamples/libDaisy/src/per/qspi.h ****             MODE_LAST,
  79:/Users/paulwang/Desktop/DaisyExamples/libDaisy/src/per/qspi.h ****         };
  80:/Users/paulwang/Desktop/DaisyExamples/libDaisy/src/per/qspi.h **** 
  81:/Users/paulwang/Desktop/DaisyExamples/libDaisy/src/per/qspi.h ****         //SCK,  CE# (active low)
  82:/Users/paulwang/Desktop/DaisyExamples/libDaisy/src/per/qspi.h ****         struct
  83:/Users/paulwang/Desktop/DaisyExamples/libDaisy/src/per/qspi.h ****         {
  84:/Users/paulwang/Desktop/DaisyExamples/libDaisy/src/per/qspi.h ****             dsy_gpio_pin io0; /**< & */
  85:/Users/paulwang/Desktop/DaisyExamples/libDaisy/src/per/qspi.h ****             dsy_gpio_pin io1; /**< & */
  86:/Users/paulwang/Desktop/DaisyExamples/libDaisy/src/per/qspi.h ****             dsy_gpio_pin io2; /**< & */
  87:/Users/paulwang/Desktop/DaisyExamples/libDaisy/src/per/qspi.h ****             dsy_gpio_pin io3; /**< & */
  88:/Users/paulwang/Desktop/DaisyExamples/libDaisy/src/per/qspi.h ****             dsy_gpio_pin clk; /**< & */
  89:/Users/paulwang/Desktop/DaisyExamples/libDaisy/src/per/qspi.h ****             dsy_gpio_pin ncs; /**< & */
  90:/Users/paulwang/Desktop/DaisyExamples/libDaisy/src/per/qspi.h ****         } pin_config;
  91:/Users/paulwang/Desktop/DaisyExamples/libDaisy/src/per/qspi.h **** 
  92:/Users/paulwang/Desktop/DaisyExamples/libDaisy/src/per/qspi.h ****         Device device;
  93:/Users/paulwang/Desktop/DaisyExamples/libDaisy/src/per/qspi.h ****         Mode   mode;
  94:/Users/paulwang/Desktop/DaisyExamples/libDaisy/src/per/qspi.h ****     };
  95:/Users/paulwang/Desktop/DaisyExamples/libDaisy/src/per/qspi.h **** 
  96:/Users/paulwang/Desktop/DaisyExamples/libDaisy/src/per/qspi.h ****     /** 
  97:/Users/paulwang/Desktop/DaisyExamples/libDaisy/src/per/qspi.h ****         Initializes QSPI peripheral, and Resets, and prepares memory for access.
  98:/Users/paulwang/Desktop/DaisyExamples/libDaisy/src/per/qspi.h ****         \param config should be populated with the mode, device and pin_config before calling this 
  99:/Users/paulwang/Desktop/DaisyExamples/libDaisy/src/per/qspi.h ****         \return Result::OK or Result::ERR
 100:/Users/paulwang/Desktop/DaisyExamples/libDaisy/src/per/qspi.h ****         */
 101:/Users/paulwang/Desktop/DaisyExamples/libDaisy/src/per/qspi.h ****     Result Init(const Config& config);
 102:/Users/paulwang/Desktop/DaisyExamples/libDaisy/src/per/qspi.h **** 
 103:/Users/paulwang/Desktop/DaisyExamples/libDaisy/src/per/qspi.h ****     /** Returns the current config. */
 104:/Users/paulwang/Desktop/DaisyExamples/libDaisy/src/per/qspi.h ****     const Config& GetConfig() const;
 105:/Users/paulwang/Desktop/DaisyExamples/libDaisy/src/per/qspi.h **** 
 106:/Users/paulwang/Desktop/DaisyExamples/libDaisy/src/per/qspi.h ****     // Couldn't this just be called before anything else in init? That
 107:/Users/paulwang/Desktop/DaisyExamples/libDaisy/src/per/qspi.h ****     // would make manually calling it unnecessary.
 108:/Users/paulwang/Desktop/DaisyExamples/libDaisy/src/per/qspi.h ****     /** 
ARM GAS  /var/folders/6w/sx7v0gy94nj4l80r62zsklwh0000gn/T//ccA4AFzN.s 			page 24


 109:/Users/paulwang/Desktop/DaisyExamples/libDaisy/src/per/qspi.h ****         Deinitializes the peripheral
 110:/Users/paulwang/Desktop/DaisyExamples/libDaisy/src/per/qspi.h ****         This should be called before reinitializing QSPI in a different mode.
 111:/Users/paulwang/Desktop/DaisyExamples/libDaisy/src/per/qspi.h ****         \return Result::OK or Result::ERR
 112:/Users/paulwang/Desktop/DaisyExamples/libDaisy/src/per/qspi.h ****         */
 113:/Users/paulwang/Desktop/DaisyExamples/libDaisy/src/per/qspi.h ****     Result DeInit();
 114:/Users/paulwang/Desktop/DaisyExamples/libDaisy/src/per/qspi.h **** 
 115:/Users/paulwang/Desktop/DaisyExamples/libDaisy/src/per/qspi.h ****     /** 
 116:/Users/paulwang/Desktop/DaisyExamples/libDaisy/src/per/qspi.h ****         Writes a single page to to the specified address on the QSPI chip.
 117:/Users/paulwang/Desktop/DaisyExamples/libDaisy/src/per/qspi.h ****         For IS25LP*, page size is 256 bytes.
 118:/Users/paulwang/Desktop/DaisyExamples/libDaisy/src/per/qspi.h ****         \param address Address to write to
 119:/Users/paulwang/Desktop/DaisyExamples/libDaisy/src/per/qspi.h ****         \param size Buffer size
 120:/Users/paulwang/Desktop/DaisyExamples/libDaisy/src/per/qspi.h ****         \param buffer Buffer to write
 121:/Users/paulwang/Desktop/DaisyExamples/libDaisy/src/per/qspi.h ****         \return Result::OK or Result::ERR
 122:/Users/paulwang/Desktop/DaisyExamples/libDaisy/src/per/qspi.h ****         */
 123:/Users/paulwang/Desktop/DaisyExamples/libDaisy/src/per/qspi.h ****     Result WritePage(uint32_t address, uint32_t size, uint8_t* buffer);
 124:/Users/paulwang/Desktop/DaisyExamples/libDaisy/src/per/qspi.h **** 
 125:/Users/paulwang/Desktop/DaisyExamples/libDaisy/src/per/qspi.h ****     /** 
 126:/Users/paulwang/Desktop/DaisyExamples/libDaisy/src/per/qspi.h ****         Writes data in buffer to to the QSPI. Starting at address to address+size 
 127:/Users/paulwang/Desktop/DaisyExamples/libDaisy/src/per/qspi.h ****         \param address Address to write to
 128:/Users/paulwang/Desktop/DaisyExamples/libDaisy/src/per/qspi.h ****         \param size Buffer size
 129:/Users/paulwang/Desktop/DaisyExamples/libDaisy/src/per/qspi.h ****         \param buffer Buffer to write
 130:/Users/paulwang/Desktop/DaisyExamples/libDaisy/src/per/qspi.h ****         \return Result::OK or Result::ERR
 131:/Users/paulwang/Desktop/DaisyExamples/libDaisy/src/per/qspi.h ****         */
 132:/Users/paulwang/Desktop/DaisyExamples/libDaisy/src/per/qspi.h ****     Result Write(uint32_t address, uint32_t size, uint8_t* buffer);
 133:/Users/paulwang/Desktop/DaisyExamples/libDaisy/src/per/qspi.h **** 
 134:/Users/paulwang/Desktop/DaisyExamples/libDaisy/src/per/qspi.h ****     /** 
 135:/Users/paulwang/Desktop/DaisyExamples/libDaisy/src/per/qspi.h ****         Erases the area specified on the chip.
 136:/Users/paulwang/Desktop/DaisyExamples/libDaisy/src/per/qspi.h ****         Erasures will happen by 4K, 32K or 64K increments.
 137:/Users/paulwang/Desktop/DaisyExamples/libDaisy/src/per/qspi.h ****         Smallest erase possible is 4kB at a time. (on IS25LP*)
 138:/Users/paulwang/Desktop/DaisyExamples/libDaisy/src/per/qspi.h ****         \param start_addr Address to begin erasing from
 139:/Users/paulwang/Desktop/DaisyExamples/libDaisy/src/per/qspi.h ****         \param end_addr  Address to stop erasing at
 140:/Users/paulwang/Desktop/DaisyExamples/libDaisy/src/per/qspi.h ****         \return Result::OK or Result::ERR
 141:/Users/paulwang/Desktop/DaisyExamples/libDaisy/src/per/qspi.h ****         */
 142:/Users/paulwang/Desktop/DaisyExamples/libDaisy/src/per/qspi.h ****     Result Erase(uint32_t start_addr, uint32_t end_addr);
 143:/Users/paulwang/Desktop/DaisyExamples/libDaisy/src/per/qspi.h **** 
 144:/Users/paulwang/Desktop/DaisyExamples/libDaisy/src/per/qspi.h ****     /**  
 145:/Users/paulwang/Desktop/DaisyExamples/libDaisy/src/per/qspi.h ****          Erases a single sector of the chip.  
 146:/Users/paulwang/Desktop/DaisyExamples/libDaisy/src/per/qspi.h ****         TODO: Document the size of this function. 
 147:/Users/paulwang/Desktop/DaisyExamples/libDaisy/src/per/qspi.h ****         \param address Address of sector to erase
 148:/Users/paulwang/Desktop/DaisyExamples/libDaisy/src/per/qspi.h ****         \return Result::OK or Result::ERR
 149:/Users/paulwang/Desktop/DaisyExamples/libDaisy/src/per/qspi.h ****         */
 150:/Users/paulwang/Desktop/DaisyExamples/libDaisy/src/per/qspi.h ****     Result EraseSector(uint32_t address);
 151:/Users/paulwang/Desktop/DaisyExamples/libDaisy/src/per/qspi.h **** 
 152:/Users/paulwang/Desktop/DaisyExamples/libDaisy/src/per/qspi.h ****     /** Returns the current class status. Useful for debugging.
 153:/Users/paulwang/Desktop/DaisyExamples/libDaisy/src/per/qspi.h ****      *  \returns Status
 154:/Users/paulwang/Desktop/DaisyExamples/libDaisy/src/per/qspi.h ****      */
 155:/Users/paulwang/Desktop/DaisyExamples/libDaisy/src/per/qspi.h ****     Status GetStatus();
 156:/Users/paulwang/Desktop/DaisyExamples/libDaisy/src/per/qspi.h **** 
 157:/Users/paulwang/Desktop/DaisyExamples/libDaisy/src/per/qspi.h ****     /** Returns a pointer to the actual memory used 
 158:/Users/paulwang/Desktop/DaisyExamples/libDaisy/src/per/qspi.h ****      *  The memory at this address is read-only
 159:/Users/paulwang/Desktop/DaisyExamples/libDaisy/src/per/qspi.h ****      *  to write to it use the Write function.
 160:/Users/paulwang/Desktop/DaisyExamples/libDaisy/src/per/qspi.h ****      * 
 161:/Users/paulwang/Desktop/DaisyExamples/libDaisy/src/per/qspi.h ****      *  \param offset returns the pointer starting this 
 162:/Users/paulwang/Desktop/DaisyExamples/libDaisy/src/per/qspi.h ****      *                many bytes into the memory
 163:/Users/paulwang/Desktop/DaisyExamples/libDaisy/src/per/qspi.h ****     */
 164:/Users/paulwang/Desktop/DaisyExamples/libDaisy/src/per/qspi.h ****     void* GetData(uint32_t offset = 0);
 165:/Users/paulwang/Desktop/DaisyExamples/libDaisy/src/per/qspi.h **** 
ARM GAS  /var/folders/6w/sx7v0gy94nj4l80r62zsklwh0000gn/T//ccA4AFzN.s 			page 25


 166:/Users/paulwang/Desktop/DaisyExamples/libDaisy/src/per/qspi.h ****     QSPIHandle() : pimpl_(nullptr) {}
 507              		.loc 9 166 5 view .LVU124
 508              	.LBE150:
 509              	.LBE149:
 510              	.LBE148:
 511              	.LBE147:
 512              	.LBE146:
 513              		.loc 8 244 1 is_stmt 0 view .LVU125
 514 0000 08B5     		push	{r3, lr}
 515              		.cfi_def_cfa_offset 8
 516              		.cfi_offset 3, -8
 517              		.cfi_offset 14, -4
 518              	.LBB178:
 519              	.LBB176:
 520              	.LBB171:
 521              	.LBB169:
 522              	.LBB155:
 523              	.LBB151:
 524              	.LBB152:
 525              		.loc 9 166 34 view .LVU126
 526 0002 0848     		ldr	r0, .L24
 527 0004 0023     		movs	r3, #0
 528              	.LBE152:
 529              	.LBE151:
 530              	.LBE155:
 531              	.LBE169:
 532              	.LBE171:
 188:axis.cpp      **** DaisySeed hw;
 533              		.loc 8 188 11 view .LVU127
 534 0006 084A     		ldr	r2, .L24+4
 535 0008 0849     		ldr	r1, .L24+8
 536              	.LBB172:
 537              	.LBB170:
 538              	.LBB156:
 539              	.LBB154:
 540              	.LBB153:
 541              		.loc 9 166 34 view .LVU128
 542 000a 0360     		str	r3, [r0]
 543              	.LVL41:
 544              		.loc 9 166 34 view .LVU129
 545              	.LBE153:
 546              	.LBE154:
 547              	.LBE156:
 548              	.LBB157:
 549              	.LBI157:
  95:/Users/paulwang/Desktop/DaisyExamples/libDaisy/src/hid/audio.h ****     ~AudioHandle() {}
 550              		.loc 5 95 5 is_stmt 1 view .LVU130
 551              	.LBB158:
 552              	.LBB159:
  95:/Users/paulwang/Desktop/DaisyExamples/libDaisy/src/hid/audio.h ****     ~AudioHandle() {}
 553              		.loc 5 95 35 is_stmt 0 view .LVU131
 554 000c 4361     		str	r3, [r0, #20]
 555              	.LVL42:
  95:/Users/paulwang/Desktop/DaisyExamples/libDaisy/src/hid/audio.h ****     ~AudioHandle() {}
 556              		.loc 5 95 35 view .LVU132
 557              	.LBE159:
 558              	.LBE158:
ARM GAS  /var/folders/6w/sx7v0gy94nj4l80r62zsklwh0000gn/T//ccA4AFzN.s 			page 26


 559              	.LBE157:
 560              	.LBB160:
 561              	.LBI160:
 109:/Users/paulwang/Desktop/DaisyExamples/libDaisy/src/per/adc.h ****     ~AdcHandle() {}
 562              		.loc 4 109 5 is_stmt 1 view .LVU133
 109:/Users/paulwang/Desktop/DaisyExamples/libDaisy/src/per/adc.h ****     ~AdcHandle() {}
 563              		.loc 4 109 5 is_stmt 0 view .LVU134
 564              	.LBE160:
 565              	.LBB161:
 566              	.LBI161:
 567              		.file 10 "/Users/paulwang/Desktop/DaisyExamples/libDaisy/src/per/dac.h"
   1:/Users/paulwang/Desktop/DaisyExamples/libDaisy/src/per/dac.h **** #pragma once
   2:/Users/paulwang/Desktop/DaisyExamples/libDaisy/src/per/dac.h **** #ifndef DSY_DAC_H
   3:/Users/paulwang/Desktop/DaisyExamples/libDaisy/src/per/dac.h **** #define DSY_DAC_H
   4:/Users/paulwang/Desktop/DaisyExamples/libDaisy/src/per/dac.h **** 
   5:/Users/paulwang/Desktop/DaisyExamples/libDaisy/src/per/dac.h **** #include "daisy_core.h"
   6:/Users/paulwang/Desktop/DaisyExamples/libDaisy/src/per/dac.h **** 
   7:/Users/paulwang/Desktop/DaisyExamples/libDaisy/src/per/dac.h **** namespace daisy
   8:/Users/paulwang/Desktop/DaisyExamples/libDaisy/src/per/dac.h **** {
   9:/Users/paulwang/Desktop/DaisyExamples/libDaisy/src/per/dac.h **** /** @brief DAC handle for Built-in DAC Peripheral 
  10:/Users/paulwang/Desktop/DaisyExamples/libDaisy/src/per/dac.h ****  *  @ingroup per_analog
  11:/Users/paulwang/Desktop/DaisyExamples/libDaisy/src/per/dac.h ****  ** 
  12:/Users/paulwang/Desktop/DaisyExamples/libDaisy/src/per/dac.h ****  ** For now only Normal Mode is supported,
  13:/Users/paulwang/Desktop/DaisyExamples/libDaisy/src/per/dac.h ****  ** Sample and hold mode provides reduced power consumption, but requires a bit more setup.
  14:/Users/paulwang/Desktop/DaisyExamples/libDaisy/src/per/dac.h ****  **
  15:/Users/paulwang/Desktop/DaisyExamples/libDaisy/src/per/dac.h ****  ** For now connecting the DAC through other internal peripherals is also not supported.
  16:/Users/paulwang/Desktop/DaisyExamples/libDaisy/src/per/dac.h ****  **
  17:/Users/paulwang/Desktop/DaisyExamples/libDaisy/src/per/dac.h ****  ** Since the DAC channels have dedicated pins we don't need to pass in a pin config like with
  18:/Users/paulwang/Desktop/DaisyExamples/libDaisy/src/per/dac.h ****  ** other modules. However, it is still important to not try to use the DAC pins for anything else.
  19:/Users/paulwang/Desktop/DaisyExamples/libDaisy/src/per/dac.h ****  ** DAC Channel 1 is on PA4, and DAC Channel 2 is on PA5
  20:/Users/paulwang/Desktop/DaisyExamples/libDaisy/src/per/dac.h ****  ***/
  21:/Users/paulwang/Desktop/DaisyExamples/libDaisy/src/per/dac.h **** class DacHandle
  22:/Users/paulwang/Desktop/DaisyExamples/libDaisy/src/per/dac.h **** {
  23:/Users/paulwang/Desktop/DaisyExamples/libDaisy/src/per/dac.h ****   public:
  24:/Users/paulwang/Desktop/DaisyExamples/libDaisy/src/per/dac.h ****     /** Return Values for the DacHandle class */
  25:/Users/paulwang/Desktop/DaisyExamples/libDaisy/src/per/dac.h ****     enum class Result
  26:/Users/paulwang/Desktop/DaisyExamples/libDaisy/src/per/dac.h ****     {
  27:/Users/paulwang/Desktop/DaisyExamples/libDaisy/src/per/dac.h ****         OK,
  28:/Users/paulwang/Desktop/DaisyExamples/libDaisy/src/per/dac.h ****         ERR,
  29:/Users/paulwang/Desktop/DaisyExamples/libDaisy/src/per/dac.h ****     };
  30:/Users/paulwang/Desktop/DaisyExamples/libDaisy/src/per/dac.h **** 
  31:/Users/paulwang/Desktop/DaisyExamples/libDaisy/src/per/dac.h ****     /** Selects which channel(s) will be configured for use. */
  32:/Users/paulwang/Desktop/DaisyExamples/libDaisy/src/per/dac.h ****     enum class Channel
  33:/Users/paulwang/Desktop/DaisyExamples/libDaisy/src/per/dac.h ****     {
  34:/Users/paulwang/Desktop/DaisyExamples/libDaisy/src/per/dac.h ****         ONE,
  35:/Users/paulwang/Desktop/DaisyExamples/libDaisy/src/per/dac.h ****         TWO,
  36:/Users/paulwang/Desktop/DaisyExamples/libDaisy/src/per/dac.h ****         BOTH,
  37:/Users/paulwang/Desktop/DaisyExamples/libDaisy/src/per/dac.h ****     };
  38:/Users/paulwang/Desktop/DaisyExamples/libDaisy/src/per/dac.h **** 
  39:/Users/paulwang/Desktop/DaisyExamples/libDaisy/src/per/dac.h ****     /** Sets the Mode for the DAC channels.
  40:/Users/paulwang/Desktop/DaisyExamples/libDaisy/src/per/dac.h ****      **
  41:/Users/paulwang/Desktop/DaisyExamples/libDaisy/src/per/dac.h ****      ** Polling mode uses the blocking mode to transmit a single value at a time.
  42:/Users/paulwang/Desktop/DaisyExamples/libDaisy/src/per/dac.h ****      **
  43:/Users/paulwang/Desktop/DaisyExamples/libDaisy/src/per/dac.h ****      ** DMA mode uses a buffer, and periodically transmits it triggering a 
  44:/Users/paulwang/Desktop/DaisyExamples/libDaisy/src/per/dac.h ****      ** callback to fill the buffer when it is ready for more samples.
  45:/Users/paulwang/Desktop/DaisyExamples/libDaisy/src/per/dac.h ****      ***/
  46:/Users/paulwang/Desktop/DaisyExamples/libDaisy/src/per/dac.h ****     enum class Mode
ARM GAS  /var/folders/6w/sx7v0gy94nj4l80r62zsklwh0000gn/T//ccA4AFzN.s 			page 27


  47:/Users/paulwang/Desktop/DaisyExamples/libDaisy/src/per/dac.h ****     {
  48:/Users/paulwang/Desktop/DaisyExamples/libDaisy/src/per/dac.h ****         POLLING,
  49:/Users/paulwang/Desktop/DaisyExamples/libDaisy/src/per/dac.h ****         DMA,
  50:/Users/paulwang/Desktop/DaisyExamples/libDaisy/src/per/dac.h ****     };
  51:/Users/paulwang/Desktop/DaisyExamples/libDaisy/src/per/dac.h **** 
  52:/Users/paulwang/Desktop/DaisyExamples/libDaisy/src/per/dac.h ****     /** Sets the number of bits per sample transmitted out of the DAC.
  53:/Users/paulwang/Desktop/DaisyExamples/libDaisy/src/per/dac.h ****      ** The output range will be: 0V - VDDA
  54:/Users/paulwang/Desktop/DaisyExamples/libDaisy/src/per/dac.h ****      ** The resolution will be roughly: bitdepth / (VDDA - 0V) 
  55:/Users/paulwang/Desktop/DaisyExamples/libDaisy/src/per/dac.h ****      ***/
  56:/Users/paulwang/Desktop/DaisyExamples/libDaisy/src/per/dac.h ****     enum class BitDepth
  57:/Users/paulwang/Desktop/DaisyExamples/libDaisy/src/per/dac.h ****     {
  58:/Users/paulwang/Desktop/DaisyExamples/libDaisy/src/per/dac.h ****         BITS_8,
  59:/Users/paulwang/Desktop/DaisyExamples/libDaisy/src/per/dac.h ****         BITS_12
  60:/Users/paulwang/Desktop/DaisyExamples/libDaisy/src/per/dac.h ****     };
  61:/Users/paulwang/Desktop/DaisyExamples/libDaisy/src/per/dac.h **** 
  62:/Users/paulwang/Desktop/DaisyExamples/libDaisy/src/per/dac.h ****     /** Sets whether the DAC output is buffered for higher drive ability. */
  63:/Users/paulwang/Desktop/DaisyExamples/libDaisy/src/per/dac.h ****     enum class BufferState
  64:/Users/paulwang/Desktop/DaisyExamples/libDaisy/src/per/dac.h ****     {
  65:/Users/paulwang/Desktop/DaisyExamples/libDaisy/src/per/dac.h ****         ENABLED,
  66:/Users/paulwang/Desktop/DaisyExamples/libDaisy/src/per/dac.h ****         DISABLED,
  67:/Users/paulwang/Desktop/DaisyExamples/libDaisy/src/per/dac.h ****     };
  68:/Users/paulwang/Desktop/DaisyExamples/libDaisy/src/per/dac.h **** 
  69:/Users/paulwang/Desktop/DaisyExamples/libDaisy/src/per/dac.h ****     /** Configuration structure for initializing the DAC structure. */
  70:/Users/paulwang/Desktop/DaisyExamples/libDaisy/src/per/dac.h ****     struct Config
  71:/Users/paulwang/Desktop/DaisyExamples/libDaisy/src/per/dac.h ****     {
  72:/Users/paulwang/Desktop/DaisyExamples/libDaisy/src/per/dac.h ****         /** Target Samplerate in Hz used to configure the internal 
  73:/Users/paulwang/Desktop/DaisyExamples/libDaisy/src/per/dac.h ****          ** timebase for DMA mode. Does nothing in POLLING mode.
  74:/Users/paulwang/Desktop/DaisyExamples/libDaisy/src/per/dac.h ****          ** If the value is 0 at Init time this will default to 48000Hz 
  75:/Users/paulwang/Desktop/DaisyExamples/libDaisy/src/per/dac.h ****          ** otherwise the driver will attempt meet the target.*/
  76:/Users/paulwang/Desktop/DaisyExamples/libDaisy/src/per/dac.h ****         uint32_t target_samplerate;
  77:/Users/paulwang/Desktop/DaisyExamples/libDaisy/src/per/dac.h **** 
  78:/Users/paulwang/Desktop/DaisyExamples/libDaisy/src/per/dac.h ****         Channel     chn;
  79:/Users/paulwang/Desktop/DaisyExamples/libDaisy/src/per/dac.h ****         Mode        mode;
  80:/Users/paulwang/Desktop/DaisyExamples/libDaisy/src/per/dac.h ****         BitDepth    bitdepth;
  81:/Users/paulwang/Desktop/DaisyExamples/libDaisy/src/per/dac.h ****         BufferState buff_state;
  82:/Users/paulwang/Desktop/DaisyExamples/libDaisy/src/per/dac.h ****     };
  83:/Users/paulwang/Desktop/DaisyExamples/libDaisy/src/per/dac.h **** 
  84:/Users/paulwang/Desktop/DaisyExamples/libDaisy/src/per/dac.h ****     DacHandle() : pimpl_(nullptr) {}
 568              		.loc 10 84 5 is_stmt 1 view .LVU135
 569              	.LBB162:
 570              	.LBB163:
 571              		.loc 10 84 33 is_stmt 0 view .LVU136
 572 000e 0362     		str	r3, [r0, #32]
 573              	.LVL43:
 574              		.loc 10 84 33 view .LVU137
 575              	.LBE163:
 576              	.LBE162:
 577              	.LBE161:
 578              	.LBB164:
 579              	.LBI164:
  40:/Users/paulwang/Desktop/DaisyExamples/libDaisy/src/hid/usb.h **** 
 580              		.loc 3 40 5 is_stmt 1 view .LVU138
  40:/Users/paulwang/Desktop/DaisyExamples/libDaisy/src/hid/usb.h **** 
 581              		.loc 3 40 5 is_stmt 0 view .LVU139
 582              	.LBE164:
 583              	.LBB165:
 584              	.LBI165:
ARM GAS  /var/folders/6w/sx7v0gy94nj4l80r62zsklwh0000gn/T//ccA4AFzN.s 			page 28


  96:/Users/paulwang/Desktop/DaisyExamples/libDaisy/src/sys/system.h ****     ~System() {}
 585              		.loc 2 96 5 is_stmt 1 view .LVU140
  96:/Users/paulwang/Desktop/DaisyExamples/libDaisy/src/sys/system.h ****     ~System() {}
 586              		.loc 2 96 5 is_stmt 0 view .LVU141
 587              	.LBE165:
 588              	.LBB166:
 589              	.LBI166:
 590              		.file 11 "/Users/paulwang/Desktop/DaisyExamples/libDaisy/src/per/sai.h"
   1:/Users/paulwang/Desktop/DaisyExamples/libDaisy/src/per/sai.h **** #pragma once
   2:/Users/paulwang/Desktop/DaisyExamples/libDaisy/src/per/sai.h **** #ifndef DSY_SAI_H
   3:/Users/paulwang/Desktop/DaisyExamples/libDaisy/src/per/sai.h **** #define DSY_SAI_H
   4:/Users/paulwang/Desktop/DaisyExamples/libDaisy/src/per/sai.h **** 
   5:/Users/paulwang/Desktop/DaisyExamples/libDaisy/src/per/sai.h **** #include "daisy_core.h"
   6:/Users/paulwang/Desktop/DaisyExamples/libDaisy/src/per/sai.h **** 
   7:/Users/paulwang/Desktop/DaisyExamples/libDaisy/src/per/sai.h **** namespace daisy
   8:/Users/paulwang/Desktop/DaisyExamples/libDaisy/src/per/sai.h **** {
   9:/Users/paulwang/Desktop/DaisyExamples/libDaisy/src/per/sai.h **** /** 
  10:/Users/paulwang/Desktop/DaisyExamples/libDaisy/src/per/sai.h ****  * Support for I2S Audio Protocol with different bit-depth, samplerate options
  11:/Users/paulwang/Desktop/DaisyExamples/libDaisy/src/per/sai.h ****  * Allows for master or slave, as well as freedom of selecting direction, 
  12:/Users/paulwang/Desktop/DaisyExamples/libDaisy/src/per/sai.h ****  * and other behavior for each peripheral, and block.
  13:/Users/paulwang/Desktop/DaisyExamples/libDaisy/src/per/sai.h ****  * 
  14:/Users/paulwang/Desktop/DaisyExamples/libDaisy/src/per/sai.h ****  * DMA Transfer commands must use buffers located within non-cached memory or use cache maintenance
  15:/Users/paulwang/Desktop/DaisyExamples/libDaisy/src/per/sai.h ****  * To declare an unitialized global element in the DMA memory section:
  16:/Users/paulwang/Desktop/DaisyExamples/libDaisy/src/per/sai.h ****  *    int32_t DSY_DMA_BUFFER_SECTOR my_buffer[96];
  17:/Users/paulwang/Desktop/DaisyExamples/libDaisy/src/per/sai.h ****  *
  18:/Users/paulwang/Desktop/DaisyExamples/libDaisy/src/per/sai.h ****  * Callback functions will be called once per half of the buffer. In the above example, 
  19:/Users/paulwang/Desktop/DaisyExamples/libDaisy/src/per/sai.h ****  * the callback function would be called once for every 48 samples.
  20:/Users/paulwang/Desktop/DaisyExamples/libDaisy/src/per/sai.h ****  * 
  21:/Users/paulwang/Desktop/DaisyExamples/libDaisy/src/per/sai.h ****  * Use SAI Handle like this:
  22:/Users/paulwang/Desktop/DaisyExamples/libDaisy/src/per/sai.h ****  * 
  23:/Users/paulwang/Desktop/DaisyExamples/libDaisy/src/per/sai.h ****  *  SaiHandle::Config sai_config;
  24:/Users/paulwang/Desktop/DaisyExamples/libDaisy/src/per/sai.h ****  *  sai_config.periph          = SaiHandle::Config::Peripheral::SAI_1;
  25:/Users/paulwang/Desktop/DaisyExamples/libDaisy/src/per/sai.h ****  *  sai_config.sr              = SaiHandle::Config::SampleRate::SAI_48KHZ;
  26:/Users/paulwang/Desktop/DaisyExamples/libDaisy/src/per/sai.h ****  *  sai_config.bit_depth       = SaiHandle::Config::BitDepth::SAI_24BIT;
  27:/Users/paulwang/Desktop/DaisyExamples/libDaisy/src/per/sai.h ****  *  sai_config.a_sync          = SaiHandle::Config::Sync::MASTER;
  28:/Users/paulwang/Desktop/DaisyExamples/libDaisy/src/per/sai.h ****  *  sai_config.b_sync          = SaiHandle::Config::Sync::SLAVE;
  29:/Users/paulwang/Desktop/DaisyExamples/libDaisy/src/per/sai.h ****  *  sai_config.a_dir           = SaiHandle::Config::Direction::RECEIVE;
  30:/Users/paulwang/Desktop/DaisyExamples/libDaisy/src/per/sai.h ****  *  sai_config.b_dir           = SaiHandle::Config::Direction::TRANSMIT;
  31:/Users/paulwang/Desktop/DaisyExamples/libDaisy/src/per/sai.h ****  *  sai_config.pin_config.fs   = {DSY_GPIOE, 4};
  32:/Users/paulwang/Desktop/DaisyExamples/libDaisy/src/per/sai.h ****  *  sai_config.pin_config.mclk = {DSY_GPIOE, 2};
  33:/Users/paulwang/Desktop/DaisyExamples/libDaisy/src/per/sai.h ****  *  sai_config.pin_config.sck  = {DSY_GPIOE, 5};
  34:/Users/paulwang/Desktop/DaisyExamples/libDaisy/src/per/sai.h ****  *  sai_config.pin_config.sa   = {DSY_GPIOE, 6};
  35:/Users/paulwang/Desktop/DaisyExamples/libDaisy/src/per/sai.h ****  *  sai_config.pin_config.sb   = {DSY_GPIOE, 3};
  36:/Users/paulwang/Desktop/DaisyExamples/libDaisy/src/per/sai.h ****  *  // Then Initialize
  37:/Users/paulwang/Desktop/DaisyExamples/libDaisy/src/per/sai.h ****  *  SaiHandle sai;
  38:/Users/paulwang/Desktop/DaisyExamples/libDaisy/src/per/sai.h ****  *  sai.Init(sai_config);
  39:/Users/paulwang/Desktop/DaisyExamples/libDaisy/src/per/sai.h ****  *  // Now you can use it:
  40:/Users/paulwang/Desktop/DaisyExamples/libDaisy/src/per/sai.h ****  *  sai.StartDma(. . .);
  41:/Users/paulwang/Desktop/DaisyExamples/libDaisy/src/per/sai.h ****  */
  42:/Users/paulwang/Desktop/DaisyExamples/libDaisy/src/per/sai.h **** class SaiHandle
  43:/Users/paulwang/Desktop/DaisyExamples/libDaisy/src/per/sai.h **** {
  44:/Users/paulwang/Desktop/DaisyExamples/libDaisy/src/per/sai.h ****   public:
  45:/Users/paulwang/Desktop/DaisyExamples/libDaisy/src/per/sai.h ****     /** Contains settings for initialising an SAI Interface */
  46:/Users/paulwang/Desktop/DaisyExamples/libDaisy/src/per/sai.h ****     struct Config
  47:/Users/paulwang/Desktop/DaisyExamples/libDaisy/src/per/sai.h ****     {
  48:/Users/paulwang/Desktop/DaisyExamples/libDaisy/src/per/sai.h ****         /** Specifies the internal peripheral to use (mapped to different hardware pins) */
  49:/Users/paulwang/Desktop/DaisyExamples/libDaisy/src/per/sai.h ****         enum class Peripheral
ARM GAS  /var/folders/6w/sx7v0gy94nj4l80r62zsklwh0000gn/T//ccA4AFzN.s 			page 29


  50:/Users/paulwang/Desktop/DaisyExamples/libDaisy/src/per/sai.h ****         {
  51:/Users/paulwang/Desktop/DaisyExamples/libDaisy/src/per/sai.h ****             SAI_1,
  52:/Users/paulwang/Desktop/DaisyExamples/libDaisy/src/per/sai.h ****             SAI_2,
  53:/Users/paulwang/Desktop/DaisyExamples/libDaisy/src/per/sai.h ****         };
  54:/Users/paulwang/Desktop/DaisyExamples/libDaisy/src/per/sai.h **** 
  55:/Users/paulwang/Desktop/DaisyExamples/libDaisy/src/per/sai.h ****         /** Rate at which samples will be streaming to/from the device. */
  56:/Users/paulwang/Desktop/DaisyExamples/libDaisy/src/per/sai.h ****         enum class SampleRate
  57:/Users/paulwang/Desktop/DaisyExamples/libDaisy/src/per/sai.h ****         {
  58:/Users/paulwang/Desktop/DaisyExamples/libDaisy/src/per/sai.h ****             SAI_8KHZ,
  59:/Users/paulwang/Desktop/DaisyExamples/libDaisy/src/per/sai.h ****             SAI_16KHZ,
  60:/Users/paulwang/Desktop/DaisyExamples/libDaisy/src/per/sai.h ****             SAI_32KHZ,
  61:/Users/paulwang/Desktop/DaisyExamples/libDaisy/src/per/sai.h ****             SAI_48KHZ,
  62:/Users/paulwang/Desktop/DaisyExamples/libDaisy/src/per/sai.h ****             SAI_96KHZ,
  63:/Users/paulwang/Desktop/DaisyExamples/libDaisy/src/per/sai.h ****         };
  64:/Users/paulwang/Desktop/DaisyExamples/libDaisy/src/per/sai.h **** 
  65:/Users/paulwang/Desktop/DaisyExamples/libDaisy/src/per/sai.h ****         /** Bit Depth that the hardware expects to be transferred to/from the device. */
  66:/Users/paulwang/Desktop/DaisyExamples/libDaisy/src/per/sai.h ****         enum class BitDepth
  67:/Users/paulwang/Desktop/DaisyExamples/libDaisy/src/per/sai.h ****         {
  68:/Users/paulwang/Desktop/DaisyExamples/libDaisy/src/per/sai.h ****             SAI_16BIT,
  69:/Users/paulwang/Desktop/DaisyExamples/libDaisy/src/per/sai.h ****             SAI_24BIT,
  70:/Users/paulwang/Desktop/DaisyExamples/libDaisy/src/per/sai.h ****             SAI_32BIT,
  71:/Users/paulwang/Desktop/DaisyExamples/libDaisy/src/per/sai.h ****         };
  72:/Users/paulwang/Desktop/DaisyExamples/libDaisy/src/per/sai.h **** 
  73:/Users/paulwang/Desktop/DaisyExamples/libDaisy/src/per/sai.h ****         /** Specifies whether a particular block is the master or the slave 
  74:/Users/paulwang/Desktop/DaisyExamples/libDaisy/src/per/sai.h ****          ** If both are set to slave, no MCLK signal will be used, and it is
  75:/Users/paulwang/Desktop/DaisyExamples/libDaisy/src/per/sai.h ****          ** expected that the codec will have its own xtal.
  76:/Users/paulwang/Desktop/DaisyExamples/libDaisy/src/per/sai.h ****          */
  77:/Users/paulwang/Desktop/DaisyExamples/libDaisy/src/per/sai.h ****         enum class Sync
  78:/Users/paulwang/Desktop/DaisyExamples/libDaisy/src/per/sai.h ****         {
  79:/Users/paulwang/Desktop/DaisyExamples/libDaisy/src/per/sai.h ****             MASTER,
  80:/Users/paulwang/Desktop/DaisyExamples/libDaisy/src/per/sai.h ****             SLAVE,
  81:/Users/paulwang/Desktop/DaisyExamples/libDaisy/src/per/sai.h ****         };
  82:/Users/paulwang/Desktop/DaisyExamples/libDaisy/src/per/sai.h **** 
  83:/Users/paulwang/Desktop/DaisyExamples/libDaisy/src/per/sai.h ****         /** Specifies the direction for each peripheral block. */
  84:/Users/paulwang/Desktop/DaisyExamples/libDaisy/src/per/sai.h ****         enum class Direction
  85:/Users/paulwang/Desktop/DaisyExamples/libDaisy/src/per/sai.h ****         {
  86:/Users/paulwang/Desktop/DaisyExamples/libDaisy/src/per/sai.h ****             TRANSMIT,
  87:/Users/paulwang/Desktop/DaisyExamples/libDaisy/src/per/sai.h ****             RECEIVE,
  88:/Users/paulwang/Desktop/DaisyExamples/libDaisy/src/per/sai.h ****         };
  89:/Users/paulwang/Desktop/DaisyExamples/libDaisy/src/per/sai.h **** 
  90:/Users/paulwang/Desktop/DaisyExamples/libDaisy/src/per/sai.h ****         Peripheral periph;
  91:/Users/paulwang/Desktop/DaisyExamples/libDaisy/src/per/sai.h ****         struct
  92:/Users/paulwang/Desktop/DaisyExamples/libDaisy/src/per/sai.h ****         {
  93:/Users/paulwang/Desktop/DaisyExamples/libDaisy/src/per/sai.h ****             dsy_gpio_pin mclk, fs, sck, sa, sb;
  94:/Users/paulwang/Desktop/DaisyExamples/libDaisy/src/per/sai.h ****         } pin_config;
  95:/Users/paulwang/Desktop/DaisyExamples/libDaisy/src/per/sai.h ****         SampleRate sr;
  96:/Users/paulwang/Desktop/DaisyExamples/libDaisy/src/per/sai.h ****         BitDepth   bit_depth;
  97:/Users/paulwang/Desktop/DaisyExamples/libDaisy/src/per/sai.h ****         Sync       a_sync, b_sync;
  98:/Users/paulwang/Desktop/DaisyExamples/libDaisy/src/per/sai.h ****         Direction  a_dir, b_dir;
  99:/Users/paulwang/Desktop/DaisyExamples/libDaisy/src/per/sai.h ****     };
 100:/Users/paulwang/Desktop/DaisyExamples/libDaisy/src/per/sai.h **** 
 101:/Users/paulwang/Desktop/DaisyExamples/libDaisy/src/per/sai.h ****     /** Return values for SAI functions */
 102:/Users/paulwang/Desktop/DaisyExamples/libDaisy/src/per/sai.h ****     enum class Result
 103:/Users/paulwang/Desktop/DaisyExamples/libDaisy/src/per/sai.h ****     {
 104:/Users/paulwang/Desktop/DaisyExamples/libDaisy/src/per/sai.h ****         OK,
 105:/Users/paulwang/Desktop/DaisyExamples/libDaisy/src/per/sai.h ****         ERR,
 106:/Users/paulwang/Desktop/DaisyExamples/libDaisy/src/per/sai.h ****     };
ARM GAS  /var/folders/6w/sx7v0gy94nj4l80r62zsklwh0000gn/T//ccA4AFzN.s 			page 30


 107:/Users/paulwang/Desktop/DaisyExamples/libDaisy/src/per/sai.h **** 
 108:/Users/paulwang/Desktop/DaisyExamples/libDaisy/src/per/sai.h ****     SaiHandle() : pimpl_(nullptr) {}
 591              		.loc 11 108 5 is_stmt 1 view .LVU142
 592              	.LBB167:
 593              	.LBB168:
 594              		.loc 11 108 33 is_stmt 0 view .LVU143
 595 0010 C363     		str	r3, [r0, #60]
 596              	.LVL44:
 597              		.loc 11 108 33 view .LVU144
 598              	.LBE168:
 599              	.LBE167:
 600              	.LBE166:
 601              	.LBE170:
 602              	.LBE172:
 188:axis.cpp      **** DaisySeed hw;
 603              		.loc 8 188 11 view .LVU145
 604 0012 FFF7FEFF 		bl	__aeabi_atexit
 605              	.LVL45:
 606              	.LBB173:
 607              	.LBI173:
  32:/Users/paulwang/Desktop/DaisyExamples/DaisySP/Source/Effects/tremolo.h ****     ~Tremolo() {}
 608              		.loc 6 32 5 is_stmt 1 view .LVU146
 609              	.LBB174:
 610              	.LBB175:
 611              	.LBI175:
  23:/Users/paulwang/Desktop/DaisyExamples/DaisySP/Source/Synthesis/oscillator.h ****     ~Oscillator() {}
 612              		.loc 7 23 5 view .LVU147
  23:/Users/paulwang/Desktop/DaisyExamples/DaisySP/Source/Synthesis/oscillator.h ****     ~Oscillator() {}
 613              		.loc 7 23 5 is_stmt 0 view .LVU148
 614              	.LBE175:
 615              	.LBE174:
 616              	.LBE173:
 189:axis.cpp      **** Tremolo tremolo;
 617              		.loc 8 189 9 view .LVU149
 618 0016 044A     		ldr	r2, .L24+4
 619 0018 0549     		ldr	r1, .L24+12
 620 001a 0648     		ldr	r0, .L24+16
 621              	.LBE176:
 622              	.LBE178:
 623              		.loc 8 244 1 view .LVU150
 624 001c BDE80840 		pop	{r3, lr}
 625              		.cfi_restore 14
 626              		.cfi_restore 3
 627              		.cfi_def_cfa_offset 0
 628              	.LBB179:
 629              	.LBB177:
 189:axis.cpp      **** Tremolo tremolo;
 630              		.loc 8 189 9 view .LVU151
 631 0020 FFF7FEBF 		b	__aeabi_atexit
 632              	.LVL46:
 633              	.L25:
 634              		.align	2
 635              	.L24:
 636 0024 00000000 		.word	.LANCHOR3
 637 0028 00000000 		.word	__dso_handle
 638 002c 00000000 		.word	_ZN5daisy9DaisySeedD1Ev
 639 0030 00000000 		.word	_ZN7daisysp7TremoloD1Ev
ARM GAS  /var/folders/6w/sx7v0gy94nj4l80r62zsklwh0000gn/T//ccA4AFzN.s 			page 31


 640 0034 00000000 		.word	.LANCHOR1
 641              	.LBE177:
 642              	.LBE179:
 643              		.cfi_endproc
 644              	.LFE5247:
 646              		.section	.init_array,"aw",%init_array
 647              		.align	2
 648 0000 00000000 		.word	_GLOBAL__sub_I_hw(target1)
 649              		.global	trem_freq
 650              		.global	trem_depth
 651              		.global	data
 652              		.global	tremolo
 653              		.global	hw
 654              		.section	.bss.data,"aw",%nobits
 655              		.align	2
 656              		.set	.LANCHOR4,. + 0
 659              	data:
 660 0000 00000000 		.space	44
 660      00000000 
 660      00000000 
 660      00000000 
 660      00000000 
 661              		.section	.bss.hw,"aw",%nobits
 662              		.align	2
 663              		.set	.LANCHOR3,. + 0
 666              	hw:
 667 0000 00000000 		.space	64
 667      00000000 
 667      00000000 
 667      00000000 
 667      00000000 
 668              		.section	.bss.tremolo,"aw",%nobits
 669              		.align	2
 670              		.set	.LANCHOR1,. + 0
 673              	tremolo:
 674 0000 00000000 		.space	52
 674      00000000 
 674      00000000 
 674      00000000 
 674      00000000 
 675              		.section	.data.trem_depth,"aw"
 676              		.align	2
 677              		.set	.LANCHOR0,. + 0
 680              	trem_depth:
 681 0000 0000003F 		.word	1056964608
 682              		.section	.data.trem_freq,"aw"
 683              		.align	2
 684              		.set	.LANCHOR2,. + 0
 687              	trem_freq:
 688 0000 0000A040 		.word	1084227584
 689              		.text
 690              	.Letext0:
 691              		.file 12 "/Library/DaisyToolchain/0.2.0/arm/arm-none-eabi/include/machine/_default_types.h"
 692              		.file 13 "/Library/DaisyToolchain/0.2.0/arm/arm-none-eabi/include/sys/_stdint.h"
 693              		.file 14 "/Library/DaisyToolchain/0.2.0/arm/arm-none-eabi/include/stdint.h"
 694              		.file 15 "/Library/DaisyToolchain/0.2.0/arm/lib/gcc/arm-none-eabi/10.3.1/include/stddef.h"
 695              		.file 16 "/Library/DaisyToolchain/0.2.0/arm/arm-none-eabi/include/c++/10.3.1/cmath"
ARM GAS  /var/folders/6w/sx7v0gy94nj4l80r62zsklwh0000gn/T//ccA4AFzN.s 			page 32


 696              		.file 17 "/Library/DaisyToolchain/0.2.0/arm/arm-none-eabi/include/c++/10.3.1/bits/std_abs.h"
 697              		.file 18 "/Library/DaisyToolchain/0.2.0/arm/arm-none-eabi/include/c++/10.3.1/cstdlib"
 698              		.file 19 "/Library/DaisyToolchain/0.2.0/arm/arm-none-eabi/include/c++/10.3.1/cstdint"
 699              		.file 20 "/Library/DaisyToolchain/0.2.0/arm/arm-none-eabi/include/c++/10.3.1/type_traits"
 700              		.file 21 "/Library/DaisyToolchain/0.2.0/arm/arm-none-eabi/include/c++/10.3.1/debug/debug.h"
 701              		.file 22 "/Library/DaisyToolchain/0.2.0/arm/arm-none-eabi/include/c++/10.3.1/arm-none-eabi/thumb/v
 702              		.file 23 "/Library/DaisyToolchain/0.2.0/arm/arm-none-eabi/include/c++/10.3.1/bits/algorithmfwd.h"
 703              		.file 24 "/Library/DaisyToolchain/0.2.0/arm/arm-none-eabi/include/c++/10.3.1/bits/stl_pair.h"
 704              		.file 25 "/Library/DaisyToolchain/0.2.0/arm/arm-none-eabi/include/c++/10.3.1/bits/exception_ptr.h"
 705              		.file 26 "/Library/DaisyToolchain/0.2.0/arm/arm-none-eabi/include/c++/10.3.1/cstdarg"
 706              		.file 27 "/Library/DaisyToolchain/0.2.0/arm/arm-none-eabi/include/c++/10.3.1/cstdio"
 707              		.file 28 "/Library/DaisyToolchain/0.2.0/arm/arm-none-eabi/include/c++/10.3.1/cstring"
 708              		.file 29 "/Library/DaisyToolchain/0.2.0/arm/arm-none-eabi/include/c++/10.3.1/cwchar"
 709              		.file 30 "/Library/DaisyToolchain/0.2.0/arm/arm-none-eabi/include/c++/10.3.1/clocale"
 710              		.file 31 "/Library/DaisyToolchain/0.2.0/arm/arm-none-eabi/include/c++/10.3.1/bits/basic_string.h"
 711              		.file 32 "/Library/DaisyToolchain/0.2.0/arm/arm-none-eabi/include/c++/10.3.1/bits/stl_iterator.h"
 712              		.file 33 "/Library/DaisyToolchain/0.2.0/arm/arm-none-eabi/include/c++/10.3.1/bits/predefined_ops.h
 713              		.file 34 "/Library/DaisyToolchain/0.2.0/arm/arm-none-eabi/include/sys/_types.h"
 714              		.file 35 "/Library/DaisyToolchain/0.2.0/arm/arm-none-eabi/include/sys/reent.h"
 715              		.file 36 "/Library/DaisyToolchain/0.2.0/arm/arm-none-eabi/include/sys/lock.h"
 716              		.file 37 "/Library/DaisyToolchain/0.2.0/arm/arm-none-eabi/include/math.h"
 717              		.file 38 "/Library/DaisyToolchain/0.2.0/arm/arm-none-eabi/include/stdlib.h"
 718              		.file 39 "/Library/DaisyToolchain/0.2.0/arm/arm-none-eabi/include/c++/10.3.1/math.h"
 719              		.file 40 "mpu6050.h"
 720              		.file 41 "/Library/DaisyToolchain/0.2.0/arm/arm-none-eabi/include/c++/10.3.1/stdlib.h"
 721              		.file 42 "/Users/paulwang/Desktop/DaisyExamples/libDaisy/src/daisy_core.h"
 722              		.file 43 "/Users/paulwang/Desktop/DaisyExamples/libDaisy/src/per/tim.h"
 723              		.file 44 "/Users/paulwang/Desktop/DaisyExamples/libDaisy/src/util/wav_format.h"
 724              		.file 45 "/Users/paulwang/Desktop/DaisyExamples/libDaisy/src/dev/max11300.h"
 725              		.file 46 "/Users/paulwang/Desktop/DaisyExamples/libDaisy/src/per/gpio.h"
 726              		.file 47 "/Users/paulwang/Desktop/DaisyExamples/libDaisy/src/dev/sdram.h"
 727              		.file 48 "/Library/DaisyToolchain/0.2.0/arm/lib/gcc/arm-none-eabi/10.3.1/include/stdarg.h"
 728              		.file 49 "/Library/DaisyToolchain/0.2.0/arm/arm-none-eabi/include/stdio.h"
 729              		.file 50 "/Library/DaisyToolchain/0.2.0/arm/arm-none-eabi/include/string.h"
 730              		.file 51 "/Users/paulwang/Desktop/DaisyExamples/DaisySP/Source/Control/adenv.h"
 731              		.file 52 "/Users/paulwang/Desktop/DaisyExamples/DaisySP/Source/Utility/dsp.h"
 732              		.file 53 "/Library/DaisyToolchain/0.2.0/arm/arm-none-eabi/include/wchar.h"
 733              		.file 54 "/Library/DaisyToolchain/0.2.0/arm/arm-none-eabi/include/locale.h"
 734              		.file 55 "<built-in>"
 735              		.file 56 "/Users/paulwang/Desktop/DaisyExamples/libDaisy/src/dev/sr_595.h"
ARM GAS  /var/folders/6w/sx7v0gy94nj4l80r62zsklwh0000gn/T//ccA4AFzN.s 			page 33

