ARM GAS  /var/folders/6w/sx7v0gy94nj4l80r62zsklwh0000gn/T//ccLZtz7E.s 			page 1


   1              		.cpu cortex-m7
   2              		.arch armv7e-m
   3              		.fpu fpv5-d16
   4              		.eabi_attribute 28, 1
   5              		.eabi_attribute 20, 1
   6              		.eabi_attribute 21, 1
   7              		.eabi_attribute 23, 3
   8              		.eabi_attribute 24, 1
   9              		.eabi_attribute 25, 1
  10              		.eabi_attribute 26, 1
  11              		.eabi_attribute 30, 2
  12              		.eabi_attribute 34, 1
  13              		.eabi_attribute 18, 4
  14              		.file	"mpu6050.cpp"
  15              		.text
  16              	.Ltext0:
  17              		.cfi_sections	.debug_frame
  18              		.section	.text._Z20WriteMPU6050Registerhh,"ax",%progbits
  19              		.align	1
  20              		.p2align 2,,3
  21              		.global	_Z20WriteMPU6050Registerhh
  22              		.syntax unified
  23              		.thumb
  24              		.thumb_func
  26              	_Z20WriteMPU6050Registerhh:
  27              	.LVL0:
  28              	.LFB4682:
  29              		.file 1 "mpu6050.cpp"
   1:mpu6050.cpp   **** #include "MPU6050.h"
   2:mpu6050.cpp   **** #include "daisy_seed.h"
   3:mpu6050.cpp   **** #include "daisysp.h"
   4:mpu6050.cpp   **** #include <math.h>
   5:mpu6050.cpp   **** 
   6:mpu6050.cpp   **** using namespace daisy;
   7:mpu6050.cpp   **** using namespace daisysp;
   8:mpu6050.cpp   **** 
   9:mpu6050.cpp   **** I2CHandle i2c;
  10:mpu6050.cpp   **** 
  11:mpu6050.cpp   **** // MPU6050 I2C Address (AD0 pin = LOW)
  12:mpu6050.cpp   **** const uint8_t MPU6050_ADDRESS = 0x68;
  13:mpu6050.cpp   **** 
  14:mpu6050.cpp   **** // MPU6050 Register Addresses
  15:mpu6050.cpp   **** const uint8_t MPU6050_WHO_AM_I = 0x75;
  16:mpu6050.cpp   **** const uint8_t MPU6050_PWR_MGMT_1 = 0x6B;
  17:mpu6050.cpp   **** const uint8_t MPU6050_PWR_MGMT_2 = 0x6C;
  18:mpu6050.cpp   **** const uint8_t MPU6050_GYRO_CONFIG = 0x1B;
  19:mpu6050.cpp   **** const uint8_t MPU6050_ACCEL_CONFIG = 0x1C;
  20:mpu6050.cpp   **** const uint8_t MPU6050_ACCEL_XOUT_H = 0x3B;
  21:mpu6050.cpp   **** 
  22:mpu6050.cpp   **** // Sensitivity values (for ±250°/s and ±2g)
  23:mpu6050.cpp   **** const float GYRO_SENSITIVITY = 131.0f;   // LSB per °/s for ±250°/s range
  24:mpu6050.cpp   **** const float ACCEL_SENSITIVITY = 16384.0f; // LSB per g for ±2g range
  25:mpu6050.cpp   **** 
  26:mpu6050.cpp   **** // Helper functions for I2C communication
  27:mpu6050.cpp   **** void WriteMPU6050Register(uint8_t reg, uint8_t value) {
  30              		.loc 1 27 55 view -0
  31              		.cfi_startproc
ARM GAS  /var/folders/6w/sx7v0gy94nj4l80r62zsklwh0000gn/T//ccLZtz7E.s 			page 2


  32              		@ args = 0, pretend = 0, frame = 8
  33              		@ frame_needed = 0, uses_anonymous_args = 0
  28:mpu6050.cpp   ****     uint8_t buffer[2] = {reg, value};
  34              		.loc 1 28 5 view .LVU1
  27:mpu6050.cpp   ****     uint8_t buffer[2] = {reg, value};
  35              		.loc 1 27 55 is_stmt 0 view .LVU2
  36 0000 10B5     		push	{r4, lr}
  37              		.cfi_def_cfa_offset 8
  38              		.cfi_offset 4, -8
  39              		.cfi_offset 14, -4
  40 0002 84B0     		sub	sp, sp, #16
  41              		.cfi_def_cfa_offset 24
  29:mpu6050.cpp   ****     i2c.TransmitBlocking(MPU6050_ADDRESS, buffer, 2, 100);
  42              		.loc 1 29 25 view .LVU3
  43 0004 6424     		movs	r4, #100
  44 0006 0223     		movs	r3, #2
  28:mpu6050.cpp   ****     uint8_t buffer[2] = {reg, value};
  45              		.loc 1 28 36 view .LVU4
  46 0008 8DF80D10 		strb	r1, [sp, #13]
  47              		.loc 1 29 5 is_stmt 1 view .LVU5
  48              		.loc 1 29 25 is_stmt 0 view .LVU6
  49 000c 03AA     		add	r2, sp, #12
  50 000e 6821     		movs	r1, #104
  51              	.LVL1:
  28:mpu6050.cpp   ****     uint8_t buffer[2] = {reg, value};
  52              		.loc 1 28 36 view .LVU7
  53 0010 8DF80C00 		strb	r0, [sp, #12]
  54              		.loc 1 29 25 view .LVU8
  55 0014 0094     		str	r4, [sp]
  56 0016 0248     		ldr	r0, .L4
  57              	.LVL2:
  58              		.loc 1 29 25 view .LVU9
  59 0018 FFF7FEFF 		bl	_ZN5daisy9I2CHandle16TransmitBlockingEtPhtm
  60              	.LVL3:
  30:mpu6050.cpp   **** }
  61              		.loc 1 30 1 view .LVU10
  62 001c 04B0     		add	sp, sp, #16
  63              		.cfi_def_cfa_offset 8
  64              		@ sp needed
  65 001e 10BD     		pop	{r4, pc}
  66              	.L5:
  67              		.align	2
  68              	.L4:
  69 0020 00000000 		.word	.LANCHOR0
  70              		.cfi_endproc
  71              	.LFE4682:
  73              		.section	.text._Z19ReadMPU6050RegisterhPhh,"ax",%progbits
  74              		.align	1
  75              		.p2align 2,,3
  76              		.global	_Z19ReadMPU6050RegisterhPhh
  77              		.syntax unified
  78              		.thumb
  79              		.thumb_func
  81              	_Z19ReadMPU6050RegisterhPhh:
  82              	.LVL4:
  83              	.LFB4683:
  31:mpu6050.cpp   **** 
ARM GAS  /var/folders/6w/sx7v0gy94nj4l80r62zsklwh0000gn/T//ccLZtz7E.s 			page 3


  32:mpu6050.cpp   **** void ReadMPU6050Register(uint8_t reg, uint8_t arr[], uint8_t size) {
  84              		.loc 1 32 68 is_stmt 1 view -0
  85              		.cfi_startproc
  86              		@ args = 0, pretend = 0, frame = 8
  87              		@ frame_needed = 0, uses_anonymous_args = 0
  33:mpu6050.cpp   ****     i2c.TransmitBlocking(MPU6050_ADDRESS, &reg, 1, 100);
  88              		.loc 1 33 5 view .LVU12
  32:mpu6050.cpp   ****     i2c.TransmitBlocking(MPU6050_ADDRESS, &reg, 1, 100);
  89              		.loc 1 32 68 is_stmt 0 view .LVU13
  90 0000 F0B5     		push	{r4, r5, r6, r7, lr}
  91              		.cfi_def_cfa_offset 20
  92              		.cfi_offset 4, -20
  93              		.cfi_offset 5, -16
  94              		.cfi_offset 6, -12
  95              		.cfi_offset 7, -8
  96              		.cfi_offset 14, -4
  97              		.loc 1 33 25 view .LVU14
  98 0002 0C4F     		ldr	r7, .L8
  32:mpu6050.cpp   ****     i2c.TransmitBlocking(MPU6050_ADDRESS, &reg, 1, 100);
  99              		.loc 1 32 68 view .LVU15
 100 0004 85B0     		sub	sp, sp, #20
 101              		.cfi_def_cfa_offset 40
 102              		.loc 1 33 25 view .LVU16
 103 0006 6426     		movs	r6, #100
  32:mpu6050.cpp   ****     i2c.TransmitBlocking(MPU6050_ADDRESS, &reg, 1, 100);
 104              		.loc 1 32 68 view .LVU17
 105 0008 0C46     		mov	r4, r1
 106 000a 1546     		mov	r5, r2
 107 000c 8DF80F00 		strb	r0, [sp, #15]
 108              		.loc 1 33 25 view .LVU18
 109 0010 0DF10F02 		add	r2, sp, #15
 110              	.LVL5:
 111              		.loc 1 33 25 view .LVU19
 112 0014 0123     		movs	r3, #1
 113 0016 6821     		movs	r1, #104
 114              	.LVL6:
 115              		.loc 1 33 25 view .LVU20
 116 0018 3846     		mov	r0, r7
 117              	.LVL7:
 118              		.loc 1 33 25 view .LVU21
 119 001a 0096     		str	r6, [sp]
 120 001c FFF7FEFF 		bl	_ZN5daisy9I2CHandle16TransmitBlockingEtPhtm
 121              	.LVL8:
  34:mpu6050.cpp   ****     i2c.ReceiveBlocking(MPU6050_ADDRESS, arr, size, 100);
 122              		.loc 1 34 5 is_stmt 1 view .LVU22
 123              		.loc 1 34 24 is_stmt 0 view .LVU23
 124 0020 2B46     		mov	r3, r5
 125 0022 2246     		mov	r2, r4
 126 0024 6821     		movs	r1, #104
 127 0026 3846     		mov	r0, r7
 128 0028 0096     		str	r6, [sp]
 129 002a FFF7FEFF 		bl	_ZN5daisy9I2CHandle15ReceiveBlockingEtPhtm
 130              	.LVL9:
  35:mpu6050.cpp   **** }
 131              		.loc 1 35 1 view .LVU24
 132 002e 05B0     		add	sp, sp, #20
 133              		.cfi_def_cfa_offset 20
ARM GAS  /var/folders/6w/sx7v0gy94nj4l80r62zsklwh0000gn/T//ccLZtz7E.s 			page 4


 134              		@ sp needed
 135 0030 F0BD     		pop	{r4, r5, r6, r7, pc}
 136              	.LVL10:
 137              	.L9:
 138              		.loc 1 35 1 view .LVU25
 139 0032 00BF     		.align	2
 140              	.L8:
 141 0034 00000000 		.word	.LANCHOR0
 142              		.cfi_endproc
 143              	.LFE4683:
 145              		.section	.text._Z11InitMPU6050v,"ax",%progbits
 146              		.align	1
 147              		.p2align 2,,3
 148              		.global	_Z11InitMPU6050v
 149              		.syntax unified
 150              		.thumb
 151              		.thumb_func
 153              	_Z11InitMPU6050v:
 154              	.LFB4684:
  36:mpu6050.cpp   **** 
  37:mpu6050.cpp   **** void InitMPU6050() {
 155              		.loc 1 37 20 is_stmt 1 view -0
 156              		.cfi_startproc
 157              		@ args = 0, pretend = 0, frame = 24
 158              		@ frame_needed = 0, uses_anonymous_args = 0
  38:mpu6050.cpp   ****     // Configure I2C for MPU6050
  39:mpu6050.cpp   ****     I2CHandle::Config i2c_conf;
 159              		.loc 1 39 5 view .LVU27
  40:mpu6050.cpp   ****     i2c_conf.periph = I2CHandle::Config::Peripheral::I2C_1;
  41:mpu6050.cpp   ****     i2c_conf.mode = I2CHandle::Config::Mode::I2C_MASTER;
  42:mpu6050.cpp   ****     i2c_conf.speed = I2CHandle::Config::Speed::I2C_400KHZ;
  43:mpu6050.cpp   ****     i2c_conf.pin_config.scl = seed::D11;
 160              		.loc 1 43 29 is_stmt 0 view .LVU28
 161 0000 2D4A     		ldr	r2, .L14
 162              	.LBB29:
 163              	.LBB30:
 164              		.file 2 "/Users/paulwang/Desktop/DaisyExamples/libDaisy/src/per/i2c.h"
   1:/Users/paulwang/Desktop/DaisyExamples/libDaisy/src/per/i2c.h **** #pragma once
   2:/Users/paulwang/Desktop/DaisyExamples/libDaisy/src/per/i2c.h **** #include "daisy_core.h"
   3:/Users/paulwang/Desktop/DaisyExamples/libDaisy/src/per/i2c.h **** 
   4:/Users/paulwang/Desktop/DaisyExamples/libDaisy/src/per/i2c.h **** namespace daisy
   5:/Users/paulwang/Desktop/DaisyExamples/libDaisy/src/per/i2c.h **** {
   6:/Users/paulwang/Desktop/DaisyExamples/libDaisy/src/per/i2c.h **** /** A handle for interacting with an I2C peripheral. This is a dumb
   7:/Users/paulwang/Desktop/DaisyExamples/libDaisy/src/per/i2c.h ****  *  gateway that internally points to one of the four I2C peripherals
   8:/Users/paulwang/Desktop/DaisyExamples/libDaisy/src/per/i2c.h ****  *  after it was initialised. It can then be copied and passed around.
   9:/Users/paulwang/Desktop/DaisyExamples/libDaisy/src/per/i2c.h ****  *  Use an I2CHandle like this:
  10:/Users/paulwang/Desktop/DaisyExamples/libDaisy/src/per/i2c.h ****  *  
  11:/Users/paulwang/Desktop/DaisyExamples/libDaisy/src/per/i2c.h ****  *      // setup the configuration
  12:/Users/paulwang/Desktop/DaisyExamples/libDaisy/src/per/i2c.h ****  *      I2CHandle::Config i2c_conf;
  13:/Users/paulwang/Desktop/DaisyExamples/libDaisy/src/per/i2c.h ****  *      i2c_conf.periph = I2CHandle::Config::Peripheral::I2C_1;
  14:/Users/paulwang/Desktop/DaisyExamples/libDaisy/src/per/i2c.h ****  *      i2c_conf.speed  = I2CHandle::Config::Speed::I2C_400KHZ;
  15:/Users/paulwang/Desktop/DaisyExamples/libDaisy/src/per/i2c.h ****  *      i2c_conf.mode   = I2CHandle::Config::Mode::Master;
  16:/Users/paulwang/Desktop/DaisyExamples/libDaisy/src/per/i2c.h ****  *      i2c_conf.pin_config.scl  = {DSY_GPIOB, 8};
  17:/Users/paulwang/Desktop/DaisyExamples/libDaisy/src/per/i2c.h ****  *      i2c_conf.pin_config.sda  = {DSY_GPIOB, 9};
  18:/Users/paulwang/Desktop/DaisyExamples/libDaisy/src/per/i2c.h ****  *      // initialise the peripheral
  19:/Users/paulwang/Desktop/DaisyExamples/libDaisy/src/per/i2c.h ****  *      I2CHandle i2c;
  20:/Users/paulwang/Desktop/DaisyExamples/libDaisy/src/per/i2c.h ****  *      i2c.Init(i2c_conf);
ARM GAS  /var/folders/6w/sx7v0gy94nj4l80r62zsklwh0000gn/T//ccLZtz7E.s 			page 5


  21:/Users/paulwang/Desktop/DaisyExamples/libDaisy/src/per/i2c.h ****  *      // now i2c points to the corresponding peripheral and can be used.
  22:/Users/paulwang/Desktop/DaisyExamples/libDaisy/src/per/i2c.h ****  *      i2c.TransmitBlocking( ... );
  23:/Users/paulwang/Desktop/DaisyExamples/libDaisy/src/per/i2c.h ****  */
  24:/Users/paulwang/Desktop/DaisyExamples/libDaisy/src/per/i2c.h **** class I2CHandle
  25:/Users/paulwang/Desktop/DaisyExamples/libDaisy/src/per/i2c.h **** {
  26:/Users/paulwang/Desktop/DaisyExamples/libDaisy/src/per/i2c.h ****   public:
  27:/Users/paulwang/Desktop/DaisyExamples/libDaisy/src/per/i2c.h ****     /** Contains settings for initialising an I2C interface. */
  28:/Users/paulwang/Desktop/DaisyExamples/libDaisy/src/per/i2c.h ****     struct Config
 165              		.loc 2 28 12 view .LVU29
 166 0002 1020     		movs	r0, #16
 167              	.LBE30:
 168              	.LBE29:
  40:mpu6050.cpp   ****     i2c_conf.periph = I2CHandle::Config::Peripheral::I2C_1;
 169              		.loc 1 40 21 view .LVU30
 170 0004 0023     		movs	r3, #0
 171              		.loc 1 43 29 view .LVU31
 172 0006 1188     		ldrh	r1, [r2]
  44:mpu6050.cpp   ****     i2c_conf.pin_config.sda = seed::D12;
 173              		.loc 1 44 29 view .LVU32
 174 0008 9288     		ldrh	r2, [r2, #4]
  37:mpu6050.cpp   ****     // Configure I2C for MPU6050
 175              		.loc 1 37 20 view .LVU33
 176 000a F0B5     		push	{r4, r5, r6, r7, lr}
 177              		.cfi_def_cfa_offset 20
 178              		.cfi_offset 4, -20
 179              		.cfi_offset 5, -16
 180              		.cfi_offset 6, -12
 181              		.cfi_offset 7, -8
 182              		.cfi_offset 14, -4
 183 000c 89B0     		sub	sp, sp, #36
 184              		.cfi_def_cfa_offset 56
 185              	.LVL11:
 186              	.LBB32:
 187              	.LBI29:
 188              		.loc 2 28 12 is_stmt 1 view .LVU34
 189              	.LBE32:
  42:mpu6050.cpp   ****     i2c_conf.pin_config.scl = seed::D11;
 190              		.loc 1 42 20 is_stmt 0 view .LVU35
 191 000e 0125     		movs	r5, #1
 192              	.LBB33:
 193              	.LBB31:
 194              		.loc 2 28 12 view .LVU36
 195 0010 8DF81C00 		strb	r0, [sp, #28]
 196              	.LVL12:
 197              		.loc 2 28 12 view .LVU37
 198              	.LBE31:
 199              	.LBE33:
  40:mpu6050.cpp   ****     i2c_conf.mode = I2CHandle::Config::Mode::I2C_MASTER;
 200              		.loc 1 40 5 is_stmt 1 view .LVU38
  43:mpu6050.cpp   ****     i2c_conf.pin_config.sda = seed::D12;
 201              		.loc 1 43 29 is_stmt 0 view .LVU39
 202 0014 ADF81010 		strh	r1, [sp, #16]	@ movhi
  45:mpu6050.cpp   ****     
  46:mpu6050.cpp   ****     // Initialize I2C
  47:mpu6050.cpp   ****     if (i2c.Init(i2c_conf) != I2CHandle::Result::OK) {
 203              		.loc 1 47 17 view .LVU40
 204 0018 03A9     		add	r1, sp, #12
ARM GAS  /var/folders/6w/sx7v0gy94nj4l80r62zsklwh0000gn/T//ccLZtz7E.s 			page 6


 205 001a 2848     		ldr	r0, .L14+4
  40:mpu6050.cpp   ****     i2c_conf.mode = I2CHandle::Config::Mode::I2C_MASTER;
 206              		.loc 1 40 21 view .LVU41
 207 001c 0393     		str	r3, [sp, #12]
  41:mpu6050.cpp   ****     i2c_conf.speed = I2CHandle::Config::Speed::I2C_400KHZ;
 208              		.loc 1 41 5 is_stmt 1 view .LVU42
  44:mpu6050.cpp   ****     
 209              		.loc 1 44 29 is_stmt 0 view .LVU43
 210 001e ADF81220 		strh	r2, [sp, #18]	@ movhi
  42:mpu6050.cpp   ****     i2c_conf.pin_config.scl = seed::D11;
 211              		.loc 1 42 20 view .LVU44
 212 0022 CDE90553 		strd	r5, r3, [sp, #20]
  43:mpu6050.cpp   ****     i2c_conf.pin_config.sda = seed::D12;
 213              		.loc 1 43 5 is_stmt 1 view .LVU45
  44:mpu6050.cpp   ****     
 214              		.loc 1 44 5 view .LVU46
 215              		.loc 1 47 5 view .LVU47
 216              		.loc 1 47 17 is_stmt 0 view .LVU48
 217 0026 FFF7FEFF 		bl	_ZN5daisy9I2CHandle4InitERKNS0_6ConfigE
 218              	.LVL13:
 219              		.loc 1 47 5 view .LVU49
 220 002a 18B1     		cbz	r0, .L11
 221              	.L12:
  48:mpu6050.cpp   ****         // I2C initialization failed - handle error
  49:mpu6050.cpp   ****         while(1) System::Delay(100);
 222              		.loc 1 49 9 is_stmt 1 discriminator 1 view .LVU50
 223              		.loc 1 49 18 discriminator 1 view .LVU51
 224              		.loc 1 49 31 is_stmt 0 discriminator 1 view .LVU52
 225 002c 6420     		movs	r0, #100
 226 002e FFF7FEFF 		bl	_ZN5daisy6System5DelayEm
 227              	.LVL14:
 228              		.loc 1 49 9 is_stmt 1 discriminator 1 view .LVU53
 229 0032 FBE7     		b	.L12
 230              	.L11:
 231              	.LBB34:
 232              	.LBB35:
  29:mpu6050.cpp   **** }
 233              		.loc 1 29 25 is_stmt 0 view .LVU54
 234 0034 6426     		movs	r6, #100
 235 0036 0446     		mov	r4, r0
 236              	.LBE35:
 237              	.LBE34:
  50:mpu6050.cpp   ****     }
  51:mpu6050.cpp   ****     
  52:mpu6050.cpp   ****     System::Delay(100); // Give sensor time to boot
 238              		.loc 1 52 5 is_stmt 1 view .LVU55
 239              	.LBB38:
 240              	.LBB36:
  28:mpu6050.cpp   ****     i2c.TransmitBlocking(MPU6050_ADDRESS, buffer, 2, 100);
 241              		.loc 1 28 36 is_stmt 0 view .LVU56
 242 0038 6B27     		movs	r7, #107
 243              	.LBE36:
 244              	.LBE38:
 245              		.loc 1 52 18 view .LVU57
 246 003a 3046     		mov	r0, r6
 247 003c FFF7FEFF 		bl	_ZN5daisy6System5DelayEm
 248              	.LVL15:
ARM GAS  /var/folders/6w/sx7v0gy94nj4l80r62zsklwh0000gn/T//ccLZtz7E.s 			page 7


  53:mpu6050.cpp   ****     
  54:mpu6050.cpp   ****     // Wake up MPU6050 (it starts in sleep mode)
  55:mpu6050.cpp   ****     WriteMPU6050Register(MPU6050_PWR_MGMT_1, 0x00);
 249              		.loc 1 55 5 is_stmt 1 view .LVU58
 250              	.LBB39:
 251              	.LBI34:
  27:mpu6050.cpp   ****     uint8_t buffer[2] = {reg, value};
 252              		.loc 1 27 6 view .LVU59
 253              	.LBB37:
  28:mpu6050.cpp   ****     i2c.TransmitBlocking(MPU6050_ADDRESS, buffer, 2, 100);
 254              		.loc 1 28 5 view .LVU60
  29:mpu6050.cpp   **** }
 255              		.loc 1 29 25 is_stmt 0 view .LVU61
 256 0040 02AA     		add	r2, sp, #8
 257 0042 0223     		movs	r3, #2
 258 0044 6821     		movs	r1, #104
 259 0046 0096     		str	r6, [sp]
 260 0048 1C48     		ldr	r0, .L14+4
  28:mpu6050.cpp   ****     i2c.TransmitBlocking(MPU6050_ADDRESS, buffer, 2, 100);
 261              		.loc 1 28 36 view .LVU62
 262 004a 8DF80940 		strb	r4, [sp, #9]
  29:mpu6050.cpp   **** }
 263              		.loc 1 29 5 is_stmt 1 view .LVU63
  28:mpu6050.cpp   ****     i2c.TransmitBlocking(MPU6050_ADDRESS, buffer, 2, 100);
 264              		.loc 1 28 36 is_stmt 0 view .LVU64
 265 004e 8DF80870 		strb	r7, [sp, #8]
  29:mpu6050.cpp   **** }
 266              		.loc 1 29 25 view .LVU65
 267 0052 FFF7FEFF 		bl	_ZN5daisy9I2CHandle16TransmitBlockingEtPhtm
 268              	.LVL16:
  29:mpu6050.cpp   **** }
 269              		.loc 1 29 25 view .LVU66
 270              	.LBE37:
 271              	.LBE39:
  56:mpu6050.cpp   ****     System::Delay(100);
 272              		.loc 1 56 5 is_stmt 1 view .LVU67
 273              		.loc 1 56 18 is_stmt 0 view .LVU68
 274 0056 3046     		mov	r0, r6
 275 0058 FFF7FEFF 		bl	_ZN5daisy6System5DelayEm
 276              	.LVL17:
  57:mpu6050.cpp   ****     
  58:mpu6050.cpp   ****     // Set clock source to PLL with X-axis gyroscope reference (more stable)
  59:mpu6050.cpp   ****     WriteMPU6050Register(MPU6050_PWR_MGMT_1, 0x01);
 277              		.loc 1 59 5 is_stmt 1 view .LVU69
 278              	.LBB40:
 279              	.LBI40:
  27:mpu6050.cpp   ****     uint8_t buffer[2] = {reg, value};
 280              		.loc 1 27 6 view .LVU70
 281              	.LBB41:
  28:mpu6050.cpp   ****     i2c.TransmitBlocking(MPU6050_ADDRESS, buffer, 2, 100);
 282              		.loc 1 28 5 view .LVU71
  29:mpu6050.cpp   **** }
 283              		.loc 1 29 25 is_stmt 0 view .LVU72
 284 005c 02AA     		add	r2, sp, #8
 285 005e 0223     		movs	r3, #2
 286 0060 6821     		movs	r1, #104
 287 0062 0096     		str	r6, [sp]
ARM GAS  /var/folders/6w/sx7v0gy94nj4l80r62zsklwh0000gn/T//ccLZtz7E.s 			page 8


 288 0064 1548     		ldr	r0, .L14+4
  28:mpu6050.cpp   ****     i2c.TransmitBlocking(MPU6050_ADDRESS, buffer, 2, 100);
 289              		.loc 1 28 36 view .LVU73
 290 0066 8DF80870 		strb	r7, [sp, #8]
 291 006a 8DF80950 		strb	r5, [sp, #9]
  29:mpu6050.cpp   **** }
 292              		.loc 1 29 5 is_stmt 1 view .LVU74
  29:mpu6050.cpp   **** }
 293              		.loc 1 29 25 is_stmt 0 view .LVU75
 294 006e FFF7FEFF 		bl	_ZN5daisy9I2CHandle16TransmitBlockingEtPhtm
 295              	.LVL18:
  29:mpu6050.cpp   **** }
 296              		.loc 1 29 25 view .LVU76
 297              	.LBE41:
 298              	.LBE40:
  60:mpu6050.cpp   ****     System::Delay(10);
 299              		.loc 1 60 5 is_stmt 1 view .LVU77
 300              		.loc 1 60 18 is_stmt 0 view .LVU78
 301 0072 0A20     		movs	r0, #10
 302 0074 FFF7FEFF 		bl	_ZN5daisy6System5DelayEm
 303              	.LVL19:
  61:mpu6050.cpp   ****     
  62:mpu6050.cpp   ****     // Configure Gyroscope (±250°/s range)
  63:mpu6050.cpp   ****     WriteMPU6050Register(MPU6050_GYRO_CONFIG, 0x00);
 304              		.loc 1 63 5 is_stmt 1 view .LVU79
 305              	.LBB42:
 306              	.LBI42:
  27:mpu6050.cpp   ****     uint8_t buffer[2] = {reg, value};
 307              		.loc 1 27 6 view .LVU80
 308              	.LBB43:
  28:mpu6050.cpp   ****     i2c.TransmitBlocking(MPU6050_ADDRESS, buffer, 2, 100);
 309              		.loc 1 28 5 view .LVU81
  28:mpu6050.cpp   ****     i2c.TransmitBlocking(MPU6050_ADDRESS, buffer, 2, 100);
 310              		.loc 1 28 36 is_stmt 0 view .LVU82
 311 0078 1B22     		movs	r2, #27
  29:mpu6050.cpp   **** }
 312              		.loc 1 29 25 view .LVU83
 313 007a 0223     		movs	r3, #2
 314 007c 6821     		movs	r1, #104
  28:mpu6050.cpp   ****     i2c.TransmitBlocking(MPU6050_ADDRESS, buffer, 2, 100);
 315              		.loc 1 28 36 view .LVU84
 316 007e 8DF80820 		strb	r2, [sp, #8]
  29:mpu6050.cpp   **** }
 317              		.loc 1 29 25 view .LVU85
 318 0082 02AA     		add	r2, sp, #8
 319 0084 0096     		str	r6, [sp]
 320 0086 0D48     		ldr	r0, .L14+4
  28:mpu6050.cpp   ****     i2c.TransmitBlocking(MPU6050_ADDRESS, buffer, 2, 100);
 321              		.loc 1 28 36 view .LVU86
 322 0088 8DF80940 		strb	r4, [sp, #9]
  29:mpu6050.cpp   **** }
 323              		.loc 1 29 5 is_stmt 1 view .LVU87
  29:mpu6050.cpp   **** }
 324              		.loc 1 29 25 is_stmt 0 view .LVU88
 325 008c FFF7FEFF 		bl	_ZN5daisy9I2CHandle16TransmitBlockingEtPhtm
 326              	.LVL20:
  29:mpu6050.cpp   **** }
ARM GAS  /var/folders/6w/sx7v0gy94nj4l80r62zsklwh0000gn/T//ccLZtz7E.s 			page 9


 327              		.loc 1 29 25 view .LVU89
 328              	.LBE43:
 329              	.LBE42:
  64:mpu6050.cpp   ****     System::Delay(10);
 330              		.loc 1 64 5 is_stmt 1 view .LVU90
 331              		.loc 1 64 18 is_stmt 0 view .LVU91
 332 0090 0A20     		movs	r0, #10
 333 0092 FFF7FEFF 		bl	_ZN5daisy6System5DelayEm
 334              	.LVL21:
  65:mpu6050.cpp   ****     
  66:mpu6050.cpp   ****     // Configure Accelerometer (±2g range)
  67:mpu6050.cpp   ****     WriteMPU6050Register(MPU6050_ACCEL_CONFIG, 0x00);
 335              		.loc 1 67 5 is_stmt 1 view .LVU92
 336              	.LBB44:
 337              	.LBI44:
  27:mpu6050.cpp   ****     uint8_t buffer[2] = {reg, value};
 338              		.loc 1 27 6 view .LVU93
 339              	.LBB45:
  28:mpu6050.cpp   ****     i2c.TransmitBlocking(MPU6050_ADDRESS, buffer, 2, 100);
 340              		.loc 1 28 5 view .LVU94
  28:mpu6050.cpp   ****     i2c.TransmitBlocking(MPU6050_ADDRESS, buffer, 2, 100);
 341              		.loc 1 28 36 is_stmt 0 view .LVU95
 342 0096 1C21     		movs	r1, #28
  29:mpu6050.cpp   **** }
 343              		.loc 1 29 25 view .LVU96
 344 0098 0223     		movs	r3, #2
 345 009a 02AA     		add	r2, sp, #8
  28:mpu6050.cpp   ****     i2c.TransmitBlocking(MPU6050_ADDRESS, buffer, 2, 100);
 346              		.loc 1 28 36 view .LVU97
 347 009c 8DF80810 		strb	r1, [sp, #8]
  29:mpu6050.cpp   **** }
 348              		.loc 1 29 25 view .LVU98
 349 00a0 6821     		movs	r1, #104
 350 00a2 0096     		str	r6, [sp]
 351 00a4 0548     		ldr	r0, .L14+4
  28:mpu6050.cpp   ****     i2c.TransmitBlocking(MPU6050_ADDRESS, buffer, 2, 100);
 352              		.loc 1 28 36 view .LVU99
 353 00a6 8DF80940 		strb	r4, [sp, #9]
  29:mpu6050.cpp   **** }
 354              		.loc 1 29 5 is_stmt 1 view .LVU100
  29:mpu6050.cpp   **** }
 355              		.loc 1 29 25 is_stmt 0 view .LVU101
 356 00aa FFF7FEFF 		bl	_ZN5daisy9I2CHandle16TransmitBlockingEtPhtm
 357              	.LVL22:
  29:mpu6050.cpp   **** }
 358              		.loc 1 29 25 view .LVU102
 359              	.LBE45:
 360              	.LBE44:
  68:mpu6050.cpp   ****     System::Delay(10);
 361              		.loc 1 68 5 is_stmt 1 view .LVU103
 362              		.loc 1 68 18 is_stmt 0 view .LVU104
 363 00ae 0A20     		movs	r0, #10
 364 00b0 FFF7FEFF 		bl	_ZN5daisy6System5DelayEm
 365              	.LVL23:
  69:mpu6050.cpp   **** }
 366              		.loc 1 69 1 view .LVU105
 367 00b4 09B0     		add	sp, sp, #36
ARM GAS  /var/folders/6w/sx7v0gy94nj4l80r62zsklwh0000gn/T//ccLZtz7E.s 			page 10


 368              		.cfi_def_cfa_offset 20
 369              		@ sp needed
 370 00b6 F0BD     		pop	{r4, r5, r6, r7, pc}
 371              	.L15:
 372              		.align	2
 373              	.L14:
 374 00b8 00000000 		.word	.LANCHOR1
 375 00bc 00000000 		.word	.LANCHOR0
 376              		.cfi_endproc
 377              	.LFE4684:
 379              		.section	.text._Z14ReadSensorDatav,"ax",%progbits
 380              		.align	1
 381              		.p2align 2,,3
 382              		.global	_Z14ReadSensorDatav
 383              		.syntax unified
 384              		.thumb
 385              		.thumb_func
 387              	_Z14ReadSensorDatav:
 388              	.LVL24:
 389              	.LFB4685:
  70:mpu6050.cpp   **** 
  71:mpu6050.cpp   **** SensorData ReadSensorData() {
 390              		.loc 1 71 29 is_stmt 1 view -0
 391              		.cfi_startproc
 392              		@ args = 0, pretend = 0, frame = 24
 393              		@ frame_needed = 0, uses_anonymous_args = 0
  72:mpu6050.cpp   ****     uint8_t buffer[14];
 394              		.loc 1 72 5 view .LVU107
  73:mpu6050.cpp   ****     
  74:mpu6050.cpp   ****     // Read all 14 bytes starting from ACCEL_XOUT_H
  75:mpu6050.cpp   ****     // This reads: ACCEL_X, ACCEL_Y, ACCEL_Z, TEMP, GYRO_X, GYRO_Y, GYRO_Z
  76:mpu6050.cpp   ****     ReadMPU6050Register(MPU6050_ACCEL_XOUT_H, buffer, 14);
 395              		.loc 1 76 5 view .LVU108
  71:mpu6050.cpp   ****     uint8_t buffer[14];
 396              		.loc 1 71 29 is_stmt 0 view .LVU109
 397 0000 30B5     		push	{r4, r5, lr}
 398              		.cfi_def_cfa_offset 12
 399              		.cfi_offset 4, -12
 400              		.cfi_offset 5, -8
 401              		.cfi_offset 14, -4
 402 0002 3B21     		movs	r1, #59
 403              	.LBB54:
 404              	.LBB55:
  33:mpu6050.cpp   ****     i2c.ReceiveBlocking(MPU6050_ADDRESS, arr, size, 100);
 405              		.loc 1 33 25 view .LVU110
 406 0004 6425     		movs	r5, #100
 407              	.LBE55:
 408              	.LBE54:
  71:mpu6050.cpp   ****     uint8_t buffer[14];
 409              		.loc 1 71 29 view .LVU111
 410 0006 0446     		mov	r4, r0
 411              	.LBB59:
 412              	.LBB56:
  33:mpu6050.cpp   ****     i2c.ReceiveBlocking(MPU6050_ADDRESS, arr, size, 100);
 413              		.loc 1 33 25 view .LVU112
 414 0008 0123     		movs	r3, #1
 415 000a 5548     		ldr	r0, .L23+8
ARM GAS  /var/folders/6w/sx7v0gy94nj4l80r62zsklwh0000gn/T//ccLZtz7E.s 			page 11


 416              	.LVL25:
  33:mpu6050.cpp   ****     i2c.ReceiveBlocking(MPU6050_ADDRESS, arr, size, 100);
 417              		.loc 1 33 25 view .LVU113
 418              	.LBE56:
 419              	.LBE59:
  71:mpu6050.cpp   ****     uint8_t buffer[14];
 420              		.loc 1 71 29 view .LVU114
 421 000c 2DED048B 		vpush.64	{d8, d9}
 422              		.cfi_def_cfa_offset 28
 423              		.cfi_offset 80, -28
 424              		.cfi_offset 81, -24
 425              		.cfi_offset 82, -20
 426              		.cfi_offset 83, -16
 427 0010 89B0     		sub	sp, sp, #36
 428              		.cfi_def_cfa_offset 64
 429              	.LBB60:
 430              	.LBB57:
  33:mpu6050.cpp   ****     i2c.ReceiveBlocking(MPU6050_ADDRESS, arr, size, 100);
 431              		.loc 1 33 25 view .LVU115
 432 0012 0DF10F02 		add	r2, sp, #15
 433 0016 8DF80F10 		strb	r1, [sp, #15]
 434              	.LVL26:
  33:mpu6050.cpp   ****     i2c.ReceiveBlocking(MPU6050_ADDRESS, arr, size, 100);
 435              		.loc 1 33 25 view .LVU116
 436              	.LBE57:
 437              	.LBI54:
  32:mpu6050.cpp   ****     i2c.TransmitBlocking(MPU6050_ADDRESS, &reg, 1, 100);
 438              		.loc 1 32 6 is_stmt 1 view .LVU117
 439              	.LBB58:
  33:mpu6050.cpp   ****     i2c.ReceiveBlocking(MPU6050_ADDRESS, arr, size, 100);
 440              		.loc 1 33 5 view .LVU118
  33:mpu6050.cpp   ****     i2c.ReceiveBlocking(MPU6050_ADDRESS, arr, size, 100);
 441              		.loc 1 33 25 is_stmt 0 view .LVU119
 442 001a 0095     		str	r5, [sp]
 443 001c 6821     		movs	r1, #104
 444              	.LVL27:
  33:mpu6050.cpp   ****     i2c.ReceiveBlocking(MPU6050_ADDRESS, arr, size, 100);
 445              		.loc 1 33 25 view .LVU120
 446 001e FFF7FEFF 		bl	_ZN5daisy9I2CHandle16TransmitBlockingEtPhtm
 447              	.LVL28:
  34:mpu6050.cpp   **** }
 448              		.loc 1 34 5 is_stmt 1 view .LVU121
  34:mpu6050.cpp   **** }
 449              		.loc 1 34 24 is_stmt 0 view .LVU122
 450 0022 0E23     		movs	r3, #14
 451 0024 04AA     		add	r2, sp, #16
 452              	.LVL29:
  34:mpu6050.cpp   **** }
 453              		.loc 1 34 24 view .LVU123
 454 0026 6821     		movs	r1, #104
 455 0028 4D48     		ldr	r0, .L23+8
 456 002a 0095     		str	r5, [sp]
 457 002c FFF7FEFF 		bl	_ZN5daisy9I2CHandle15ReceiveBlockingEtPhtm
 458              	.LVL30:
  34:mpu6050.cpp   **** }
 459              		.loc 1 34 24 view .LVU124
 460              	.LBE58:
ARM GAS  /var/folders/6w/sx7v0gy94nj4l80r62zsklwh0000gn/T//ccLZtz7E.s 			page 12


 461              	.LBE60:
  77:mpu6050.cpp   ****     
  78:mpu6050.cpp   ****     SensorData data;
 462              		.loc 1 78 5 is_stmt 1 view .LVU125
  79:mpu6050.cpp   ****     
  80:mpu6050.cpp   ****     // Parse raw values (big-endian format)
  81:mpu6050.cpp   ****     data.accel_x = (int16_t)((buffer[0] << 8) | buffer[1]);
 463              		.loc 1 81 5 view .LVU126
 464 0030 BDF81800 		ldrh	r0, [sp, #24]
 465 0034 BDF81020 		ldrh	r2, [sp, #16]
 466 0038 40BA     		rev16	r0, r0
  82:mpu6050.cpp   ****     data.accel_y = (int16_t)((buffer[2] << 8) | buffer[3]);
  83:mpu6050.cpp   ****     data.accel_z = (int16_t)((buffer[4] << 8) | buffer[5]);
  84:mpu6050.cpp   ****     // buffer[6-7] is temperature (we're skipping it)
  85:mpu6050.cpp   ****     data.gyro_x = (int16_t)((buffer[8] << 8) | buffer[9]);
  86:mpu6050.cpp   ****     data.gyro_y = (int16_t)((buffer[10] << 8) | buffer[11]);
  87:mpu6050.cpp   ****     data.gyro_z = (int16_t)((buffer[12] << 8) | buffer[13]);
  88:mpu6050.cpp   ****     
  89:mpu6050.cpp   ****     // Convert to physical units
  90:mpu6050.cpp   ****     data.accel_x_g = data.accel_x / ACCEL_SENSITIVITY;
  91:mpu6050.cpp   ****     data.accel_y_g = data.accel_y / ACCEL_SENSITIVITY;
  92:mpu6050.cpp   ****     data.accel_z_g = data.accel_z / ACCEL_SENSITIVITY;
  93:mpu6050.cpp   ****     
  94:mpu6050.cpp   ****     data.gyro_x_dps = data.gyro_x / GYRO_SENSITIVITY;
 467              		.loc 1 94 35 is_stmt 0 view .LVU127
 468 003a DFED4A6A 		vldr.32	s13, .L23+12
 469 003e BDF81430 		ldrh	r3, [sp, #20]
 470 0042 52BA     		rev16	r2, r2
  85:mpu6050.cpp   ****     data.gyro_y = (int16_t)((buffer[10] << 8) | buffer[11]);
 471              		.loc 1 85 17 view .LVU128
 472 0044 E080     		strh	r0, [r4, #6]	@ movhi
 473 0046 00B2     		sxth	r0, r0
 474 0048 5BBA     		rev16	r3, r3
  81:mpu6050.cpp   ****     data.accel_y = (int16_t)((buffer[2] << 8) | buffer[3]);
 475              		.loc 1 81 18 view .LVU129
 476 004a 2280     		strh	r2, [r4]	@ movhi
  82:mpu6050.cpp   ****     data.accel_y = (int16_t)((buffer[2] << 8) | buffer[3]);
 477              		.loc 1 82 5 is_stmt 1 view .LVU130
  83:mpu6050.cpp   ****     // buffer[6-7] is temperature (we're skipping it)
 478              		.loc 1 83 5 view .LVU131
 479              		.loc 1 94 35 is_stmt 0 view .LVU132
 480 004c 07EE100A 		vmov	s14, r0	@ int
 481 0050 12B2     		sxth	r2, r2
 482 0052 BDF81210 		ldrh	r1, [sp, #18]
 483 0056 B8EEC77A 		vcvt.f32.s32	s14, s14
 484 005a 07EE902A 		vmov	s15, r2	@ int
  83:mpu6050.cpp   ****     // buffer[6-7] is temperature (we're skipping it)
 485              		.loc 1 83 18 view .LVU133
 486 005e A380     		strh	r3, [r4, #4]	@ movhi
  85:mpu6050.cpp   ****     data.gyro_y = (int16_t)((buffer[10] << 8) | buffer[11]);
 487              		.loc 1 85 5 is_stmt 1 view .LVU134
  86:mpu6050.cpp   ****     data.gyro_z = (int16_t)((buffer[12] << 8) | buffer[13]);
 488              		.loc 1 86 5 view .LVU135
 489 0060 1BB2     		sxth	r3, r3
 490 0062 49BA     		rev16	r1, r1
 491 0064 BDF81A20 		ldrh	r2, [sp, #26]
 492              		.loc 1 94 35 is_stmt 0 view .LVU136
ARM GAS  /var/folders/6w/sx7v0gy94nj4l80r62zsklwh0000gn/T//ccLZtz7E.s 			page 13


 493 0068 87EE266A 		vdiv.f32	s12, s14, s13
 494 006c 08EE103A 		vmov	s16, r3	@ int
 495 0070 BDF81C30 		ldrh	r3, [sp, #28]
 496 0074 52BA     		rev16	r2, r2
  90:mpu6050.cpp   ****     data.accel_y_g = data.accel_y / ACCEL_SENSITIVITY;
 497              		.loc 1 90 35 view .LVU137
 498 0076 DFED3C0A 		vldr.32	s1, .L23+16
 499 007a 5BBA     		rev16	r3, r3
  82:mpu6050.cpp   ****     data.accel_z = (int16_t)((buffer[4] << 8) | buffer[5]);
 500              		.loc 1 82 18 view .LVU138
 501 007c 6180     		strh	r1, [r4, #2]	@ movhi
 502 007e 09B2     		sxth	r1, r1
  86:mpu6050.cpp   ****     data.gyro_z = (int16_t)((buffer[12] << 8) | buffer[13]);
 503              		.loc 1 86 17 view .LVU139
 504 0080 2281     		strh	r2, [r4, #8]	@ movhi
  87:mpu6050.cpp   ****     
 505              		.loc 1 87 5 is_stmt 1 view .LVU140
  90:mpu6050.cpp   ****     data.accel_y_g = data.accel_y / ACCEL_SENSITIVITY;
 506              		.loc 1 90 35 is_stmt 0 view .LVU141
 507 0082 F8EEE77A 		vcvt.f32.s32	s15, s15
  87:mpu6050.cpp   ****     
 508              		.loc 1 87 17 view .LVU142
 509 0086 6381     		strh	r3, [r4, #10]	@ movhi
  90:mpu6050.cpp   ****     data.accel_y_g = data.accel_y / ACCEL_SENSITIVITY;
 510              		.loc 1 90 5 is_stmt 1 view .LVU143
  91:mpu6050.cpp   ****     data.accel_z_g = data.accel_z / ACCEL_SENSITIVITY;
 511              		.loc 1 91 5 view .LVU144
  92:mpu6050.cpp   ****     
 512              		.loc 1 92 5 view .LVU145
 513              		.loc 1 94 5 view .LVU146
  95:mpu6050.cpp   ****     data.gyro_y_dps = data.gyro_y / GYRO_SENSITIVITY;
 514              		.loc 1 95 5 view .LVU147
 515 0088 09EE101A 		vmov	s18, r1	@ int
 516 008c 11B2     		sxth	r1, r2
 517 008e 1AB2     		sxth	r2, r3
  92:mpu6050.cpp   ****     
 518              		.loc 1 92 35 is_stmt 0 view .LVU148
 519 0090 B8EEC88A 		vcvt.f32.s32	s16, s16
  90:mpu6050.cpp   ****     data.accel_y_g = data.accel_y / ACCEL_SENSITIVITY;
 520              		.loc 1 90 35 view .LVU149
 521 0094 67EEA07A 		vmul.f32	s15, s15, s1
 522 0098 07EE101A 		vmov	s14, r1	@ int
  91:mpu6050.cpp   ****     data.accel_z_g = data.accel_z / ACCEL_SENSITIVITY;
 523              		.loc 1 91 35 view .LVU150
 524 009c B8EEC99A 		vcvt.f32.s32	s18, s18
 525              		.loc 1 95 35 view .LVU151
 526 00a0 B8EEC77A 		vcvt.f32.s32	s14, s14
  90:mpu6050.cpp   ****     data.accel_y_g = data.accel_y / ACCEL_SENSITIVITY;
 527              		.loc 1 90 20 view .LVU152
 528 00a4 C4ED037A 		vstr.32	s15, [r4, #12]
  96:mpu6050.cpp   ****     data.gyro_z_dps = data.gyro_z / GYRO_SENSITIVITY;
  97:mpu6050.cpp   ****     
  98:mpu6050.cpp   ****     // Calculate roll and pitch from accelerometer
  99:mpu6050.cpp   ****     // Note: These are static angles, not from sensor fusion like BNO055
 100:mpu6050.cpp   ****     // Roll (rotation around X-axis)
 101:mpu6050.cpp   ****     data.roll = atan2(data.accel_y_g, data.accel_z_g) * 180.0f / M_PI;
 102:mpu6050.cpp   ****     
ARM GAS  /var/folders/6w/sx7v0gy94nj4l80r62zsklwh0000gn/T//ccLZtz7E.s 			page 14


 103:mpu6050.cpp   ****     // Pitch (rotation around Y-axis)
 104:mpu6050.cpp   ****     data.pitch = atan2(-data.accel_x_g, sqrt(data.accel_y_g * data.accel_y_g + 
 529              		.loc 1 104 23 view .LVU153
 530 00a8 F1EE678A 		vneg.f32	s17, s15
 531 00ac 07EE902A 		vmov	s15, r2	@ int
  91:mpu6050.cpp   ****     data.accel_z_g = data.accel_z / ACCEL_SENSITIVITY;
 532              		.loc 1 91 35 view .LVU154
 533 00b0 29EE209A 		vmul.f32	s18, s18, s1
  92:mpu6050.cpp   ****     
 534              		.loc 1 92 35 view .LVU155
 535 00b4 28EE208A 		vmul.f32	s16, s16, s1
  96:mpu6050.cpp   ****     data.gyro_z_dps = data.gyro_z / GYRO_SENSITIVITY;
 536              		.loc 1 96 35 view .LVU156
 537 00b8 F8EEE77A 		vcvt.f32.s32	s15, s15
 538              	.LBB61:
 539              	.LBB62:
 540              		.file 3 "/Library/DaisyToolchain/0.2.0/arm/arm-none-eabi/include/c++/10.3.1/cmath"
   1:/Library/DaisyToolchain/0.2.0/arm/arm-none-eabi/include/c++/10.3.1/cmath **** // -*- C++ -*- C forwarding header.
   2:/Library/DaisyToolchain/0.2.0/arm/arm-none-eabi/include/c++/10.3.1/cmath **** 
   3:/Library/DaisyToolchain/0.2.0/arm/arm-none-eabi/include/c++/10.3.1/cmath **** // Copyright (C) 1997-2020 Free Software Foundation, Inc.
   4:/Library/DaisyToolchain/0.2.0/arm/arm-none-eabi/include/c++/10.3.1/cmath **** //
   5:/Library/DaisyToolchain/0.2.0/arm/arm-none-eabi/include/c++/10.3.1/cmath **** // This file is part of the GNU ISO C++ Library.  This library is free
   6:/Library/DaisyToolchain/0.2.0/arm/arm-none-eabi/include/c++/10.3.1/cmath **** // software; you can redistribute it and/or modify it under the
   7:/Library/DaisyToolchain/0.2.0/arm/arm-none-eabi/include/c++/10.3.1/cmath **** // terms of the GNU General Public License as published by the
   8:/Library/DaisyToolchain/0.2.0/arm/arm-none-eabi/include/c++/10.3.1/cmath **** // Free Software Foundation; either version 3, or (at your option)
   9:/Library/DaisyToolchain/0.2.0/arm/arm-none-eabi/include/c++/10.3.1/cmath **** // any later version.
  10:/Library/DaisyToolchain/0.2.0/arm/arm-none-eabi/include/c++/10.3.1/cmath **** 
  11:/Library/DaisyToolchain/0.2.0/arm/arm-none-eabi/include/c++/10.3.1/cmath **** // This library is distributed in the hope that it will be useful,
  12:/Library/DaisyToolchain/0.2.0/arm/arm-none-eabi/include/c++/10.3.1/cmath **** // but WITHOUT ANY WARRANTY; without even the implied warranty of
  13:/Library/DaisyToolchain/0.2.0/arm/arm-none-eabi/include/c++/10.3.1/cmath **** // MERCHANTABILITY or FITNESS FOR A PARTICULAR PURPOSE.  See the
  14:/Library/DaisyToolchain/0.2.0/arm/arm-none-eabi/include/c++/10.3.1/cmath **** // GNU General Public License for more details.
  15:/Library/DaisyToolchain/0.2.0/arm/arm-none-eabi/include/c++/10.3.1/cmath **** 
  16:/Library/DaisyToolchain/0.2.0/arm/arm-none-eabi/include/c++/10.3.1/cmath **** // Under Section 7 of GPL version 3, you are granted additional
  17:/Library/DaisyToolchain/0.2.0/arm/arm-none-eabi/include/c++/10.3.1/cmath **** // permissions described in the GCC Runtime Library Exception, version
  18:/Library/DaisyToolchain/0.2.0/arm/arm-none-eabi/include/c++/10.3.1/cmath **** // 3.1, as published by the Free Software Foundation.
  19:/Library/DaisyToolchain/0.2.0/arm/arm-none-eabi/include/c++/10.3.1/cmath **** 
  20:/Library/DaisyToolchain/0.2.0/arm/arm-none-eabi/include/c++/10.3.1/cmath **** // You should have received a copy of the GNU General Public License and
  21:/Library/DaisyToolchain/0.2.0/arm/arm-none-eabi/include/c++/10.3.1/cmath **** // a copy of the GCC Runtime Library Exception along with this program;
  22:/Library/DaisyToolchain/0.2.0/arm/arm-none-eabi/include/c++/10.3.1/cmath **** // see the files COPYING3 and COPYING.RUNTIME respectively.  If not, see
  23:/Library/DaisyToolchain/0.2.0/arm/arm-none-eabi/include/c++/10.3.1/cmath **** // <http://www.gnu.org/licenses/>.
  24:/Library/DaisyToolchain/0.2.0/arm/arm-none-eabi/include/c++/10.3.1/cmath **** 
  25:/Library/DaisyToolchain/0.2.0/arm/arm-none-eabi/include/c++/10.3.1/cmath **** /** @file include/cmath
  26:/Library/DaisyToolchain/0.2.0/arm/arm-none-eabi/include/c++/10.3.1/cmath ****  *  This is a Standard C++ Library file.  You should @c \#include this file
  27:/Library/DaisyToolchain/0.2.0/arm/arm-none-eabi/include/c++/10.3.1/cmath ****  *  in your programs, rather than any of the @a *.h implementation files.
  28:/Library/DaisyToolchain/0.2.0/arm/arm-none-eabi/include/c++/10.3.1/cmath ****  *
  29:/Library/DaisyToolchain/0.2.0/arm/arm-none-eabi/include/c++/10.3.1/cmath ****  *  This is the C++ version of the Standard C Library header @c math.h,
  30:/Library/DaisyToolchain/0.2.0/arm/arm-none-eabi/include/c++/10.3.1/cmath ****  *  and its contents are (mostly) the same as that header, but are all
  31:/Library/DaisyToolchain/0.2.0/arm/arm-none-eabi/include/c++/10.3.1/cmath ****  *  contained in the namespace @c std (except for names which are defined
  32:/Library/DaisyToolchain/0.2.0/arm/arm-none-eabi/include/c++/10.3.1/cmath ****  *  as macros in C).
  33:/Library/DaisyToolchain/0.2.0/arm/arm-none-eabi/include/c++/10.3.1/cmath ****  */
  34:/Library/DaisyToolchain/0.2.0/arm/arm-none-eabi/include/c++/10.3.1/cmath **** 
  35:/Library/DaisyToolchain/0.2.0/arm/arm-none-eabi/include/c++/10.3.1/cmath **** //
  36:/Library/DaisyToolchain/0.2.0/arm/arm-none-eabi/include/c++/10.3.1/cmath **** // ISO C++ 14882: 26.5  C library
  37:/Library/DaisyToolchain/0.2.0/arm/arm-none-eabi/include/c++/10.3.1/cmath **** //
  38:/Library/DaisyToolchain/0.2.0/arm/arm-none-eabi/include/c++/10.3.1/cmath **** 
  39:/Library/DaisyToolchain/0.2.0/arm/arm-none-eabi/include/c++/10.3.1/cmath **** #pragma GCC system_header
  40:/Library/DaisyToolchain/0.2.0/arm/arm-none-eabi/include/c++/10.3.1/cmath **** 
ARM GAS  /var/folders/6w/sx7v0gy94nj4l80r62zsklwh0000gn/T//ccLZtz7E.s 			page 15


  41:/Library/DaisyToolchain/0.2.0/arm/arm-none-eabi/include/c++/10.3.1/cmath **** #include <bits/c++config.h>
  42:/Library/DaisyToolchain/0.2.0/arm/arm-none-eabi/include/c++/10.3.1/cmath **** #include <bits/cpp_type_traits.h>
  43:/Library/DaisyToolchain/0.2.0/arm/arm-none-eabi/include/c++/10.3.1/cmath **** #include <ext/type_traits.h>
  44:/Library/DaisyToolchain/0.2.0/arm/arm-none-eabi/include/c++/10.3.1/cmath **** #define _GLIBCXX_INCLUDE_NEXT_C_HEADERS
  45:/Library/DaisyToolchain/0.2.0/arm/arm-none-eabi/include/c++/10.3.1/cmath **** #include_next <math.h>
  46:/Library/DaisyToolchain/0.2.0/arm/arm-none-eabi/include/c++/10.3.1/cmath **** #undef _GLIBCXX_INCLUDE_NEXT_C_HEADERS
  47:/Library/DaisyToolchain/0.2.0/arm/arm-none-eabi/include/c++/10.3.1/cmath **** #include <bits/std_abs.h>
  48:/Library/DaisyToolchain/0.2.0/arm/arm-none-eabi/include/c++/10.3.1/cmath **** 
  49:/Library/DaisyToolchain/0.2.0/arm/arm-none-eabi/include/c++/10.3.1/cmath **** #ifndef _GLIBCXX_CMATH
  50:/Library/DaisyToolchain/0.2.0/arm/arm-none-eabi/include/c++/10.3.1/cmath **** #define _GLIBCXX_CMATH 1
  51:/Library/DaisyToolchain/0.2.0/arm/arm-none-eabi/include/c++/10.3.1/cmath **** 
  52:/Library/DaisyToolchain/0.2.0/arm/arm-none-eabi/include/c++/10.3.1/cmath **** // Get rid of those macros defined in <math.h> in lieu of real functions.
  53:/Library/DaisyToolchain/0.2.0/arm/arm-none-eabi/include/c++/10.3.1/cmath **** #undef div
  54:/Library/DaisyToolchain/0.2.0/arm/arm-none-eabi/include/c++/10.3.1/cmath **** #undef acos
  55:/Library/DaisyToolchain/0.2.0/arm/arm-none-eabi/include/c++/10.3.1/cmath **** #undef asin
  56:/Library/DaisyToolchain/0.2.0/arm/arm-none-eabi/include/c++/10.3.1/cmath **** #undef atan
  57:/Library/DaisyToolchain/0.2.0/arm/arm-none-eabi/include/c++/10.3.1/cmath **** #undef atan2
  58:/Library/DaisyToolchain/0.2.0/arm/arm-none-eabi/include/c++/10.3.1/cmath **** #undef ceil
  59:/Library/DaisyToolchain/0.2.0/arm/arm-none-eabi/include/c++/10.3.1/cmath **** #undef cos
  60:/Library/DaisyToolchain/0.2.0/arm/arm-none-eabi/include/c++/10.3.1/cmath **** #undef cosh
  61:/Library/DaisyToolchain/0.2.0/arm/arm-none-eabi/include/c++/10.3.1/cmath **** #undef exp
  62:/Library/DaisyToolchain/0.2.0/arm/arm-none-eabi/include/c++/10.3.1/cmath **** #undef fabs
  63:/Library/DaisyToolchain/0.2.0/arm/arm-none-eabi/include/c++/10.3.1/cmath **** #undef floor
  64:/Library/DaisyToolchain/0.2.0/arm/arm-none-eabi/include/c++/10.3.1/cmath **** #undef fmod
  65:/Library/DaisyToolchain/0.2.0/arm/arm-none-eabi/include/c++/10.3.1/cmath **** #undef frexp
  66:/Library/DaisyToolchain/0.2.0/arm/arm-none-eabi/include/c++/10.3.1/cmath **** #undef ldexp
  67:/Library/DaisyToolchain/0.2.0/arm/arm-none-eabi/include/c++/10.3.1/cmath **** #undef log
  68:/Library/DaisyToolchain/0.2.0/arm/arm-none-eabi/include/c++/10.3.1/cmath **** #undef log10
  69:/Library/DaisyToolchain/0.2.0/arm/arm-none-eabi/include/c++/10.3.1/cmath **** #undef modf
  70:/Library/DaisyToolchain/0.2.0/arm/arm-none-eabi/include/c++/10.3.1/cmath **** #undef pow
  71:/Library/DaisyToolchain/0.2.0/arm/arm-none-eabi/include/c++/10.3.1/cmath **** #undef sin
  72:/Library/DaisyToolchain/0.2.0/arm/arm-none-eabi/include/c++/10.3.1/cmath **** #undef sinh
  73:/Library/DaisyToolchain/0.2.0/arm/arm-none-eabi/include/c++/10.3.1/cmath **** #undef sqrt
  74:/Library/DaisyToolchain/0.2.0/arm/arm-none-eabi/include/c++/10.3.1/cmath **** #undef tan
  75:/Library/DaisyToolchain/0.2.0/arm/arm-none-eabi/include/c++/10.3.1/cmath **** #undef tanh
  76:/Library/DaisyToolchain/0.2.0/arm/arm-none-eabi/include/c++/10.3.1/cmath **** 
  77:/Library/DaisyToolchain/0.2.0/arm/arm-none-eabi/include/c++/10.3.1/cmath **** extern "C++"
  78:/Library/DaisyToolchain/0.2.0/arm/arm-none-eabi/include/c++/10.3.1/cmath **** {
  79:/Library/DaisyToolchain/0.2.0/arm/arm-none-eabi/include/c++/10.3.1/cmath **** namespace std _GLIBCXX_VISIBILITY(default)
  80:/Library/DaisyToolchain/0.2.0/arm/arm-none-eabi/include/c++/10.3.1/cmath **** {
  81:/Library/DaisyToolchain/0.2.0/arm/arm-none-eabi/include/c++/10.3.1/cmath **** _GLIBCXX_BEGIN_NAMESPACE_VERSION
  82:/Library/DaisyToolchain/0.2.0/arm/arm-none-eabi/include/c++/10.3.1/cmath **** 
  83:/Library/DaisyToolchain/0.2.0/arm/arm-none-eabi/include/c++/10.3.1/cmath ****   using ::acos;
  84:/Library/DaisyToolchain/0.2.0/arm/arm-none-eabi/include/c++/10.3.1/cmath **** 
  85:/Library/DaisyToolchain/0.2.0/arm/arm-none-eabi/include/c++/10.3.1/cmath **** #ifndef __CORRECT_ISO_CPP_MATH_H_PROTO
  86:/Library/DaisyToolchain/0.2.0/arm/arm-none-eabi/include/c++/10.3.1/cmath ****   inline _GLIBCXX_CONSTEXPR float
  87:/Library/DaisyToolchain/0.2.0/arm/arm-none-eabi/include/c++/10.3.1/cmath ****   acos(float __x)
  88:/Library/DaisyToolchain/0.2.0/arm/arm-none-eabi/include/c++/10.3.1/cmath ****   { return __builtin_acosf(__x); }
  89:/Library/DaisyToolchain/0.2.0/arm/arm-none-eabi/include/c++/10.3.1/cmath **** 
  90:/Library/DaisyToolchain/0.2.0/arm/arm-none-eabi/include/c++/10.3.1/cmath ****   inline _GLIBCXX_CONSTEXPR long double
  91:/Library/DaisyToolchain/0.2.0/arm/arm-none-eabi/include/c++/10.3.1/cmath ****   acos(long double __x)
  92:/Library/DaisyToolchain/0.2.0/arm/arm-none-eabi/include/c++/10.3.1/cmath ****   { return __builtin_acosl(__x); }
  93:/Library/DaisyToolchain/0.2.0/arm/arm-none-eabi/include/c++/10.3.1/cmath **** #endif
  94:/Library/DaisyToolchain/0.2.0/arm/arm-none-eabi/include/c++/10.3.1/cmath **** 
  95:/Library/DaisyToolchain/0.2.0/arm/arm-none-eabi/include/c++/10.3.1/cmath ****   template<typename _Tp>
  96:/Library/DaisyToolchain/0.2.0/arm/arm-none-eabi/include/c++/10.3.1/cmath ****     inline _GLIBCXX_CONSTEXPR
  97:/Library/DaisyToolchain/0.2.0/arm/arm-none-eabi/include/c++/10.3.1/cmath ****     typename __gnu_cxx::__enable_if<__is_integer<_Tp>::__value, 
ARM GAS  /var/folders/6w/sx7v0gy94nj4l80r62zsklwh0000gn/T//ccLZtz7E.s 			page 16


  98:/Library/DaisyToolchain/0.2.0/arm/arm-none-eabi/include/c++/10.3.1/cmath ****                                     double>::__type
  99:/Library/DaisyToolchain/0.2.0/arm/arm-none-eabi/include/c++/10.3.1/cmath ****     acos(_Tp __x)
 100:/Library/DaisyToolchain/0.2.0/arm/arm-none-eabi/include/c++/10.3.1/cmath ****     { return __builtin_acos(__x); }
 101:/Library/DaisyToolchain/0.2.0/arm/arm-none-eabi/include/c++/10.3.1/cmath **** 
 102:/Library/DaisyToolchain/0.2.0/arm/arm-none-eabi/include/c++/10.3.1/cmath ****   using ::asin;
 103:/Library/DaisyToolchain/0.2.0/arm/arm-none-eabi/include/c++/10.3.1/cmath **** 
 104:/Library/DaisyToolchain/0.2.0/arm/arm-none-eabi/include/c++/10.3.1/cmath **** #ifndef __CORRECT_ISO_CPP_MATH_H_PROTO
 105:/Library/DaisyToolchain/0.2.0/arm/arm-none-eabi/include/c++/10.3.1/cmath ****   inline _GLIBCXX_CONSTEXPR float
 106:/Library/DaisyToolchain/0.2.0/arm/arm-none-eabi/include/c++/10.3.1/cmath ****   asin(float __x)
 107:/Library/DaisyToolchain/0.2.0/arm/arm-none-eabi/include/c++/10.3.1/cmath ****   { return __builtin_asinf(__x); }
 108:/Library/DaisyToolchain/0.2.0/arm/arm-none-eabi/include/c++/10.3.1/cmath **** 
 109:/Library/DaisyToolchain/0.2.0/arm/arm-none-eabi/include/c++/10.3.1/cmath ****   inline _GLIBCXX_CONSTEXPR long double
 110:/Library/DaisyToolchain/0.2.0/arm/arm-none-eabi/include/c++/10.3.1/cmath ****   asin(long double __x)
 111:/Library/DaisyToolchain/0.2.0/arm/arm-none-eabi/include/c++/10.3.1/cmath ****   { return __builtin_asinl(__x); }
 112:/Library/DaisyToolchain/0.2.0/arm/arm-none-eabi/include/c++/10.3.1/cmath **** #endif
 113:/Library/DaisyToolchain/0.2.0/arm/arm-none-eabi/include/c++/10.3.1/cmath **** 
 114:/Library/DaisyToolchain/0.2.0/arm/arm-none-eabi/include/c++/10.3.1/cmath ****   template<typename _Tp>
 115:/Library/DaisyToolchain/0.2.0/arm/arm-none-eabi/include/c++/10.3.1/cmath ****     inline _GLIBCXX_CONSTEXPR
 116:/Library/DaisyToolchain/0.2.0/arm/arm-none-eabi/include/c++/10.3.1/cmath ****     typename __gnu_cxx::__enable_if<__is_integer<_Tp>::__value,
 117:/Library/DaisyToolchain/0.2.0/arm/arm-none-eabi/include/c++/10.3.1/cmath ****                                     double>::__type
 118:/Library/DaisyToolchain/0.2.0/arm/arm-none-eabi/include/c++/10.3.1/cmath ****     asin(_Tp __x)
 119:/Library/DaisyToolchain/0.2.0/arm/arm-none-eabi/include/c++/10.3.1/cmath ****     { return __builtin_asin(__x); }
 120:/Library/DaisyToolchain/0.2.0/arm/arm-none-eabi/include/c++/10.3.1/cmath **** 
 121:/Library/DaisyToolchain/0.2.0/arm/arm-none-eabi/include/c++/10.3.1/cmath ****   using ::atan;
 122:/Library/DaisyToolchain/0.2.0/arm/arm-none-eabi/include/c++/10.3.1/cmath **** 
 123:/Library/DaisyToolchain/0.2.0/arm/arm-none-eabi/include/c++/10.3.1/cmath **** #ifndef __CORRECT_ISO_CPP_MATH_H_PROTO
 124:/Library/DaisyToolchain/0.2.0/arm/arm-none-eabi/include/c++/10.3.1/cmath ****   inline _GLIBCXX_CONSTEXPR float
 125:/Library/DaisyToolchain/0.2.0/arm/arm-none-eabi/include/c++/10.3.1/cmath ****   atan(float __x)
 126:/Library/DaisyToolchain/0.2.0/arm/arm-none-eabi/include/c++/10.3.1/cmath ****   { return __builtin_atanf(__x); }
 127:/Library/DaisyToolchain/0.2.0/arm/arm-none-eabi/include/c++/10.3.1/cmath **** 
 128:/Library/DaisyToolchain/0.2.0/arm/arm-none-eabi/include/c++/10.3.1/cmath ****   inline _GLIBCXX_CONSTEXPR long double
 129:/Library/DaisyToolchain/0.2.0/arm/arm-none-eabi/include/c++/10.3.1/cmath ****   atan(long double __x)
 130:/Library/DaisyToolchain/0.2.0/arm/arm-none-eabi/include/c++/10.3.1/cmath ****   { return __builtin_atanl(__x); }
 131:/Library/DaisyToolchain/0.2.0/arm/arm-none-eabi/include/c++/10.3.1/cmath **** #endif
 132:/Library/DaisyToolchain/0.2.0/arm/arm-none-eabi/include/c++/10.3.1/cmath **** 
 133:/Library/DaisyToolchain/0.2.0/arm/arm-none-eabi/include/c++/10.3.1/cmath ****   template<typename _Tp>
 134:/Library/DaisyToolchain/0.2.0/arm/arm-none-eabi/include/c++/10.3.1/cmath ****     inline _GLIBCXX_CONSTEXPR
 135:/Library/DaisyToolchain/0.2.0/arm/arm-none-eabi/include/c++/10.3.1/cmath ****     typename __gnu_cxx::__enable_if<__is_integer<_Tp>::__value,
 136:/Library/DaisyToolchain/0.2.0/arm/arm-none-eabi/include/c++/10.3.1/cmath ****                                     double>::__type
 137:/Library/DaisyToolchain/0.2.0/arm/arm-none-eabi/include/c++/10.3.1/cmath ****     atan(_Tp __x)
 138:/Library/DaisyToolchain/0.2.0/arm/arm-none-eabi/include/c++/10.3.1/cmath ****     { return __builtin_atan(__x); }
 139:/Library/DaisyToolchain/0.2.0/arm/arm-none-eabi/include/c++/10.3.1/cmath **** 
 140:/Library/DaisyToolchain/0.2.0/arm/arm-none-eabi/include/c++/10.3.1/cmath ****   using ::atan2;
 141:/Library/DaisyToolchain/0.2.0/arm/arm-none-eabi/include/c++/10.3.1/cmath **** 
 142:/Library/DaisyToolchain/0.2.0/arm/arm-none-eabi/include/c++/10.3.1/cmath **** #ifndef __CORRECT_ISO_CPP_MATH_H_PROTO
 143:/Library/DaisyToolchain/0.2.0/arm/arm-none-eabi/include/c++/10.3.1/cmath ****   inline _GLIBCXX_CONSTEXPR float
 144:/Library/DaisyToolchain/0.2.0/arm/arm-none-eabi/include/c++/10.3.1/cmath ****   atan2(float __y, float __x)
 145:/Library/DaisyToolchain/0.2.0/arm/arm-none-eabi/include/c++/10.3.1/cmath ****   { return __builtin_atan2f(__y, __x); }
 541              		.loc 3 145 28 view .LVU157
 542 00bc B0EE490A 		vmov.f32	s0, s18
 543              	.LBE62:
 544              	.LBE61:
  91:mpu6050.cpp   ****     data.accel_z_g = data.accel_z / ACCEL_SENSITIVITY;
 545              		.loc 1 91 20 view .LVU158
 546 00c0 84ED049A 		vstr.32	s18, [r4, #16]
  94:mpu6050.cpp   ****     data.gyro_y_dps = data.gyro_y / GYRO_SENSITIVITY;
 547              		.loc 1 94 21 view .LVU159
ARM GAS  /var/folders/6w/sx7v0gy94nj4l80r62zsklwh0000gn/T//ccLZtz7E.s 			page 17


 548 00c4 84ED066A 		vstr.32	s12, [r4, #24]
  95:mpu6050.cpp   ****     data.gyro_z_dps = data.gyro_z / GYRO_SENSITIVITY;
 549              		.loc 1 95 35 view .LVU160
 550 00c8 87EE266A 		vdiv.f32	s12, s14, s13
  92:mpu6050.cpp   ****     
 551              		.loc 1 92 20 view .LVU161
 552 00cc 84ED058A 		vstr.32	s16, [r4, #20]
  96:mpu6050.cpp   ****     
 553              		.loc 1 96 35 view .LVU162
 554 00d0 87EEA67A 		vdiv.f32	s14, s15, s13
 555              	.LBB65:
 556              	.LBB63:
 557              		.loc 3 145 28 view .LVU163
 558 00d4 F0EE480A 		vmov.f32	s1, s16
 559              	.LBE63:
 560              	.LBE65:
  95:mpu6050.cpp   ****     data.gyro_z_dps = data.gyro_z / GYRO_SENSITIVITY;
 561              		.loc 1 95 21 view .LVU164
 562 00d8 84ED076A 		vstr.32	s12, [r4, #28]
  96:mpu6050.cpp   ****     
 563              		.loc 1 96 5 is_stmt 1 view .LVU165
  96:mpu6050.cpp   ****     
 564              		.loc 1 96 21 is_stmt 0 view .LVU166
 565 00dc 84ED087A 		vstr.32	s14, [r4, #32]
 101:mpu6050.cpp   ****     
 566              		.loc 1 101 5 is_stmt 1 view .LVU167
 567              	.LVL31:
 568              	.LBB66:
 569              	.LBI61:
 144:/Library/DaisyToolchain/0.2.0/arm/arm-none-eabi/include/c++/10.3.1/cmath ****   { return __builtin_atan2f(__y, __x); }
 570              		.loc 3 144 3 view .LVU168
 571              	.LBB64:
 572              		.loc 3 145 5 view .LVU169
 573              		.loc 3 145 28 is_stmt 0 view .LVU170
 574 00e0 FFF7FEFF 		bl	atan2f
 575              	.LVL32:
 576              		.loc 3 145 28 view .LVU171
 577              	.LBE64:
 578              	.LBE66:
 101:mpu6050.cpp   ****     
 579              		.loc 1 101 55 view .LVU172
 580 00e4 DFED217A 		vldr.32	s15, .L23+20
 105:mpu6050.cpp   ****                                               data.accel_z_g * data.accel_z_g)) * 180.0f / M_PI;
 581              		.loc 1 105 62 view .LVU173
 582 00e8 28EE088A 		vmul.f32	s16, s16, s16
 101:mpu6050.cpp   ****     
 583              		.loc 1 101 55 view .LVU174
 584 00ec 20EE270A 		vmul.f32	s0, s0, s15
 104:mpu6050.cpp   ****                                               data.accel_z_g * data.accel_z_g)) * 180.0f / M_PI;
 585              		.loc 1 104 23 view .LVU175
 586 00f0 A9EE098A 		vfma.f32	s16, s18, s18
 101:mpu6050.cpp   ****     
 587              		.loc 1 101 64 view .LVU176
 588 00f4 9FED186B 		vldr.64	d6, .L23
 101:mpu6050.cpp   ****     
 589              		.loc 1 101 55 view .LVU177
 590 00f8 B7EEC00A 		vcvt.f64.f32	d0, s0
ARM GAS  /var/folders/6w/sx7v0gy94nj4l80r62zsklwh0000gn/T//ccLZtz7E.s 			page 18


 101:mpu6050.cpp   ****     
 591              		.loc 1 101 64 view .LVU178
 592 00fc 80EE067B 		vdiv.f64	d7, d0, d6
 593 0100 B5EE408A 		vcmp.f32	s16, #0
 594 0104 F1EE10FA 		vmrs	APSR_nzcv, FPSCR
 595 0108 B7EEC77B 		vcvt.f32.f64	s14, d7
 596 010c 84ED097A 		vstr.32	s14, [r4, #36]
 104:mpu6050.cpp   ****                                               data.accel_z_g * data.accel_z_g)) * 180.0f / M_PI;
 597              		.loc 1 104 5 is_stmt 1 view .LVU179
 598              	.LVL33:
 599              	.LBB67:
 600              	.LBI67:
 146:/Library/DaisyToolchain/0.2.0/arm/arm-none-eabi/include/c++/10.3.1/cmath **** 
 147:/Library/DaisyToolchain/0.2.0/arm/arm-none-eabi/include/c++/10.3.1/cmath ****   inline _GLIBCXX_CONSTEXPR long double
 148:/Library/DaisyToolchain/0.2.0/arm/arm-none-eabi/include/c++/10.3.1/cmath ****   atan2(long double __y, long double __x)
 149:/Library/DaisyToolchain/0.2.0/arm/arm-none-eabi/include/c++/10.3.1/cmath ****   { return __builtin_atan2l(__y, __x); }
 150:/Library/DaisyToolchain/0.2.0/arm/arm-none-eabi/include/c++/10.3.1/cmath **** #endif
 151:/Library/DaisyToolchain/0.2.0/arm/arm-none-eabi/include/c++/10.3.1/cmath **** 
 152:/Library/DaisyToolchain/0.2.0/arm/arm-none-eabi/include/c++/10.3.1/cmath ****   template<typename _Tp, typename _Up>
 153:/Library/DaisyToolchain/0.2.0/arm/arm-none-eabi/include/c++/10.3.1/cmath ****     inline _GLIBCXX_CONSTEXPR
 154:/Library/DaisyToolchain/0.2.0/arm/arm-none-eabi/include/c++/10.3.1/cmath ****     typename __gnu_cxx::__promote_2<_Tp, _Up>::__type
 155:/Library/DaisyToolchain/0.2.0/arm/arm-none-eabi/include/c++/10.3.1/cmath ****     atan2(_Tp __y, _Up __x)
 156:/Library/DaisyToolchain/0.2.0/arm/arm-none-eabi/include/c++/10.3.1/cmath ****     {
 157:/Library/DaisyToolchain/0.2.0/arm/arm-none-eabi/include/c++/10.3.1/cmath ****       typedef typename __gnu_cxx::__promote_2<_Tp, _Up>::__type __type;
 158:/Library/DaisyToolchain/0.2.0/arm/arm-none-eabi/include/c++/10.3.1/cmath ****       return atan2(__type(__y), __type(__x));
 159:/Library/DaisyToolchain/0.2.0/arm/arm-none-eabi/include/c++/10.3.1/cmath ****     }
 160:/Library/DaisyToolchain/0.2.0/arm/arm-none-eabi/include/c++/10.3.1/cmath **** 
 161:/Library/DaisyToolchain/0.2.0/arm/arm-none-eabi/include/c++/10.3.1/cmath ****   using ::ceil;
 162:/Library/DaisyToolchain/0.2.0/arm/arm-none-eabi/include/c++/10.3.1/cmath **** 
 163:/Library/DaisyToolchain/0.2.0/arm/arm-none-eabi/include/c++/10.3.1/cmath **** #ifndef __CORRECT_ISO_CPP_MATH_H_PROTO
 164:/Library/DaisyToolchain/0.2.0/arm/arm-none-eabi/include/c++/10.3.1/cmath ****   inline _GLIBCXX_CONSTEXPR float
 165:/Library/DaisyToolchain/0.2.0/arm/arm-none-eabi/include/c++/10.3.1/cmath ****   ceil(float __x)
 166:/Library/DaisyToolchain/0.2.0/arm/arm-none-eabi/include/c++/10.3.1/cmath ****   { return __builtin_ceilf(__x); }
 167:/Library/DaisyToolchain/0.2.0/arm/arm-none-eabi/include/c++/10.3.1/cmath **** 
 168:/Library/DaisyToolchain/0.2.0/arm/arm-none-eabi/include/c++/10.3.1/cmath ****   inline _GLIBCXX_CONSTEXPR long double
 169:/Library/DaisyToolchain/0.2.0/arm/arm-none-eabi/include/c++/10.3.1/cmath ****   ceil(long double __x)
 170:/Library/DaisyToolchain/0.2.0/arm/arm-none-eabi/include/c++/10.3.1/cmath ****   { return __builtin_ceill(__x); }
 171:/Library/DaisyToolchain/0.2.0/arm/arm-none-eabi/include/c++/10.3.1/cmath **** #endif
 172:/Library/DaisyToolchain/0.2.0/arm/arm-none-eabi/include/c++/10.3.1/cmath **** 
 173:/Library/DaisyToolchain/0.2.0/arm/arm-none-eabi/include/c++/10.3.1/cmath ****   template<typename _Tp>
 174:/Library/DaisyToolchain/0.2.0/arm/arm-none-eabi/include/c++/10.3.1/cmath ****     inline _GLIBCXX_CONSTEXPR
 175:/Library/DaisyToolchain/0.2.0/arm/arm-none-eabi/include/c++/10.3.1/cmath ****     typename __gnu_cxx::__enable_if<__is_integer<_Tp>::__value, 
 176:/Library/DaisyToolchain/0.2.0/arm/arm-none-eabi/include/c++/10.3.1/cmath ****                                     double>::__type
 177:/Library/DaisyToolchain/0.2.0/arm/arm-none-eabi/include/c++/10.3.1/cmath ****     ceil(_Tp __x)
 178:/Library/DaisyToolchain/0.2.0/arm/arm-none-eabi/include/c++/10.3.1/cmath ****     { return __builtin_ceil(__x); }
 179:/Library/DaisyToolchain/0.2.0/arm/arm-none-eabi/include/c++/10.3.1/cmath **** 
 180:/Library/DaisyToolchain/0.2.0/arm/arm-none-eabi/include/c++/10.3.1/cmath ****   using ::cos;
 181:/Library/DaisyToolchain/0.2.0/arm/arm-none-eabi/include/c++/10.3.1/cmath **** 
 182:/Library/DaisyToolchain/0.2.0/arm/arm-none-eabi/include/c++/10.3.1/cmath **** #ifndef __CORRECT_ISO_CPP_MATH_H_PROTO
 183:/Library/DaisyToolchain/0.2.0/arm/arm-none-eabi/include/c++/10.3.1/cmath ****   inline _GLIBCXX_CONSTEXPR float
 184:/Library/DaisyToolchain/0.2.0/arm/arm-none-eabi/include/c++/10.3.1/cmath ****   cos(float __x)
 185:/Library/DaisyToolchain/0.2.0/arm/arm-none-eabi/include/c++/10.3.1/cmath ****   { return __builtin_cosf(__x); }
 186:/Library/DaisyToolchain/0.2.0/arm/arm-none-eabi/include/c++/10.3.1/cmath **** 
 187:/Library/DaisyToolchain/0.2.0/arm/arm-none-eabi/include/c++/10.3.1/cmath ****   inline _GLIBCXX_CONSTEXPR long double
 188:/Library/DaisyToolchain/0.2.0/arm/arm-none-eabi/include/c++/10.3.1/cmath ****   cos(long double __x)
 189:/Library/DaisyToolchain/0.2.0/arm/arm-none-eabi/include/c++/10.3.1/cmath ****   { return __builtin_cosl(__x); }
 190:/Library/DaisyToolchain/0.2.0/arm/arm-none-eabi/include/c++/10.3.1/cmath **** #endif
ARM GAS  /var/folders/6w/sx7v0gy94nj4l80r62zsklwh0000gn/T//ccLZtz7E.s 			page 19


 191:/Library/DaisyToolchain/0.2.0/arm/arm-none-eabi/include/c++/10.3.1/cmath **** 
 192:/Library/DaisyToolchain/0.2.0/arm/arm-none-eabi/include/c++/10.3.1/cmath ****   template<typename _Tp>
 193:/Library/DaisyToolchain/0.2.0/arm/arm-none-eabi/include/c++/10.3.1/cmath ****     inline _GLIBCXX_CONSTEXPR
 194:/Library/DaisyToolchain/0.2.0/arm/arm-none-eabi/include/c++/10.3.1/cmath ****     typename __gnu_cxx::__enable_if<__is_integer<_Tp>::__value,
 195:/Library/DaisyToolchain/0.2.0/arm/arm-none-eabi/include/c++/10.3.1/cmath ****                                     double>::__type
 196:/Library/DaisyToolchain/0.2.0/arm/arm-none-eabi/include/c++/10.3.1/cmath ****     cos(_Tp __x)
 197:/Library/DaisyToolchain/0.2.0/arm/arm-none-eabi/include/c++/10.3.1/cmath ****     { return __builtin_cos(__x); }
 198:/Library/DaisyToolchain/0.2.0/arm/arm-none-eabi/include/c++/10.3.1/cmath **** 
 199:/Library/DaisyToolchain/0.2.0/arm/arm-none-eabi/include/c++/10.3.1/cmath ****   using ::cosh;
 200:/Library/DaisyToolchain/0.2.0/arm/arm-none-eabi/include/c++/10.3.1/cmath **** 
 201:/Library/DaisyToolchain/0.2.0/arm/arm-none-eabi/include/c++/10.3.1/cmath **** #ifndef __CORRECT_ISO_CPP_MATH_H_PROTO
 202:/Library/DaisyToolchain/0.2.0/arm/arm-none-eabi/include/c++/10.3.1/cmath ****   inline _GLIBCXX_CONSTEXPR float
 203:/Library/DaisyToolchain/0.2.0/arm/arm-none-eabi/include/c++/10.3.1/cmath ****   cosh(float __x)
 204:/Library/DaisyToolchain/0.2.0/arm/arm-none-eabi/include/c++/10.3.1/cmath ****   { return __builtin_coshf(__x); }
 205:/Library/DaisyToolchain/0.2.0/arm/arm-none-eabi/include/c++/10.3.1/cmath **** 
 206:/Library/DaisyToolchain/0.2.0/arm/arm-none-eabi/include/c++/10.3.1/cmath ****   inline _GLIBCXX_CONSTEXPR long double
 207:/Library/DaisyToolchain/0.2.0/arm/arm-none-eabi/include/c++/10.3.1/cmath ****   cosh(long double __x)
 208:/Library/DaisyToolchain/0.2.0/arm/arm-none-eabi/include/c++/10.3.1/cmath ****   { return __builtin_coshl(__x); }
 209:/Library/DaisyToolchain/0.2.0/arm/arm-none-eabi/include/c++/10.3.1/cmath **** #endif
 210:/Library/DaisyToolchain/0.2.0/arm/arm-none-eabi/include/c++/10.3.1/cmath **** 
 211:/Library/DaisyToolchain/0.2.0/arm/arm-none-eabi/include/c++/10.3.1/cmath ****   template<typename _Tp>
 212:/Library/DaisyToolchain/0.2.0/arm/arm-none-eabi/include/c++/10.3.1/cmath ****     inline _GLIBCXX_CONSTEXPR
 213:/Library/DaisyToolchain/0.2.0/arm/arm-none-eabi/include/c++/10.3.1/cmath ****     typename __gnu_cxx::__enable_if<__is_integer<_Tp>::__value,
 214:/Library/DaisyToolchain/0.2.0/arm/arm-none-eabi/include/c++/10.3.1/cmath ****                                     double>::__type
 215:/Library/DaisyToolchain/0.2.0/arm/arm-none-eabi/include/c++/10.3.1/cmath ****     cosh(_Tp __x)
 216:/Library/DaisyToolchain/0.2.0/arm/arm-none-eabi/include/c++/10.3.1/cmath ****     { return __builtin_cosh(__x); }
 217:/Library/DaisyToolchain/0.2.0/arm/arm-none-eabi/include/c++/10.3.1/cmath **** 
 218:/Library/DaisyToolchain/0.2.0/arm/arm-none-eabi/include/c++/10.3.1/cmath ****   using ::exp;
 219:/Library/DaisyToolchain/0.2.0/arm/arm-none-eabi/include/c++/10.3.1/cmath **** 
 220:/Library/DaisyToolchain/0.2.0/arm/arm-none-eabi/include/c++/10.3.1/cmath **** #ifndef __CORRECT_ISO_CPP_MATH_H_PROTO
 221:/Library/DaisyToolchain/0.2.0/arm/arm-none-eabi/include/c++/10.3.1/cmath ****   inline _GLIBCXX_CONSTEXPR float
 222:/Library/DaisyToolchain/0.2.0/arm/arm-none-eabi/include/c++/10.3.1/cmath ****   exp(float __x)
 223:/Library/DaisyToolchain/0.2.0/arm/arm-none-eabi/include/c++/10.3.1/cmath ****   { return __builtin_expf(__x); }
 224:/Library/DaisyToolchain/0.2.0/arm/arm-none-eabi/include/c++/10.3.1/cmath **** 
 225:/Library/DaisyToolchain/0.2.0/arm/arm-none-eabi/include/c++/10.3.1/cmath ****   inline _GLIBCXX_CONSTEXPR long double
 226:/Library/DaisyToolchain/0.2.0/arm/arm-none-eabi/include/c++/10.3.1/cmath ****   exp(long double __x)
 227:/Library/DaisyToolchain/0.2.0/arm/arm-none-eabi/include/c++/10.3.1/cmath ****   { return __builtin_expl(__x); }
 228:/Library/DaisyToolchain/0.2.0/arm/arm-none-eabi/include/c++/10.3.1/cmath **** #endif
 229:/Library/DaisyToolchain/0.2.0/arm/arm-none-eabi/include/c++/10.3.1/cmath **** 
 230:/Library/DaisyToolchain/0.2.0/arm/arm-none-eabi/include/c++/10.3.1/cmath ****   template<typename _Tp>
 231:/Library/DaisyToolchain/0.2.0/arm/arm-none-eabi/include/c++/10.3.1/cmath ****     inline _GLIBCXX_CONSTEXPR
 232:/Library/DaisyToolchain/0.2.0/arm/arm-none-eabi/include/c++/10.3.1/cmath ****     typename __gnu_cxx::__enable_if<__is_integer<_Tp>::__value,
 233:/Library/DaisyToolchain/0.2.0/arm/arm-none-eabi/include/c++/10.3.1/cmath ****                                     double>::__type
 234:/Library/DaisyToolchain/0.2.0/arm/arm-none-eabi/include/c++/10.3.1/cmath ****     exp(_Tp __x)
 235:/Library/DaisyToolchain/0.2.0/arm/arm-none-eabi/include/c++/10.3.1/cmath ****     { return __builtin_exp(__x); }
 236:/Library/DaisyToolchain/0.2.0/arm/arm-none-eabi/include/c++/10.3.1/cmath **** 
 237:/Library/DaisyToolchain/0.2.0/arm/arm-none-eabi/include/c++/10.3.1/cmath ****   using ::fabs;
 238:/Library/DaisyToolchain/0.2.0/arm/arm-none-eabi/include/c++/10.3.1/cmath **** 
 239:/Library/DaisyToolchain/0.2.0/arm/arm-none-eabi/include/c++/10.3.1/cmath **** #ifndef __CORRECT_ISO_CPP_MATH_H_PROTO
 240:/Library/DaisyToolchain/0.2.0/arm/arm-none-eabi/include/c++/10.3.1/cmath ****   inline _GLIBCXX_CONSTEXPR float
 241:/Library/DaisyToolchain/0.2.0/arm/arm-none-eabi/include/c++/10.3.1/cmath ****   fabs(float __x)
 242:/Library/DaisyToolchain/0.2.0/arm/arm-none-eabi/include/c++/10.3.1/cmath ****   { return __builtin_fabsf(__x); }
 243:/Library/DaisyToolchain/0.2.0/arm/arm-none-eabi/include/c++/10.3.1/cmath **** 
 244:/Library/DaisyToolchain/0.2.0/arm/arm-none-eabi/include/c++/10.3.1/cmath ****   inline _GLIBCXX_CONSTEXPR long double
 245:/Library/DaisyToolchain/0.2.0/arm/arm-none-eabi/include/c++/10.3.1/cmath ****   fabs(long double __x)
 246:/Library/DaisyToolchain/0.2.0/arm/arm-none-eabi/include/c++/10.3.1/cmath ****   { return __builtin_fabsl(__x); }
 247:/Library/DaisyToolchain/0.2.0/arm/arm-none-eabi/include/c++/10.3.1/cmath **** #endif
ARM GAS  /var/folders/6w/sx7v0gy94nj4l80r62zsklwh0000gn/T//ccLZtz7E.s 			page 20


 248:/Library/DaisyToolchain/0.2.0/arm/arm-none-eabi/include/c++/10.3.1/cmath **** 
 249:/Library/DaisyToolchain/0.2.0/arm/arm-none-eabi/include/c++/10.3.1/cmath ****   template<typename _Tp>
 250:/Library/DaisyToolchain/0.2.0/arm/arm-none-eabi/include/c++/10.3.1/cmath ****     inline _GLIBCXX_CONSTEXPR
 251:/Library/DaisyToolchain/0.2.0/arm/arm-none-eabi/include/c++/10.3.1/cmath ****     typename __gnu_cxx::__enable_if<__is_integer<_Tp>::__value,
 252:/Library/DaisyToolchain/0.2.0/arm/arm-none-eabi/include/c++/10.3.1/cmath ****                                     double>::__type
 253:/Library/DaisyToolchain/0.2.0/arm/arm-none-eabi/include/c++/10.3.1/cmath ****     fabs(_Tp __x)
 254:/Library/DaisyToolchain/0.2.0/arm/arm-none-eabi/include/c++/10.3.1/cmath ****     { return __builtin_fabs(__x); }
 255:/Library/DaisyToolchain/0.2.0/arm/arm-none-eabi/include/c++/10.3.1/cmath **** 
 256:/Library/DaisyToolchain/0.2.0/arm/arm-none-eabi/include/c++/10.3.1/cmath ****   using ::floor;
 257:/Library/DaisyToolchain/0.2.0/arm/arm-none-eabi/include/c++/10.3.1/cmath **** 
 258:/Library/DaisyToolchain/0.2.0/arm/arm-none-eabi/include/c++/10.3.1/cmath **** #ifndef __CORRECT_ISO_CPP_MATH_H_PROTO
 259:/Library/DaisyToolchain/0.2.0/arm/arm-none-eabi/include/c++/10.3.1/cmath ****   inline _GLIBCXX_CONSTEXPR float
 260:/Library/DaisyToolchain/0.2.0/arm/arm-none-eabi/include/c++/10.3.1/cmath ****   floor(float __x)
 261:/Library/DaisyToolchain/0.2.0/arm/arm-none-eabi/include/c++/10.3.1/cmath ****   { return __builtin_floorf(__x); }
 262:/Library/DaisyToolchain/0.2.0/arm/arm-none-eabi/include/c++/10.3.1/cmath **** 
 263:/Library/DaisyToolchain/0.2.0/arm/arm-none-eabi/include/c++/10.3.1/cmath ****   inline _GLIBCXX_CONSTEXPR long double
 264:/Library/DaisyToolchain/0.2.0/arm/arm-none-eabi/include/c++/10.3.1/cmath ****   floor(long double __x)
 265:/Library/DaisyToolchain/0.2.0/arm/arm-none-eabi/include/c++/10.3.1/cmath ****   { return __builtin_floorl(__x); }
 266:/Library/DaisyToolchain/0.2.0/arm/arm-none-eabi/include/c++/10.3.1/cmath **** #endif
 267:/Library/DaisyToolchain/0.2.0/arm/arm-none-eabi/include/c++/10.3.1/cmath **** 
 268:/Library/DaisyToolchain/0.2.0/arm/arm-none-eabi/include/c++/10.3.1/cmath ****   template<typename _Tp>
 269:/Library/DaisyToolchain/0.2.0/arm/arm-none-eabi/include/c++/10.3.1/cmath ****     inline _GLIBCXX_CONSTEXPR
 270:/Library/DaisyToolchain/0.2.0/arm/arm-none-eabi/include/c++/10.3.1/cmath ****     typename __gnu_cxx::__enable_if<__is_integer<_Tp>::__value,
 271:/Library/DaisyToolchain/0.2.0/arm/arm-none-eabi/include/c++/10.3.1/cmath ****                                     double>::__type
 272:/Library/DaisyToolchain/0.2.0/arm/arm-none-eabi/include/c++/10.3.1/cmath ****     floor(_Tp __x)
 273:/Library/DaisyToolchain/0.2.0/arm/arm-none-eabi/include/c++/10.3.1/cmath ****     { return __builtin_floor(__x); }
 274:/Library/DaisyToolchain/0.2.0/arm/arm-none-eabi/include/c++/10.3.1/cmath **** 
 275:/Library/DaisyToolchain/0.2.0/arm/arm-none-eabi/include/c++/10.3.1/cmath ****   using ::fmod;
 276:/Library/DaisyToolchain/0.2.0/arm/arm-none-eabi/include/c++/10.3.1/cmath **** 
 277:/Library/DaisyToolchain/0.2.0/arm/arm-none-eabi/include/c++/10.3.1/cmath **** #ifndef __CORRECT_ISO_CPP_MATH_H_PROTO
 278:/Library/DaisyToolchain/0.2.0/arm/arm-none-eabi/include/c++/10.3.1/cmath ****   inline _GLIBCXX_CONSTEXPR float
 279:/Library/DaisyToolchain/0.2.0/arm/arm-none-eabi/include/c++/10.3.1/cmath ****   fmod(float __x, float __y)
 280:/Library/DaisyToolchain/0.2.0/arm/arm-none-eabi/include/c++/10.3.1/cmath ****   { return __builtin_fmodf(__x, __y); }
 281:/Library/DaisyToolchain/0.2.0/arm/arm-none-eabi/include/c++/10.3.1/cmath **** 
 282:/Library/DaisyToolchain/0.2.0/arm/arm-none-eabi/include/c++/10.3.1/cmath ****   inline _GLIBCXX_CONSTEXPR long double
 283:/Library/DaisyToolchain/0.2.0/arm/arm-none-eabi/include/c++/10.3.1/cmath ****   fmod(long double __x, long double __y)
 284:/Library/DaisyToolchain/0.2.0/arm/arm-none-eabi/include/c++/10.3.1/cmath ****   { return __builtin_fmodl(__x, __y); }
 285:/Library/DaisyToolchain/0.2.0/arm/arm-none-eabi/include/c++/10.3.1/cmath **** #endif
 286:/Library/DaisyToolchain/0.2.0/arm/arm-none-eabi/include/c++/10.3.1/cmath **** 
 287:/Library/DaisyToolchain/0.2.0/arm/arm-none-eabi/include/c++/10.3.1/cmath ****   template<typename _Tp, typename _Up>
 288:/Library/DaisyToolchain/0.2.0/arm/arm-none-eabi/include/c++/10.3.1/cmath ****     inline _GLIBCXX_CONSTEXPR
 289:/Library/DaisyToolchain/0.2.0/arm/arm-none-eabi/include/c++/10.3.1/cmath ****     typename __gnu_cxx::__promote_2<_Tp, _Up>::__type
 290:/Library/DaisyToolchain/0.2.0/arm/arm-none-eabi/include/c++/10.3.1/cmath ****     fmod(_Tp __x, _Up __y)
 291:/Library/DaisyToolchain/0.2.0/arm/arm-none-eabi/include/c++/10.3.1/cmath ****     {
 292:/Library/DaisyToolchain/0.2.0/arm/arm-none-eabi/include/c++/10.3.1/cmath ****       typedef typename __gnu_cxx::__promote_2<_Tp, _Up>::__type __type;
 293:/Library/DaisyToolchain/0.2.0/arm/arm-none-eabi/include/c++/10.3.1/cmath ****       return fmod(__type(__x), __type(__y));
 294:/Library/DaisyToolchain/0.2.0/arm/arm-none-eabi/include/c++/10.3.1/cmath ****     }
 295:/Library/DaisyToolchain/0.2.0/arm/arm-none-eabi/include/c++/10.3.1/cmath **** 
 296:/Library/DaisyToolchain/0.2.0/arm/arm-none-eabi/include/c++/10.3.1/cmath ****   using ::frexp;
 297:/Library/DaisyToolchain/0.2.0/arm/arm-none-eabi/include/c++/10.3.1/cmath **** 
 298:/Library/DaisyToolchain/0.2.0/arm/arm-none-eabi/include/c++/10.3.1/cmath **** #ifndef __CORRECT_ISO_CPP_MATH_H_PROTO
 299:/Library/DaisyToolchain/0.2.0/arm/arm-none-eabi/include/c++/10.3.1/cmath ****   inline float
 300:/Library/DaisyToolchain/0.2.0/arm/arm-none-eabi/include/c++/10.3.1/cmath ****   frexp(float __x, int* __exp)
 301:/Library/DaisyToolchain/0.2.0/arm/arm-none-eabi/include/c++/10.3.1/cmath ****   { return __builtin_frexpf(__x, __exp); }
 302:/Library/DaisyToolchain/0.2.0/arm/arm-none-eabi/include/c++/10.3.1/cmath **** 
 303:/Library/DaisyToolchain/0.2.0/arm/arm-none-eabi/include/c++/10.3.1/cmath ****   inline long double
 304:/Library/DaisyToolchain/0.2.0/arm/arm-none-eabi/include/c++/10.3.1/cmath ****   frexp(long double __x, int* __exp)
ARM GAS  /var/folders/6w/sx7v0gy94nj4l80r62zsklwh0000gn/T//ccLZtz7E.s 			page 21


 305:/Library/DaisyToolchain/0.2.0/arm/arm-none-eabi/include/c++/10.3.1/cmath ****   { return __builtin_frexpl(__x, __exp); }
 306:/Library/DaisyToolchain/0.2.0/arm/arm-none-eabi/include/c++/10.3.1/cmath **** #endif
 307:/Library/DaisyToolchain/0.2.0/arm/arm-none-eabi/include/c++/10.3.1/cmath **** 
 308:/Library/DaisyToolchain/0.2.0/arm/arm-none-eabi/include/c++/10.3.1/cmath ****   template<typename _Tp>
 309:/Library/DaisyToolchain/0.2.0/arm/arm-none-eabi/include/c++/10.3.1/cmath ****     inline _GLIBCXX_CONSTEXPR
 310:/Library/DaisyToolchain/0.2.0/arm/arm-none-eabi/include/c++/10.3.1/cmath ****     typename __gnu_cxx::__enable_if<__is_integer<_Tp>::__value, 
 311:/Library/DaisyToolchain/0.2.0/arm/arm-none-eabi/include/c++/10.3.1/cmath ****                                     double>::__type
 312:/Library/DaisyToolchain/0.2.0/arm/arm-none-eabi/include/c++/10.3.1/cmath ****     frexp(_Tp __x, int* __exp)
 313:/Library/DaisyToolchain/0.2.0/arm/arm-none-eabi/include/c++/10.3.1/cmath ****     { return __builtin_frexp(__x, __exp); }
 314:/Library/DaisyToolchain/0.2.0/arm/arm-none-eabi/include/c++/10.3.1/cmath **** 
 315:/Library/DaisyToolchain/0.2.0/arm/arm-none-eabi/include/c++/10.3.1/cmath ****   using ::ldexp;
 316:/Library/DaisyToolchain/0.2.0/arm/arm-none-eabi/include/c++/10.3.1/cmath **** 
 317:/Library/DaisyToolchain/0.2.0/arm/arm-none-eabi/include/c++/10.3.1/cmath **** #ifndef __CORRECT_ISO_CPP_MATH_H_PROTO
 318:/Library/DaisyToolchain/0.2.0/arm/arm-none-eabi/include/c++/10.3.1/cmath ****   inline _GLIBCXX_CONSTEXPR float
 319:/Library/DaisyToolchain/0.2.0/arm/arm-none-eabi/include/c++/10.3.1/cmath ****   ldexp(float __x, int __exp)
 320:/Library/DaisyToolchain/0.2.0/arm/arm-none-eabi/include/c++/10.3.1/cmath ****   { return __builtin_ldexpf(__x, __exp); }
 321:/Library/DaisyToolchain/0.2.0/arm/arm-none-eabi/include/c++/10.3.1/cmath **** 
 322:/Library/DaisyToolchain/0.2.0/arm/arm-none-eabi/include/c++/10.3.1/cmath ****   inline _GLIBCXX_CONSTEXPR long double
 323:/Library/DaisyToolchain/0.2.0/arm/arm-none-eabi/include/c++/10.3.1/cmath ****   ldexp(long double __x, int __exp)
 324:/Library/DaisyToolchain/0.2.0/arm/arm-none-eabi/include/c++/10.3.1/cmath ****   { return __builtin_ldexpl(__x, __exp); }
 325:/Library/DaisyToolchain/0.2.0/arm/arm-none-eabi/include/c++/10.3.1/cmath **** #endif
 326:/Library/DaisyToolchain/0.2.0/arm/arm-none-eabi/include/c++/10.3.1/cmath **** 
 327:/Library/DaisyToolchain/0.2.0/arm/arm-none-eabi/include/c++/10.3.1/cmath ****   template<typename _Tp>
 328:/Library/DaisyToolchain/0.2.0/arm/arm-none-eabi/include/c++/10.3.1/cmath ****     inline _GLIBCXX_CONSTEXPR
 329:/Library/DaisyToolchain/0.2.0/arm/arm-none-eabi/include/c++/10.3.1/cmath ****     typename __gnu_cxx::__enable_if<__is_integer<_Tp>::__value, 
 330:/Library/DaisyToolchain/0.2.0/arm/arm-none-eabi/include/c++/10.3.1/cmath ****                                     double>::__type
 331:/Library/DaisyToolchain/0.2.0/arm/arm-none-eabi/include/c++/10.3.1/cmath ****     ldexp(_Tp __x, int __exp)
 332:/Library/DaisyToolchain/0.2.0/arm/arm-none-eabi/include/c++/10.3.1/cmath ****     { return __builtin_ldexp(__x, __exp); }
 333:/Library/DaisyToolchain/0.2.0/arm/arm-none-eabi/include/c++/10.3.1/cmath **** 
 334:/Library/DaisyToolchain/0.2.0/arm/arm-none-eabi/include/c++/10.3.1/cmath ****   using ::log;
 335:/Library/DaisyToolchain/0.2.0/arm/arm-none-eabi/include/c++/10.3.1/cmath **** 
 336:/Library/DaisyToolchain/0.2.0/arm/arm-none-eabi/include/c++/10.3.1/cmath **** #ifndef __CORRECT_ISO_CPP_MATH_H_PROTO
 337:/Library/DaisyToolchain/0.2.0/arm/arm-none-eabi/include/c++/10.3.1/cmath ****   inline _GLIBCXX_CONSTEXPR float
 338:/Library/DaisyToolchain/0.2.0/arm/arm-none-eabi/include/c++/10.3.1/cmath ****   log(float __x)
 339:/Library/DaisyToolchain/0.2.0/arm/arm-none-eabi/include/c++/10.3.1/cmath ****   { return __builtin_logf(__x); }
 340:/Library/DaisyToolchain/0.2.0/arm/arm-none-eabi/include/c++/10.3.1/cmath **** 
 341:/Library/DaisyToolchain/0.2.0/arm/arm-none-eabi/include/c++/10.3.1/cmath ****   inline _GLIBCXX_CONSTEXPR long double
 342:/Library/DaisyToolchain/0.2.0/arm/arm-none-eabi/include/c++/10.3.1/cmath ****   log(long double __x)
 343:/Library/DaisyToolchain/0.2.0/arm/arm-none-eabi/include/c++/10.3.1/cmath ****   { return __builtin_logl(__x); }
 344:/Library/DaisyToolchain/0.2.0/arm/arm-none-eabi/include/c++/10.3.1/cmath **** #endif
 345:/Library/DaisyToolchain/0.2.0/arm/arm-none-eabi/include/c++/10.3.1/cmath **** 
 346:/Library/DaisyToolchain/0.2.0/arm/arm-none-eabi/include/c++/10.3.1/cmath ****   template<typename _Tp>
 347:/Library/DaisyToolchain/0.2.0/arm/arm-none-eabi/include/c++/10.3.1/cmath ****     inline _GLIBCXX_CONSTEXPR
 348:/Library/DaisyToolchain/0.2.0/arm/arm-none-eabi/include/c++/10.3.1/cmath ****     typename __gnu_cxx::__enable_if<__is_integer<_Tp>::__value, 
 349:/Library/DaisyToolchain/0.2.0/arm/arm-none-eabi/include/c++/10.3.1/cmath ****                                     double>::__type
 350:/Library/DaisyToolchain/0.2.0/arm/arm-none-eabi/include/c++/10.3.1/cmath ****     log(_Tp __x)
 351:/Library/DaisyToolchain/0.2.0/arm/arm-none-eabi/include/c++/10.3.1/cmath ****     { return __builtin_log(__x); }
 352:/Library/DaisyToolchain/0.2.0/arm/arm-none-eabi/include/c++/10.3.1/cmath **** 
 353:/Library/DaisyToolchain/0.2.0/arm/arm-none-eabi/include/c++/10.3.1/cmath ****   using ::log10;
 354:/Library/DaisyToolchain/0.2.0/arm/arm-none-eabi/include/c++/10.3.1/cmath **** 
 355:/Library/DaisyToolchain/0.2.0/arm/arm-none-eabi/include/c++/10.3.1/cmath **** #ifndef __CORRECT_ISO_CPP_MATH_H_PROTO
 356:/Library/DaisyToolchain/0.2.0/arm/arm-none-eabi/include/c++/10.3.1/cmath ****   inline _GLIBCXX_CONSTEXPR float
 357:/Library/DaisyToolchain/0.2.0/arm/arm-none-eabi/include/c++/10.3.1/cmath ****   log10(float __x)
 358:/Library/DaisyToolchain/0.2.0/arm/arm-none-eabi/include/c++/10.3.1/cmath ****   { return __builtin_log10f(__x); }
 359:/Library/DaisyToolchain/0.2.0/arm/arm-none-eabi/include/c++/10.3.1/cmath **** 
 360:/Library/DaisyToolchain/0.2.0/arm/arm-none-eabi/include/c++/10.3.1/cmath ****   inline _GLIBCXX_CONSTEXPR long double
 361:/Library/DaisyToolchain/0.2.0/arm/arm-none-eabi/include/c++/10.3.1/cmath ****   log10(long double __x)
ARM GAS  /var/folders/6w/sx7v0gy94nj4l80r62zsklwh0000gn/T//ccLZtz7E.s 			page 22


 362:/Library/DaisyToolchain/0.2.0/arm/arm-none-eabi/include/c++/10.3.1/cmath ****   { return __builtin_log10l(__x); }
 363:/Library/DaisyToolchain/0.2.0/arm/arm-none-eabi/include/c++/10.3.1/cmath **** #endif
 364:/Library/DaisyToolchain/0.2.0/arm/arm-none-eabi/include/c++/10.3.1/cmath **** 
 365:/Library/DaisyToolchain/0.2.0/arm/arm-none-eabi/include/c++/10.3.1/cmath ****   template<typename _Tp>
 366:/Library/DaisyToolchain/0.2.0/arm/arm-none-eabi/include/c++/10.3.1/cmath ****     inline _GLIBCXX_CONSTEXPR
 367:/Library/DaisyToolchain/0.2.0/arm/arm-none-eabi/include/c++/10.3.1/cmath ****     typename __gnu_cxx::__enable_if<__is_integer<_Tp>::__value,
 368:/Library/DaisyToolchain/0.2.0/arm/arm-none-eabi/include/c++/10.3.1/cmath ****                                     double>::__type
 369:/Library/DaisyToolchain/0.2.0/arm/arm-none-eabi/include/c++/10.3.1/cmath ****     log10(_Tp __x)
 370:/Library/DaisyToolchain/0.2.0/arm/arm-none-eabi/include/c++/10.3.1/cmath ****     { return __builtin_log10(__x); }
 371:/Library/DaisyToolchain/0.2.0/arm/arm-none-eabi/include/c++/10.3.1/cmath **** 
 372:/Library/DaisyToolchain/0.2.0/arm/arm-none-eabi/include/c++/10.3.1/cmath ****   using ::modf;
 373:/Library/DaisyToolchain/0.2.0/arm/arm-none-eabi/include/c++/10.3.1/cmath **** 
 374:/Library/DaisyToolchain/0.2.0/arm/arm-none-eabi/include/c++/10.3.1/cmath **** #ifndef __CORRECT_ISO_CPP_MATH_H_PROTO
 375:/Library/DaisyToolchain/0.2.0/arm/arm-none-eabi/include/c++/10.3.1/cmath ****   inline float
 376:/Library/DaisyToolchain/0.2.0/arm/arm-none-eabi/include/c++/10.3.1/cmath ****   modf(float __x, float* __iptr)
 377:/Library/DaisyToolchain/0.2.0/arm/arm-none-eabi/include/c++/10.3.1/cmath ****   { return __builtin_modff(__x, __iptr); }
 378:/Library/DaisyToolchain/0.2.0/arm/arm-none-eabi/include/c++/10.3.1/cmath **** 
 379:/Library/DaisyToolchain/0.2.0/arm/arm-none-eabi/include/c++/10.3.1/cmath ****   inline long double
 380:/Library/DaisyToolchain/0.2.0/arm/arm-none-eabi/include/c++/10.3.1/cmath ****   modf(long double __x, long double* __iptr)
 381:/Library/DaisyToolchain/0.2.0/arm/arm-none-eabi/include/c++/10.3.1/cmath ****   { return __builtin_modfl(__x, __iptr); }
 382:/Library/DaisyToolchain/0.2.0/arm/arm-none-eabi/include/c++/10.3.1/cmath **** #endif
 383:/Library/DaisyToolchain/0.2.0/arm/arm-none-eabi/include/c++/10.3.1/cmath **** 
 384:/Library/DaisyToolchain/0.2.0/arm/arm-none-eabi/include/c++/10.3.1/cmath ****   using ::pow;
 385:/Library/DaisyToolchain/0.2.0/arm/arm-none-eabi/include/c++/10.3.1/cmath **** 
 386:/Library/DaisyToolchain/0.2.0/arm/arm-none-eabi/include/c++/10.3.1/cmath **** #ifndef __CORRECT_ISO_CPP_MATH_H_PROTO
 387:/Library/DaisyToolchain/0.2.0/arm/arm-none-eabi/include/c++/10.3.1/cmath ****   inline _GLIBCXX_CONSTEXPR float
 388:/Library/DaisyToolchain/0.2.0/arm/arm-none-eabi/include/c++/10.3.1/cmath ****   pow(float __x, float __y)
 389:/Library/DaisyToolchain/0.2.0/arm/arm-none-eabi/include/c++/10.3.1/cmath ****   { return __builtin_powf(__x, __y); }
 390:/Library/DaisyToolchain/0.2.0/arm/arm-none-eabi/include/c++/10.3.1/cmath **** 
 391:/Library/DaisyToolchain/0.2.0/arm/arm-none-eabi/include/c++/10.3.1/cmath ****   inline _GLIBCXX_CONSTEXPR long double
 392:/Library/DaisyToolchain/0.2.0/arm/arm-none-eabi/include/c++/10.3.1/cmath ****   pow(long double __x, long double __y)
 393:/Library/DaisyToolchain/0.2.0/arm/arm-none-eabi/include/c++/10.3.1/cmath ****   { return __builtin_powl(__x, __y); }
 394:/Library/DaisyToolchain/0.2.0/arm/arm-none-eabi/include/c++/10.3.1/cmath **** 
 395:/Library/DaisyToolchain/0.2.0/arm/arm-none-eabi/include/c++/10.3.1/cmath **** #if __cplusplus < 201103L
 396:/Library/DaisyToolchain/0.2.0/arm/arm-none-eabi/include/c++/10.3.1/cmath ****   // _GLIBCXX_RESOLVE_LIB_DEFECTS
 397:/Library/DaisyToolchain/0.2.0/arm/arm-none-eabi/include/c++/10.3.1/cmath ****   // DR 550. What should the return type of pow(float,int) be?
 398:/Library/DaisyToolchain/0.2.0/arm/arm-none-eabi/include/c++/10.3.1/cmath ****   inline double
 399:/Library/DaisyToolchain/0.2.0/arm/arm-none-eabi/include/c++/10.3.1/cmath ****   pow(double __x, int __i)
 400:/Library/DaisyToolchain/0.2.0/arm/arm-none-eabi/include/c++/10.3.1/cmath ****   { return __builtin_powi(__x, __i); }
 401:/Library/DaisyToolchain/0.2.0/arm/arm-none-eabi/include/c++/10.3.1/cmath **** 
 402:/Library/DaisyToolchain/0.2.0/arm/arm-none-eabi/include/c++/10.3.1/cmath ****   inline float
 403:/Library/DaisyToolchain/0.2.0/arm/arm-none-eabi/include/c++/10.3.1/cmath ****   pow(float __x, int __n)
 404:/Library/DaisyToolchain/0.2.0/arm/arm-none-eabi/include/c++/10.3.1/cmath ****   { return __builtin_powif(__x, __n); }
 405:/Library/DaisyToolchain/0.2.0/arm/arm-none-eabi/include/c++/10.3.1/cmath **** 
 406:/Library/DaisyToolchain/0.2.0/arm/arm-none-eabi/include/c++/10.3.1/cmath ****   inline long double
 407:/Library/DaisyToolchain/0.2.0/arm/arm-none-eabi/include/c++/10.3.1/cmath ****   pow(long double __x, int __n)
 408:/Library/DaisyToolchain/0.2.0/arm/arm-none-eabi/include/c++/10.3.1/cmath ****   { return __builtin_powil(__x, __n); }
 409:/Library/DaisyToolchain/0.2.0/arm/arm-none-eabi/include/c++/10.3.1/cmath **** #endif
 410:/Library/DaisyToolchain/0.2.0/arm/arm-none-eabi/include/c++/10.3.1/cmath **** #endif
 411:/Library/DaisyToolchain/0.2.0/arm/arm-none-eabi/include/c++/10.3.1/cmath **** 
 412:/Library/DaisyToolchain/0.2.0/arm/arm-none-eabi/include/c++/10.3.1/cmath ****   template<typename _Tp, typename _Up>
 413:/Library/DaisyToolchain/0.2.0/arm/arm-none-eabi/include/c++/10.3.1/cmath ****     inline _GLIBCXX_CONSTEXPR
 414:/Library/DaisyToolchain/0.2.0/arm/arm-none-eabi/include/c++/10.3.1/cmath ****     typename __gnu_cxx::__promote_2<_Tp, _Up>::__type
 415:/Library/DaisyToolchain/0.2.0/arm/arm-none-eabi/include/c++/10.3.1/cmath ****     pow(_Tp __x, _Up __y)
 416:/Library/DaisyToolchain/0.2.0/arm/arm-none-eabi/include/c++/10.3.1/cmath ****     {
 417:/Library/DaisyToolchain/0.2.0/arm/arm-none-eabi/include/c++/10.3.1/cmath ****       typedef typename __gnu_cxx::__promote_2<_Tp, _Up>::__type __type;
 418:/Library/DaisyToolchain/0.2.0/arm/arm-none-eabi/include/c++/10.3.1/cmath ****       return pow(__type(__x), __type(__y));
ARM GAS  /var/folders/6w/sx7v0gy94nj4l80r62zsklwh0000gn/T//ccLZtz7E.s 			page 23


 419:/Library/DaisyToolchain/0.2.0/arm/arm-none-eabi/include/c++/10.3.1/cmath ****     }
 420:/Library/DaisyToolchain/0.2.0/arm/arm-none-eabi/include/c++/10.3.1/cmath **** 
 421:/Library/DaisyToolchain/0.2.0/arm/arm-none-eabi/include/c++/10.3.1/cmath ****   using ::sin;
 422:/Library/DaisyToolchain/0.2.0/arm/arm-none-eabi/include/c++/10.3.1/cmath **** 
 423:/Library/DaisyToolchain/0.2.0/arm/arm-none-eabi/include/c++/10.3.1/cmath **** #ifndef __CORRECT_ISO_CPP_MATH_H_PROTO
 424:/Library/DaisyToolchain/0.2.0/arm/arm-none-eabi/include/c++/10.3.1/cmath ****   inline _GLIBCXX_CONSTEXPR float
 425:/Library/DaisyToolchain/0.2.0/arm/arm-none-eabi/include/c++/10.3.1/cmath ****   sin(float __x)
 426:/Library/DaisyToolchain/0.2.0/arm/arm-none-eabi/include/c++/10.3.1/cmath ****   { return __builtin_sinf(__x); }
 427:/Library/DaisyToolchain/0.2.0/arm/arm-none-eabi/include/c++/10.3.1/cmath **** 
 428:/Library/DaisyToolchain/0.2.0/arm/arm-none-eabi/include/c++/10.3.1/cmath ****   inline _GLIBCXX_CONSTEXPR long double
 429:/Library/DaisyToolchain/0.2.0/arm/arm-none-eabi/include/c++/10.3.1/cmath ****   sin(long double __x)
 430:/Library/DaisyToolchain/0.2.0/arm/arm-none-eabi/include/c++/10.3.1/cmath ****   { return __builtin_sinl(__x); }
 431:/Library/DaisyToolchain/0.2.0/arm/arm-none-eabi/include/c++/10.3.1/cmath **** #endif
 432:/Library/DaisyToolchain/0.2.0/arm/arm-none-eabi/include/c++/10.3.1/cmath **** 
 433:/Library/DaisyToolchain/0.2.0/arm/arm-none-eabi/include/c++/10.3.1/cmath ****   template<typename _Tp>
 434:/Library/DaisyToolchain/0.2.0/arm/arm-none-eabi/include/c++/10.3.1/cmath ****     inline _GLIBCXX_CONSTEXPR
 435:/Library/DaisyToolchain/0.2.0/arm/arm-none-eabi/include/c++/10.3.1/cmath ****     typename __gnu_cxx::__enable_if<__is_integer<_Tp>::__value, 
 436:/Library/DaisyToolchain/0.2.0/arm/arm-none-eabi/include/c++/10.3.1/cmath ****                                     double>::__type
 437:/Library/DaisyToolchain/0.2.0/arm/arm-none-eabi/include/c++/10.3.1/cmath ****     sin(_Tp __x)
 438:/Library/DaisyToolchain/0.2.0/arm/arm-none-eabi/include/c++/10.3.1/cmath ****     { return __builtin_sin(__x); }
 439:/Library/DaisyToolchain/0.2.0/arm/arm-none-eabi/include/c++/10.3.1/cmath **** 
 440:/Library/DaisyToolchain/0.2.0/arm/arm-none-eabi/include/c++/10.3.1/cmath ****   using ::sinh;
 441:/Library/DaisyToolchain/0.2.0/arm/arm-none-eabi/include/c++/10.3.1/cmath **** 
 442:/Library/DaisyToolchain/0.2.0/arm/arm-none-eabi/include/c++/10.3.1/cmath **** #ifndef __CORRECT_ISO_CPP_MATH_H_PROTO
 443:/Library/DaisyToolchain/0.2.0/arm/arm-none-eabi/include/c++/10.3.1/cmath ****   inline _GLIBCXX_CONSTEXPR float
 444:/Library/DaisyToolchain/0.2.0/arm/arm-none-eabi/include/c++/10.3.1/cmath ****   sinh(float __x)
 445:/Library/DaisyToolchain/0.2.0/arm/arm-none-eabi/include/c++/10.3.1/cmath ****   { return __builtin_sinhf(__x); }
 446:/Library/DaisyToolchain/0.2.0/arm/arm-none-eabi/include/c++/10.3.1/cmath **** 
 447:/Library/DaisyToolchain/0.2.0/arm/arm-none-eabi/include/c++/10.3.1/cmath ****   inline _GLIBCXX_CONSTEXPR long double
 448:/Library/DaisyToolchain/0.2.0/arm/arm-none-eabi/include/c++/10.3.1/cmath ****   sinh(long double __x)
 449:/Library/DaisyToolchain/0.2.0/arm/arm-none-eabi/include/c++/10.3.1/cmath ****   { return __builtin_sinhl(__x); }
 450:/Library/DaisyToolchain/0.2.0/arm/arm-none-eabi/include/c++/10.3.1/cmath **** #endif
 451:/Library/DaisyToolchain/0.2.0/arm/arm-none-eabi/include/c++/10.3.1/cmath **** 
 452:/Library/DaisyToolchain/0.2.0/arm/arm-none-eabi/include/c++/10.3.1/cmath ****   template<typename _Tp>
 453:/Library/DaisyToolchain/0.2.0/arm/arm-none-eabi/include/c++/10.3.1/cmath ****     inline _GLIBCXX_CONSTEXPR
 454:/Library/DaisyToolchain/0.2.0/arm/arm-none-eabi/include/c++/10.3.1/cmath ****     typename __gnu_cxx::__enable_if<__is_integer<_Tp>::__value, 
 455:/Library/DaisyToolchain/0.2.0/arm/arm-none-eabi/include/c++/10.3.1/cmath ****                                     double>::__type
 456:/Library/DaisyToolchain/0.2.0/arm/arm-none-eabi/include/c++/10.3.1/cmath ****     sinh(_Tp __x)
 457:/Library/DaisyToolchain/0.2.0/arm/arm-none-eabi/include/c++/10.3.1/cmath ****     { return __builtin_sinh(__x); }
 458:/Library/DaisyToolchain/0.2.0/arm/arm-none-eabi/include/c++/10.3.1/cmath **** 
 459:/Library/DaisyToolchain/0.2.0/arm/arm-none-eabi/include/c++/10.3.1/cmath ****   using ::sqrt;
 460:/Library/DaisyToolchain/0.2.0/arm/arm-none-eabi/include/c++/10.3.1/cmath **** 
 461:/Library/DaisyToolchain/0.2.0/arm/arm-none-eabi/include/c++/10.3.1/cmath **** #ifndef __CORRECT_ISO_CPP_MATH_H_PROTO
 462:/Library/DaisyToolchain/0.2.0/arm/arm-none-eabi/include/c++/10.3.1/cmath ****   inline _GLIBCXX_CONSTEXPR float
 463:/Library/DaisyToolchain/0.2.0/arm/arm-none-eabi/include/c++/10.3.1/cmath ****   sqrt(float __x)
 601              		.loc 3 463 3 view .LVU180
 602              	.LBB68:
 464:/Library/DaisyToolchain/0.2.0/arm/arm-none-eabi/include/c++/10.3.1/cmath ****   { return __builtin_sqrtf(__x); }
 603              		.loc 3 464 5 view .LVU181
 604 0110 18D4     		bmi	.L21
 605              		.loc 3 464 27 is_stmt 0 view .LVU182
 606 0112 F1EEC80A 		vsqrt.f32	s1, s16
 607              	.L19:
 608              	.LVL34:
 609              		.loc 3 464 27 view .LVU183
 610              	.LBE68:
 611              	.LBE67:
ARM GAS  /var/folders/6w/sx7v0gy94nj4l80r62zsklwh0000gn/T//ccLZtz7E.s 			page 24


 612              	.LBB70:
 613              	.LBI70:
 144:/Library/DaisyToolchain/0.2.0/arm/arm-none-eabi/include/c++/10.3.1/cmath ****   { return __builtin_atan2f(__y, __x); }
 614              		.loc 3 144 3 is_stmt 1 view .LVU184
 615              	.LBB71:
 145:/Library/DaisyToolchain/0.2.0/arm/arm-none-eabi/include/c++/10.3.1/cmath **** 
 616              		.loc 3 145 5 view .LVU185
 145:/Library/DaisyToolchain/0.2.0/arm/arm-none-eabi/include/c++/10.3.1/cmath **** 
 617              		.loc 3 145 28 is_stmt 0 view .LVU186
 618 0116 B0EE680A 		vmov.f32	s0, s17
 619 011a FFF7FEFF 		bl	atan2f
 620              	.LVL35:
 145:/Library/DaisyToolchain/0.2.0/arm/arm-none-eabi/include/c++/10.3.1/cmath **** 
 621              		.loc 3 145 28 view .LVU187
 622              	.LBE71:
 623              	.LBE70:
 624              		.loc 1 105 81 view .LVU188
 625 011e DFED137A 		vldr.32	s15, .L23+20
 106:mpu6050.cpp   ****     
 107:mpu6050.cpp   ****     // Note: Heading/yaw cannot be calculated without a magnetometer
 108:mpu6050.cpp   ****     
 109:mpu6050.cpp   ****     return data;
 110:mpu6050.cpp   **** }
 626              		.loc 1 110 1 view .LVU189
 627 0122 2046     		mov	r0, r4
 105:mpu6050.cpp   ****     
 628              		.loc 1 105 81 view .LVU190
 629 0124 20EE270A 		vmul.f32	s0, s0, s15
 105:mpu6050.cpp   ****     
 630              		.loc 1 105 90 view .LVU191
 631 0128 9FED0B6B 		vldr.64	d6, .L23
 105:mpu6050.cpp   ****     
 632              		.loc 1 105 81 view .LVU192
 633 012c B7EEC00A 		vcvt.f64.f32	d0, s0
 105:mpu6050.cpp   ****     
 634              		.loc 1 105 90 view .LVU193
 635 0130 80EE067B 		vdiv.f64	d7, d0, d6
 636 0134 B7EEC77B 		vcvt.f32.f64	s14, d7
 637 0138 84ED0A7A 		vstr.32	s14, [r4, #40]
 109:mpu6050.cpp   **** }
 638              		.loc 1 109 5 is_stmt 1 view .LVU194
 639              		.loc 1 110 1 is_stmt 0 view .LVU195
 640 013c 09B0     		add	sp, sp, #36
 641              		.cfi_remember_state
 642              		.cfi_def_cfa_offset 28
 643              		@ sp needed
 644 013e BDEC048B 		vldm	sp!, {d8-d9}
 645              		.cfi_restore 82
 646              		.cfi_restore 83
 647              		.cfi_restore 80
 648              		.cfi_restore 81
 649              		.cfi_def_cfa_offset 12
 650 0142 30BD     		pop	{r4, r5, pc}
 651              	.LVL36:
 652              	.L21:
 653              		.cfi_restore_state
 654              	.LBB72:
ARM GAS  /var/folders/6w/sx7v0gy94nj4l80r62zsklwh0000gn/T//ccLZtz7E.s 			page 25


 655              	.LBB69:
 656              		.loc 3 464 27 view .LVU196
 657 0144 B0EE480A 		vmov.f32	s0, s16
 658 0148 FFF7FEFF 		bl	sqrtf
 659              	.LVL37:
 660 014c F0EE400A 		vmov.f32	s1, s0
 661 0150 E1E7     		b	.L19
 662              	.L24:
 663 0152 00BFAFF3 		.align	3
 663      0080
 664              	.L23:
 665 0158 182D4454 		.word	1413754136
 666 015c FB210940 		.word	1074340347
 667 0160 00000000 		.word	.LANCHOR0
 668 0164 00000343 		.word	1124270080
 669 0168 00008038 		.word	947912704
 670 016c 00003443 		.word	1127481344
 671              	.LBE69:
 672              	.LBE72:
 673              		.cfi_endproc
 674              	.LFE4685:
 676              		.section	.text._Z11TestMPU6050v,"ax",%progbits
 677              		.align	1
 678              		.p2align 2,,3
 679              		.global	_Z11TestMPU6050v
 680              		.syntax unified
 681              		.thumb
 682              		.thumb_func
 684              	_Z11TestMPU6050v:
 685              	.LFB4686:
 111:mpu6050.cpp   **** 
 112:mpu6050.cpp   **** // Test if MPU6050 is connected
 113:mpu6050.cpp   **** bool TestMPU6050() {
 686              		.loc 1 113 20 is_stmt 1 view -0
 687              		.cfi_startproc
 688              		@ args = 0, pretend = 0, frame = 8
 689              		@ frame_needed = 0, uses_anonymous_args = 0
 114:mpu6050.cpp   ****     uint8_t who_am_i = 0;
 690              		.loc 1 114 5 view .LVU198
 113:mpu6050.cpp   ****     uint8_t who_am_i = 0;
 691              		.loc 1 113 20 is_stmt 0 view .LVU199
 692 0000 30B5     		push	{r4, r5, lr}
 693              		.cfi_def_cfa_offset 12
 694              		.cfi_offset 4, -12
 695              		.cfi_offset 5, -8
 696              		.cfi_offset 14, -4
 697              		.loc 1 114 13 view .LVU200
 698 0002 0021     		movs	r1, #0
 113:mpu6050.cpp   ****     uint8_t who_am_i = 0;
 699              		.loc 1 113 20 view .LVU201
 700 0004 85B0     		sub	sp, sp, #20
 701              		.cfi_def_cfa_offset 32
 702              	.LBB75:
 703              	.LBB76:
  33:mpu6050.cpp   ****     i2c.ReceiveBlocking(MPU6050_ADDRESS, arr, size, 100);
 704              		.loc 1 33 25 view .LVU202
 705 0006 104D     		ldr	r5, .L27
ARM GAS  /var/folders/6w/sx7v0gy94nj4l80r62zsklwh0000gn/T//ccLZtz7E.s 			page 26


 706 0008 6424     		movs	r4, #100
 707 000a 7522     		movs	r2, #117
 708              	.LBE76:
 709              	.LBE75:
 710              		.loc 1 114 13 view .LVU203
 711 000c 8DF80E10 		strb	r1, [sp, #14]
 115:mpu6050.cpp   ****     ReadMPU6050Register(MPU6050_WHO_AM_I, &who_am_i, 1);
 712              		.loc 1 115 5 is_stmt 1 view .LVU204
 713              	.LBB79:
 714              	.LBB77:
  33:mpu6050.cpp   ****     i2c.ReceiveBlocking(MPU6050_ADDRESS, arr, size, 100);
 715              		.loc 1 33 25 is_stmt 0 view .LVU205
 716 0010 0123     		movs	r3, #1
 717 0012 6821     		movs	r1, #104
 718 0014 8DF80F20 		strb	r2, [sp, #15]
 719              	.LVL38:
  33:mpu6050.cpp   ****     i2c.ReceiveBlocking(MPU6050_ADDRESS, arr, size, 100);
 720              		.loc 1 33 25 view .LVU206
 721              	.LBE77:
 722              	.LBI75:
  32:mpu6050.cpp   ****     i2c.TransmitBlocking(MPU6050_ADDRESS, &reg, 1, 100);
 723              		.loc 1 32 6 is_stmt 1 view .LVU207
 724              	.LBB78:
  33:mpu6050.cpp   ****     i2c.ReceiveBlocking(MPU6050_ADDRESS, arr, size, 100);
 725              		.loc 1 33 5 view .LVU208
  33:mpu6050.cpp   ****     i2c.ReceiveBlocking(MPU6050_ADDRESS, arr, size, 100);
 726              		.loc 1 33 25 is_stmt 0 view .LVU209
 727 0018 2846     		mov	r0, r5
 728 001a 0DF10F02 		add	r2, sp, #15
 729              	.LVL39:
  33:mpu6050.cpp   ****     i2c.ReceiveBlocking(MPU6050_ADDRESS, arr, size, 100);
 730              		.loc 1 33 25 view .LVU210
 731 001e 0094     		str	r4, [sp]
 732 0020 FFF7FEFF 		bl	_ZN5daisy9I2CHandle16TransmitBlockingEtPhtm
 733              	.LVL40:
  34:mpu6050.cpp   **** }
 734              		.loc 1 34 5 is_stmt 1 view .LVU211
  34:mpu6050.cpp   **** }
 735              		.loc 1 34 24 is_stmt 0 view .LVU212
 736 0024 0123     		movs	r3, #1
 737 0026 0DF10E02 		add	r2, sp, #14
 738              	.LVL41:
  34:mpu6050.cpp   **** }
 739              		.loc 1 34 24 view .LVU213
 740 002a 6821     		movs	r1, #104
 741 002c 2846     		mov	r0, r5
 742 002e 0094     		str	r4, [sp]
 743 0030 FFF7FEFF 		bl	_ZN5daisy9I2CHandle15ReceiveBlockingEtPhtm
 744              	.LVL42:
  34:mpu6050.cpp   **** }
 745              		.loc 1 34 24 view .LVU214
 746              	.LBE78:
 747              	.LBE79:
 116:mpu6050.cpp   ****     return (who_am_i == 0x68);
 748              		.loc 1 116 5 is_stmt 1 view .LVU215
 749              		.loc 1 116 29 is_stmt 0 view .LVU216
 750 0034 9DF80E00 		ldrb	r0, [sp, #14]	@ zero_extendqisi2
ARM GAS  /var/folders/6w/sx7v0gy94nj4l80r62zsklwh0000gn/T//ccLZtz7E.s 			page 27


 117:mpu6050.cpp   **** }...
 751              		.loc 1 117 1 view .LVU217
 752 0038 A0F16800 		sub	r0, #104
 753 003c B0FA80F0 		clz	r0, r0
 754 0040 4009     		lsrs	r0, r0, #5
 755 0042 05B0     		add	sp, sp, #20
 756              		.cfi_def_cfa_offset 12
 757              		@ sp needed
 758 0044 30BD     		pop	{r4, r5, pc}
 759              	.L28:
 760 0046 00BF     		.align	2
 761              	.L27:
 762 0048 00000000 		.word	.LANCHOR0
 763              		.cfi_endproc
 764              	.LFE4686:
 766              		.section	.text.startup._GLOBAL__sub_I_i2c,"ax",%progbits
 767              		.align	1
 768              		.p2align 2,,3
 769              		.syntax unified
 770              		.thumb
 771              		.thumb_func
 773              	_GLOBAL__sub_I_i2c:
 774              	.LFB5249:
 775              		.loc 1 117 1 is_stmt 1 view -0
 776              		.cfi_startproc
 777              		@ args = 0, pretend = 0, frame = 0
 778              		@ frame_needed = 0, uses_anonymous_args = 0
 779              		@ link register save eliminated.
 780              	.LVL43:
 781              	.LBB80:
 782              	.LBI80:
 783              		.loc 1 117 1 view .LVU219
 784              	.LBB81:
 785              	.LBB82:
 786              	.LBI82:
  29:/Users/paulwang/Desktop/DaisyExamples/libDaisy/src/per/i2c.h ****     {
  30:/Users/paulwang/Desktop/DaisyExamples/libDaisy/src/per/i2c.h ****         /** Specifies whether the interface will operate in master or slave mode. */
  31:/Users/paulwang/Desktop/DaisyExamples/libDaisy/src/per/i2c.h ****         enum class Mode
  32:/Users/paulwang/Desktop/DaisyExamples/libDaisy/src/per/i2c.h ****         {
  33:/Users/paulwang/Desktop/DaisyExamples/libDaisy/src/per/i2c.h ****             I2C_MASTER,
  34:/Users/paulwang/Desktop/DaisyExamples/libDaisy/src/per/i2c.h ****             I2C_SLAVE,
  35:/Users/paulwang/Desktop/DaisyExamples/libDaisy/src/per/i2c.h ****         };
  36:/Users/paulwang/Desktop/DaisyExamples/libDaisy/src/per/i2c.h **** 
  37:/Users/paulwang/Desktop/DaisyExamples/libDaisy/src/per/i2c.h ****         /** Specifices the internal peripheral to use (these are mapped to different pins on the ha
  38:/Users/paulwang/Desktop/DaisyExamples/libDaisy/src/per/i2c.h ****         enum class Peripheral
  39:/Users/paulwang/Desktop/DaisyExamples/libDaisy/src/per/i2c.h ****         {
  40:/Users/paulwang/Desktop/DaisyExamples/libDaisy/src/per/i2c.h ****             I2C_1 = 0, /**< & */
  41:/Users/paulwang/Desktop/DaisyExamples/libDaisy/src/per/i2c.h ****             I2C_2,     /**< & */
  42:/Users/paulwang/Desktop/DaisyExamples/libDaisy/src/per/i2c.h ****             I2C_3,     /**< & */
  43:/Users/paulwang/Desktop/DaisyExamples/libDaisy/src/per/i2c.h ****             I2C_4,     /**< & */
  44:/Users/paulwang/Desktop/DaisyExamples/libDaisy/src/per/i2c.h ****         };
  45:/Users/paulwang/Desktop/DaisyExamples/libDaisy/src/per/i2c.h **** 
  46:/Users/paulwang/Desktop/DaisyExamples/libDaisy/src/per/i2c.h ****         /** Rate at which the clock/data will be sent/received. The device being used will have max
  47:/Users/paulwang/Desktop/DaisyExamples/libDaisy/src/per/i2c.h ****          *  1MHZ Mode is currently 886kHz
  48:/Users/paulwang/Desktop/DaisyExamples/libDaisy/src/per/i2c.h ****          */
  49:/Users/paulwang/Desktop/DaisyExamples/libDaisy/src/per/i2c.h ****         enum class Speed
  50:/Users/paulwang/Desktop/DaisyExamples/libDaisy/src/per/i2c.h ****         {
ARM GAS  /var/folders/6w/sx7v0gy94nj4l80r62zsklwh0000gn/T//ccLZtz7E.s 			page 28


  51:/Users/paulwang/Desktop/DaisyExamples/libDaisy/src/per/i2c.h ****             I2C_100KHZ, /**< & */
  52:/Users/paulwang/Desktop/DaisyExamples/libDaisy/src/per/i2c.h ****             I2C_400KHZ, /**< & */
  53:/Users/paulwang/Desktop/DaisyExamples/libDaisy/src/per/i2c.h ****             I2C_1MHZ,   /**< & */
  54:/Users/paulwang/Desktop/DaisyExamples/libDaisy/src/per/i2c.h ****         };
  55:/Users/paulwang/Desktop/DaisyExamples/libDaisy/src/per/i2c.h **** 
  56:/Users/paulwang/Desktop/DaisyExamples/libDaisy/src/per/i2c.h ****         Peripheral periph; /**< & */
  57:/Users/paulwang/Desktop/DaisyExamples/libDaisy/src/per/i2c.h ****         struct
  58:/Users/paulwang/Desktop/DaisyExamples/libDaisy/src/per/i2c.h ****         {
  59:/Users/paulwang/Desktop/DaisyExamples/libDaisy/src/per/i2c.h ****             dsy_gpio_pin scl; /**< & */
  60:/Users/paulwang/Desktop/DaisyExamples/libDaisy/src/per/i2c.h ****             dsy_gpio_pin sda; /**< & */
  61:/Users/paulwang/Desktop/DaisyExamples/libDaisy/src/per/i2c.h ****         } pin_config;         /**< & */
  62:/Users/paulwang/Desktop/DaisyExamples/libDaisy/src/per/i2c.h **** 
  63:/Users/paulwang/Desktop/DaisyExamples/libDaisy/src/per/i2c.h ****         Speed speed; /**< & */
  64:/Users/paulwang/Desktop/DaisyExamples/libDaisy/src/per/i2c.h ****         Mode  mode;  /**< & */
  65:/Users/paulwang/Desktop/DaisyExamples/libDaisy/src/per/i2c.h ****         // 0x10 is chosen as a default to avoid conflicts with reserved addresses
  66:/Users/paulwang/Desktop/DaisyExamples/libDaisy/src/per/i2c.h ****         uint8_t address = 0x10; /**< & */
  67:/Users/paulwang/Desktop/DaisyExamples/libDaisy/src/per/i2c.h ****     };
  68:/Users/paulwang/Desktop/DaisyExamples/libDaisy/src/per/i2c.h **** 
  69:/Users/paulwang/Desktop/DaisyExamples/libDaisy/src/per/i2c.h ****     /** Return values for I2C functions. */
  70:/Users/paulwang/Desktop/DaisyExamples/libDaisy/src/per/i2c.h ****     enum class Result
  71:/Users/paulwang/Desktop/DaisyExamples/libDaisy/src/per/i2c.h ****     {
  72:/Users/paulwang/Desktop/DaisyExamples/libDaisy/src/per/i2c.h ****         OK, /**< & */
  73:/Users/paulwang/Desktop/DaisyExamples/libDaisy/src/per/i2c.h ****         ERR /**< & */
  74:/Users/paulwang/Desktop/DaisyExamples/libDaisy/src/per/i2c.h ****     };
  75:/Users/paulwang/Desktop/DaisyExamples/libDaisy/src/per/i2c.h **** 
  76:/Users/paulwang/Desktop/DaisyExamples/libDaisy/src/per/i2c.h ****     enum class Direction
  77:/Users/paulwang/Desktop/DaisyExamples/libDaisy/src/per/i2c.h ****     {
  78:/Users/paulwang/Desktop/DaisyExamples/libDaisy/src/per/i2c.h ****         TRANSMIT, /**< & */
  79:/Users/paulwang/Desktop/DaisyExamples/libDaisy/src/per/i2c.h ****         RECEIVE,  /**< & */
  80:/Users/paulwang/Desktop/DaisyExamples/libDaisy/src/per/i2c.h ****     };
  81:/Users/paulwang/Desktop/DaisyExamples/libDaisy/src/per/i2c.h **** 
  82:/Users/paulwang/Desktop/DaisyExamples/libDaisy/src/per/i2c.h ****     I2CHandle() : pimpl_(nullptr) {}
 787              		.loc 2 82 5 view .LVU220
 788              	.LBB83:
 789              	.LBB84:
 790              		.loc 2 82 33 is_stmt 0 view .LVU221
 791 0000 014B     		ldr	r3, .L30
 792 0002 0022     		movs	r2, #0
 793 0004 1A60     		str	r2, [r3]
 794              	.LVL44:
 795              		.loc 2 82 33 view .LVU222
 796              	.LBE84:
 797              	.LBE83:
 798              	.LBE82:
 799              	.LBE81:
 800              	.LBE80:
 801              		.loc 1 117 1 view .LVU223
 802 0006 7047     		bx	lr
 803              	.L31:
 804              		.align	2
 805              	.L30:
 806 0008 00000000 		.word	.LANCHOR0
 807              		.cfi_endproc
 808              	.LFE5249:
 810              		.section	.init_array,"aw",%init_array
 811              		.align	2
 812 0000 00000000 		.word	_GLOBAL__sub_I_i2c(target1)
ARM GAS  /var/folders/6w/sx7v0gy94nj4l80r62zsklwh0000gn/T//ccLZtz7E.s 			page 29


 813              		.global	i2c
 814              		.section	.rodata
 815              		.align	2
 816              		.set	.LANCHOR1,. + 0
 817              	.LC0:
 818 0000 01       		.byte	1
 819 0001 08       		.byte	8
 820 0002 0000     		.space	2
 821              	.LC1:
 822 0004 01       		.byte	1
 823 0005 09       		.byte	9
 824              		.section	.bss.i2c,"aw",%nobits
 825              		.align	2
 826              		.set	.LANCHOR0,. + 0
 829              	i2c:
 830 0000 00000000 		.space	4
 831              		.text
 832              	.Letext0:
 833              		.file 4 "/Library/DaisyToolchain/0.2.0/arm/arm-none-eabi/include/machine/_default_types.h"
 834              		.file 5 "/Library/DaisyToolchain/0.2.0/arm/arm-none-eabi/include/sys/_stdint.h"
 835              		.file 6 "/Library/DaisyToolchain/0.2.0/arm/arm-none-eabi/include/stdint.h"
 836              		.file 7 "/Library/DaisyToolchain/0.2.0/arm/lib/gcc/arm-none-eabi/10.3.1/include/stddef.h"
 837              		.file 8 "/Library/DaisyToolchain/0.2.0/arm/arm-none-eabi/include/c++/10.3.1/bits/std_abs.h"
 838              		.file 9 "/Library/DaisyToolchain/0.2.0/arm/arm-none-eabi/include/c++/10.3.1/cstdlib"
 839              		.file 10 "/Library/DaisyToolchain/0.2.0/arm/arm-none-eabi/include/c++/10.3.1/cstdint"
 840              		.file 11 "/Library/DaisyToolchain/0.2.0/arm/arm-none-eabi/include/c++/10.3.1/type_traits"
 841              		.file 12 "/Library/DaisyToolchain/0.2.0/arm/arm-none-eabi/include/c++/10.3.1/debug/debug.h"
 842              		.file 13 "/Library/DaisyToolchain/0.2.0/arm/arm-none-eabi/include/c++/10.3.1/arm-none-eabi/thumb/v
 843              		.file 14 "/Library/DaisyToolchain/0.2.0/arm/arm-none-eabi/include/c++/10.3.1/bits/algorithmfwd.h"
 844              		.file 15 "/Library/DaisyToolchain/0.2.0/arm/arm-none-eabi/include/c++/10.3.1/bits/stl_pair.h"
 845              		.file 16 "/Library/DaisyToolchain/0.2.0/arm/arm-none-eabi/include/c++/10.3.1/bits/exception_ptr.h"
 846              		.file 17 "/Library/DaisyToolchain/0.2.0/arm/arm-none-eabi/include/c++/10.3.1/cstdarg"
 847              		.file 18 "/Library/DaisyToolchain/0.2.0/arm/arm-none-eabi/include/c++/10.3.1/cstdio"
 848              		.file 19 "/Library/DaisyToolchain/0.2.0/arm/arm-none-eabi/include/c++/10.3.1/cstring"
 849              		.file 20 "/Library/DaisyToolchain/0.2.0/arm/arm-none-eabi/include/c++/10.3.1/cwchar"
 850              		.file 21 "/Library/DaisyToolchain/0.2.0/arm/arm-none-eabi/include/c++/10.3.1/clocale"
 851              		.file 22 "/Library/DaisyToolchain/0.2.0/arm/arm-none-eabi/include/c++/10.3.1/bits/basic_string.h"
 852              		.file 23 "/Library/DaisyToolchain/0.2.0/arm/arm-none-eabi/include/c++/10.3.1/bits/stl_iterator.h"
 853              		.file 24 "/Library/DaisyToolchain/0.2.0/arm/arm-none-eabi/include/c++/10.3.1/bits/predefined_ops.h
 854              		.file 25 "/Library/DaisyToolchain/0.2.0/arm/arm-none-eabi/include/sys/_types.h"
 855              		.file 26 "/Library/DaisyToolchain/0.2.0/arm/arm-none-eabi/include/sys/reent.h"
 856              		.file 27 "/Library/DaisyToolchain/0.2.0/arm/arm-none-eabi/include/sys/lock.h"
 857              		.file 28 "/Library/DaisyToolchain/0.2.0/arm/arm-none-eabi/include/math.h"
 858              		.file 29 "/Library/DaisyToolchain/0.2.0/arm/arm-none-eabi/include/stdlib.h"
 859              		.file 30 "/Library/DaisyToolchain/0.2.0/arm/arm-none-eabi/include/c++/10.3.1/math.h"
 860              		.file 31 "MPU6050.h"
 861              		.file 32 "/Library/DaisyToolchain/0.2.0/arm/arm-none-eabi/include/c++/10.3.1/stdlib.h"
 862              		.file 33 "/Users/paulwang/Desktop/DaisyExamples/libDaisy/src/daisy_core.h"
 863              		.file 34 "/Users/paulwang/Desktop/DaisyExamples/libDaisy/src/per/tim.h"
 864              		.file 35 "/Users/paulwang/Desktop/DaisyExamples/libDaisy/src/sys/system.h"
 865              		.file 36 "/Users/paulwang/Desktop/DaisyExamples/libDaisy/src/util/wav_format.h"
 866              		.file 37 "/Users/paulwang/Desktop/DaisyExamples/libDaisy/src/dev/max11300.h"
 867              		.file 38 "/Users/paulwang/Desktop/DaisyExamples/libDaisy/src/daisy_seed.h"
 868              		.file 39 "/Library/DaisyToolchain/0.2.0/arm/lib/gcc/arm-none-eabi/10.3.1/include/stdarg.h"
 869              		.file 40 "/Library/DaisyToolchain/0.2.0/arm/arm-none-eabi/include/stdio.h"
 870              		.file 41 "/Library/DaisyToolchain/0.2.0/arm/arm-none-eabi/include/string.h"
 871              		.file 42 "/Users/paulwang/Desktop/DaisyExamples/DaisySP/Source/Control/adenv.h"
ARM GAS  /var/folders/6w/sx7v0gy94nj4l80r62zsklwh0000gn/T//ccLZtz7E.s 			page 30


 872              		.file 43 "/Users/paulwang/Desktop/DaisyExamples/DaisySP/Source/Utility/dsp.h"
 873              		.file 44 "/Library/DaisyToolchain/0.2.0/arm/arm-none-eabi/include/wchar.h"
 874              		.file 45 "/Library/DaisyToolchain/0.2.0/arm/arm-none-eabi/include/locale.h"
 875              		.file 46 "/Users/paulwang/Desktop/DaisyExamples/libDaisy/src/dev/sr_595.h"
 876              		.file 47 "<built-in>"
ARM GAS  /var/folders/6w/sx7v0gy94nj4l80r62zsklwh0000gn/T//ccLZtz7E.s 			page 31

