ARM GAS  /tmp/cc06O66m.s 			page 1


   1              		.cpu cortex-m7
   2              		.eabi_attribute 28, 1
   3              		.eabi_attribute 20, 1
   4              		.eabi_attribute 21, 1
   5              		.eabi_attribute 23, 3
   6              		.eabi_attribute 24, 1
   7              		.eabi_attribute 25, 1
   8              		.eabi_attribute 26, 1
   9              		.eabi_attribute 30, 2
  10              		.eabi_attribute 34, 1
  11              		.eabi_attribute 18, 4
  12              		.file	"I2C.cpp"
  13              		.text
  14              	.Ltext0:
  15              		.cfi_sections	.debug_frame
  16              		.section	.text._ZN5daisy9DaisySeedD2Ev,"axG",%progbits,_ZN5daisy9DaisySeedD5Ev,comdat
  17              		.align	1
  18              		.p2align 2,,3
  19              		.weak	_ZN5daisy9DaisySeedD2Ev
  20              		.arch armv7e-m
  21              		.syntax unified
  22              		.thumb
  23              		.thumb_func
  24              		.fpu fpv5-d16
  26              	_ZN5daisy9DaisySeedD2Ev:
  27              	.LVL0:
  28              	.LFB2555:
  29              		.file 1 "/home/nahomts/Documents/DaisyExamples/libDaisy/src/daisy_seed.h"
   1:/home/nahomts/Documents/DaisyExamples/libDaisy/src/daisy_seed.h **** #pragma once
   2:/home/nahomts/Documents/DaisyExamples/libDaisy/src/daisy_seed.h **** #ifndef DSY_SEED_H
   3:/home/nahomts/Documents/DaisyExamples/libDaisy/src/daisy_seed.h **** #define DSY_SEED_H
   4:/home/nahomts/Documents/DaisyExamples/libDaisy/src/daisy_seed.h **** 
   5:/home/nahomts/Documents/DaisyExamples/libDaisy/src/daisy_seed.h **** #include "daisy.h"
   6:/home/nahomts/Documents/DaisyExamples/libDaisy/src/daisy_seed.h **** 
   7:/home/nahomts/Documents/DaisyExamples/libDaisy/src/daisy_seed.h **** //Uncomment this out if you're still using the rev2 hardware
   8:/home/nahomts/Documents/DaisyExamples/libDaisy/src/daisy_seed.h **** //#define SEED_REV2
   9:/home/nahomts/Documents/DaisyExamples/libDaisy/src/daisy_seed.h **** 
  10:/home/nahomts/Documents/DaisyExamples/libDaisy/src/daisy_seed.h **** namespace daisy
  11:/home/nahomts/Documents/DaisyExamples/libDaisy/src/daisy_seed.h **** {
  12:/home/nahomts/Documents/DaisyExamples/libDaisy/src/daisy_seed.h **** /**
  13:/home/nahomts/Documents/DaisyExamples/libDaisy/src/daisy_seed.h ****    @brief This is the higher-level interface for the Daisy board. \n 
  14:/home/nahomts/Documents/DaisyExamples/libDaisy/src/daisy_seed.h ****     All basic peripheral configuration/initialization is setup here. \n
  15:/home/nahomts/Documents/DaisyExamples/libDaisy/src/daisy_seed.h **** 
  16:/home/nahomts/Documents/DaisyExamples/libDaisy/src/daisy_seed.h ****    @ingroup boards
  17:/home/nahomts/Documents/DaisyExamples/libDaisy/src/daisy_seed.h **** */
  18:/home/nahomts/Documents/DaisyExamples/libDaisy/src/daisy_seed.h **** class DaisySeed
  19:/home/nahomts/Documents/DaisyExamples/libDaisy/src/daisy_seed.h **** {
  20:/home/nahomts/Documents/DaisyExamples/libDaisy/src/daisy_seed.h ****   public:
  21:/home/nahomts/Documents/DaisyExamples/libDaisy/src/daisy_seed.h ****     DaisySeed() {}
  22:/home/nahomts/Documents/DaisyExamples/libDaisy/src/daisy_seed.h ****     ~DaisySeed() {}
  30              		.loc 1 22 5 view -0
  31              		.cfi_startproc
  32              		@ args = 0, pretend = 0, frame = 0
  33              		@ frame_needed = 0, uses_anonymous_args = 0
  34              		@ link register save eliminated.
  35              	.LBB78:
  36              	.LBI78:
ARM GAS  /tmp/cc06O66m.s 			page 2


  37              		.file 2 "/home/nahomts/Documents/DaisyExamples/libDaisy/src/sys/system.h"
   1:/home/nahomts/Documents/DaisyExamples/libDaisy/src/sys/system.h **** #ifndef DSY_SYSTEM_H
   2:/home/nahomts/Documents/DaisyExamples/libDaisy/src/sys/system.h **** #define DSY_SYSTEM_H
   3:/home/nahomts/Documents/DaisyExamples/libDaisy/src/sys/system.h **** 
   4:/home/nahomts/Documents/DaisyExamples/libDaisy/src/sys/system.h **** #ifndef UNIT_TEST // for unit tests, a dummy implementation is provided below
   5:/home/nahomts/Documents/DaisyExamples/libDaisy/src/sys/system.h **** 
   6:/home/nahomts/Documents/DaisyExamples/libDaisy/src/sys/system.h **** #include <cstdint>
   7:/home/nahomts/Documents/DaisyExamples/libDaisy/src/sys/system.h **** #include "per/tim.h"
   8:/home/nahomts/Documents/DaisyExamples/libDaisy/src/sys/system.h **** 
   9:/home/nahomts/Documents/DaisyExamples/libDaisy/src/sys/system.h **** namespace daisy
  10:/home/nahomts/Documents/DaisyExamples/libDaisy/src/sys/system.h **** {
  11:/home/nahomts/Documents/DaisyExamples/libDaisy/src/sys/system.h **** /** A handle for interacting with the Core System.
  12:/home/nahomts/Documents/DaisyExamples/libDaisy/src/sys/system.h ****  ** This includes the Clock tree, MPU, global DMA initialization,
  13:/home/nahomts/Documents/DaisyExamples/libDaisy/src/sys/system.h ****  ** cache handling, and any other necessary global initiailzation
  14:/home/nahomts/Documents/DaisyExamples/libDaisy/src/sys/system.h ****  **
  15:/home/nahomts/Documents/DaisyExamples/libDaisy/src/sys/system.h ****  ** @author shensley
  16:/home/nahomts/Documents/DaisyExamples/libDaisy/src/sys/system.h ****  ** @ingroup system
  17:/home/nahomts/Documents/DaisyExamples/libDaisy/src/sys/system.h ****  */
  18:/home/nahomts/Documents/DaisyExamples/libDaisy/src/sys/system.h **** class System
  19:/home/nahomts/Documents/DaisyExamples/libDaisy/src/sys/system.h **** {
  20:/home/nahomts/Documents/DaisyExamples/libDaisy/src/sys/system.h ****   public:
  21:/home/nahomts/Documents/DaisyExamples/libDaisy/src/sys/system.h ****     /** Contains settings for initializing the System */
  22:/home/nahomts/Documents/DaisyExamples/libDaisy/src/sys/system.h ****     struct Config
  23:/home/nahomts/Documents/DaisyExamples/libDaisy/src/sys/system.h ****     {
  24:/home/nahomts/Documents/DaisyExamples/libDaisy/src/sys/system.h ****         /** Specifies the system clock frequency that feeds APB/AHB clocks, etc. */
  25:/home/nahomts/Documents/DaisyExamples/libDaisy/src/sys/system.h ****         enum class SysClkFreq
  26:/home/nahomts/Documents/DaisyExamples/libDaisy/src/sys/system.h ****         {
  27:/home/nahomts/Documents/DaisyExamples/libDaisy/src/sys/system.h ****             FREQ_400MHZ,
  28:/home/nahomts/Documents/DaisyExamples/libDaisy/src/sys/system.h ****             FREQ_480MHZ,
  29:/home/nahomts/Documents/DaisyExamples/libDaisy/src/sys/system.h ****         };
  30:/home/nahomts/Documents/DaisyExamples/libDaisy/src/sys/system.h **** 
  31:/home/nahomts/Documents/DaisyExamples/libDaisy/src/sys/system.h ****         /** Method to call on the struct to set to defaults
  32:/home/nahomts/Documents/DaisyExamples/libDaisy/src/sys/system.h ****          ** CPU Freq set to 400MHz
  33:/home/nahomts/Documents/DaisyExamples/libDaisy/src/sys/system.h ****          ** Cache Enabled
  34:/home/nahomts/Documents/DaisyExamples/libDaisy/src/sys/system.h ****          ** */
  35:/home/nahomts/Documents/DaisyExamples/libDaisy/src/sys/system.h ****         void Defaults()
  36:/home/nahomts/Documents/DaisyExamples/libDaisy/src/sys/system.h ****         {
  37:/home/nahomts/Documents/DaisyExamples/libDaisy/src/sys/system.h ****             cpu_freq    = SysClkFreq::FREQ_400MHZ;
  38:/home/nahomts/Documents/DaisyExamples/libDaisy/src/sys/system.h ****             use_dcache  = true;
  39:/home/nahomts/Documents/DaisyExamples/libDaisy/src/sys/system.h ****             use_icache  = true;
  40:/home/nahomts/Documents/DaisyExamples/libDaisy/src/sys/system.h ****             skip_clocks = false;
  41:/home/nahomts/Documents/DaisyExamples/libDaisy/src/sys/system.h ****         }
  42:/home/nahomts/Documents/DaisyExamples/libDaisy/src/sys/system.h **** 
  43:/home/nahomts/Documents/DaisyExamples/libDaisy/src/sys/system.h ****         /** Method to call on the struct to set to boost mode:
  44:/home/nahomts/Documents/DaisyExamples/libDaisy/src/sys/system.h ****          ** CPU Freq set to 480MHz
  45:/home/nahomts/Documents/DaisyExamples/libDaisy/src/sys/system.h ****          ** Cache Enabled
  46:/home/nahomts/Documents/DaisyExamples/libDaisy/src/sys/system.h ****          ** */
  47:/home/nahomts/Documents/DaisyExamples/libDaisy/src/sys/system.h ****         void Boost()
  48:/home/nahomts/Documents/DaisyExamples/libDaisy/src/sys/system.h ****         {
  49:/home/nahomts/Documents/DaisyExamples/libDaisy/src/sys/system.h ****             cpu_freq    = SysClkFreq::FREQ_480MHZ;
  50:/home/nahomts/Documents/DaisyExamples/libDaisy/src/sys/system.h ****             use_dcache  = true;
  51:/home/nahomts/Documents/DaisyExamples/libDaisy/src/sys/system.h ****             use_icache  = true;
  52:/home/nahomts/Documents/DaisyExamples/libDaisy/src/sys/system.h ****             skip_clocks = false;
  53:/home/nahomts/Documents/DaisyExamples/libDaisy/src/sys/system.h ****         }
  54:/home/nahomts/Documents/DaisyExamples/libDaisy/src/sys/system.h **** 
  55:/home/nahomts/Documents/DaisyExamples/libDaisy/src/sys/system.h ****         SysClkFreq cpu_freq;
  56:/home/nahomts/Documents/DaisyExamples/libDaisy/src/sys/system.h ****         bool       use_dcache;
ARM GAS  /tmp/cc06O66m.s 			page 3


  57:/home/nahomts/Documents/DaisyExamples/libDaisy/src/sys/system.h ****         bool       use_icache;
  58:/home/nahomts/Documents/DaisyExamples/libDaisy/src/sys/system.h ****         bool       skip_clocks;
  59:/home/nahomts/Documents/DaisyExamples/libDaisy/src/sys/system.h ****     };
  60:/home/nahomts/Documents/DaisyExamples/libDaisy/src/sys/system.h **** 
  61:/home/nahomts/Documents/DaisyExamples/libDaisy/src/sys/system.h ****     /** Describes the different regions of memory available to the Daisy */
  62:/home/nahomts/Documents/DaisyExamples/libDaisy/src/sys/system.h ****     enum MemoryRegion
  63:/home/nahomts/Documents/DaisyExamples/libDaisy/src/sys/system.h ****     {
  64:/home/nahomts/Documents/DaisyExamples/libDaisy/src/sys/system.h ****         INTERNAL_FLASH = 0,
  65:/home/nahomts/Documents/DaisyExamples/libDaisy/src/sys/system.h ****         ITCMRAM,
  66:/home/nahomts/Documents/DaisyExamples/libDaisy/src/sys/system.h ****         DTCMRAM,
  67:/home/nahomts/Documents/DaisyExamples/libDaisy/src/sys/system.h ****         SRAM_D1,
  68:/home/nahomts/Documents/DaisyExamples/libDaisy/src/sys/system.h ****         SRAM_D2,
  69:/home/nahomts/Documents/DaisyExamples/libDaisy/src/sys/system.h ****         SRAM_D3,
  70:/home/nahomts/Documents/DaisyExamples/libDaisy/src/sys/system.h ****         SDRAM,
  71:/home/nahomts/Documents/DaisyExamples/libDaisy/src/sys/system.h ****         QSPI,
  72:/home/nahomts/Documents/DaisyExamples/libDaisy/src/sys/system.h ****         INVALID_ADDRESS,
  73:/home/nahomts/Documents/DaisyExamples/libDaisy/src/sys/system.h ****     };
  74:/home/nahomts/Documents/DaisyExamples/libDaisy/src/sys/system.h **** 
  75:/home/nahomts/Documents/DaisyExamples/libDaisy/src/sys/system.h ****     /** Bootloader struct for controlling bootloading parameters */
  76:/home/nahomts/Documents/DaisyExamples/libDaisy/src/sys/system.h ****     struct BootInfo
  77:/home/nahomts/Documents/DaisyExamples/libDaisy/src/sys/system.h ****     {
  78:/home/nahomts/Documents/DaisyExamples/libDaisy/src/sys/system.h ****         enum class Type : uint32_t
  79:/home/nahomts/Documents/DaisyExamples/libDaisy/src/sys/system.h ****         {
  80:/home/nahomts/Documents/DaisyExamples/libDaisy/src/sys/system.h ****             INVALID      = 0x00000000,
  81:/home/nahomts/Documents/DaisyExamples/libDaisy/src/sys/system.h ****             JUMP         = 0xDEADBEEF,
  82:/home/nahomts/Documents/DaisyExamples/libDaisy/src/sys/system.h ****             SKIP_TIMEOUT = 0x5AFEB007,
  83:/home/nahomts/Documents/DaisyExamples/libDaisy/src/sys/system.h ****             INF_TIMEOUT  = 0xB0074EFA,
  84:/home/nahomts/Documents/DaisyExamples/libDaisy/src/sys/system.h ****         } status;
  85:/home/nahomts/Documents/DaisyExamples/libDaisy/src/sys/system.h ****         uint32_t data;
  86:/home/nahomts/Documents/DaisyExamples/libDaisy/src/sys/system.h ****         enum class Version : uint32_t
  87:/home/nahomts/Documents/DaisyExamples/libDaisy/src/sys/system.h ****         {
  88:/home/nahomts/Documents/DaisyExamples/libDaisy/src/sys/system.h ****             LT_v6_0 = 0, // Less than v6.0
  89:/home/nahomts/Documents/DaisyExamples/libDaisy/src/sys/system.h ****             NONE,        // No bootloader present
  90:/home/nahomts/Documents/DaisyExamples/libDaisy/src/sys/system.h ****             v6_0,        // v6.0
  91:/home/nahomts/Documents/DaisyExamples/libDaisy/src/sys/system.h ****             v6_1,        // v6.1 or greater
  92:/home/nahomts/Documents/DaisyExamples/libDaisy/src/sys/system.h ****             LAST
  93:/home/nahomts/Documents/DaisyExamples/libDaisy/src/sys/system.h ****         } version;
  94:/home/nahomts/Documents/DaisyExamples/libDaisy/src/sys/system.h ****     };
  95:/home/nahomts/Documents/DaisyExamples/libDaisy/src/sys/system.h **** 
  96:/home/nahomts/Documents/DaisyExamples/libDaisy/src/sys/system.h ****     System() {}
  97:/home/nahomts/Documents/DaisyExamples/libDaisy/src/sys/system.h ****     ~System() {}
  38              		.loc 2 97 5 view .LVU1
  39              		.loc 2 97 5 is_stmt 0 view .LVU2
  40              	.LBE78:
  41              	.LBB79:
  42              	.LBI79:
  43              		.file 3 "/home/nahomts/Documents/DaisyExamples/libDaisy/src/hid/usb.h"
   1:/home/nahomts/Documents/DaisyExamples/libDaisy/src/hid/usb.h **** #pragma once
   2:/home/nahomts/Documents/DaisyExamples/libDaisy/src/hid/usb.h **** #ifndef DSY_HID_USB_H
   3:/home/nahomts/Documents/DaisyExamples/libDaisy/src/hid/usb.h **** #define DSY_HID_USB_H
   4:/home/nahomts/Documents/DaisyExamples/libDaisy/src/hid/usb.h **** #include <stdint.h>
   5:/home/nahomts/Documents/DaisyExamples/libDaisy/src/hid/usb.h **** #include <stdlib.h>
   6:/home/nahomts/Documents/DaisyExamples/libDaisy/src/hid/usb.h **** 
   7:/home/nahomts/Documents/DaisyExamples/libDaisy/src/hid/usb.h **** namespace daisy
   8:/home/nahomts/Documents/DaisyExamples/libDaisy/src/hid/usb.h **** /** @addtogroup human_interface
   9:/home/nahomts/Documents/DaisyExamples/libDaisy/src/hid/usb.h ****     @{
  10:/home/nahomts/Documents/DaisyExamples/libDaisy/src/hid/usb.h **** */
ARM GAS  /tmp/cc06O66m.s 			page 4


  11:/home/nahomts/Documents/DaisyExamples/libDaisy/src/hid/usb.h **** 
  12:/home/nahomts/Documents/DaisyExamples/libDaisy/src/hid/usb.h **** {
  13:/home/nahomts/Documents/DaisyExamples/libDaisy/src/hid/usb.h **** /** 
  14:/home/nahomts/Documents/DaisyExamples/libDaisy/src/hid/usb.h ****     @brief Interface for initializing and using the USB Peripherals on the daisy
  15:/home/nahomts/Documents/DaisyExamples/libDaisy/src/hid/usb.h ****     @author Stephen Hensley
  16:/home/nahomts/Documents/DaisyExamples/libDaisy/src/hid/usb.h ****     @date December 2019
  17:/home/nahomts/Documents/DaisyExamples/libDaisy/src/hid/usb.h **** */
  18:/home/nahomts/Documents/DaisyExamples/libDaisy/src/hid/usb.h **** class UsbHandle
  19:/home/nahomts/Documents/DaisyExamples/libDaisy/src/hid/usb.h **** {
  20:/home/nahomts/Documents/DaisyExamples/libDaisy/src/hid/usb.h ****   public:
  21:/home/nahomts/Documents/DaisyExamples/libDaisy/src/hid/usb.h ****     /** Return values for USBHandle Functions */
  22:/home/nahomts/Documents/DaisyExamples/libDaisy/src/hid/usb.h ****     enum class Result
  23:/home/nahomts/Documents/DaisyExamples/libDaisy/src/hid/usb.h ****     {
  24:/home/nahomts/Documents/DaisyExamples/libDaisy/src/hid/usb.h ****         OK,
  25:/home/nahomts/Documents/DaisyExamples/libDaisy/src/hid/usb.h ****         ERR,
  26:/home/nahomts/Documents/DaisyExamples/libDaisy/src/hid/usb.h ****     };
  27:/home/nahomts/Documents/DaisyExamples/libDaisy/src/hid/usb.h **** 
  28:/home/nahomts/Documents/DaisyExamples/libDaisy/src/hid/usb.h ****     /** Specified which of the two USB Peripherals to initialize. */
  29:/home/nahomts/Documents/DaisyExamples/libDaisy/src/hid/usb.h ****     enum UsbPeriph
  30:/home/nahomts/Documents/DaisyExamples/libDaisy/src/hid/usb.h ****     {
  31:/home/nahomts/Documents/DaisyExamples/libDaisy/src/hid/usb.h ****         FS_INTERNAL, /**< Internal pin */
  32:/home/nahomts/Documents/DaisyExamples/libDaisy/src/hid/usb.h ****         FS_EXTERNAL, /**< FS External D+ pin is Pin 38 (GPIO32). FS External D- pin is Pin 37 (GPIO
  33:/home/nahomts/Documents/DaisyExamples/libDaisy/src/hid/usb.h ****         FS_BOTH,     /**< Both */
  34:/home/nahomts/Documents/DaisyExamples/libDaisy/src/hid/usb.h ****     };
  35:/home/nahomts/Documents/DaisyExamples/libDaisy/src/hid/usb.h **** 
  36:/home/nahomts/Documents/DaisyExamples/libDaisy/src/hid/usb.h **** 
  37:/home/nahomts/Documents/DaisyExamples/libDaisy/src/hid/usb.h ****     /** Function called upon reception of a buffer */
  38:/home/nahomts/Documents/DaisyExamples/libDaisy/src/hid/usb.h ****     typedef void (*ReceiveCallback)(uint8_t* buff, uint32_t* len);
  39:/home/nahomts/Documents/DaisyExamples/libDaisy/src/hid/usb.h **** 
  40:/home/nahomts/Documents/DaisyExamples/libDaisy/src/hid/usb.h ****     UsbHandle() {}
  41:/home/nahomts/Documents/DaisyExamples/libDaisy/src/hid/usb.h **** 
  42:/home/nahomts/Documents/DaisyExamples/libDaisy/src/hid/usb.h ****     ~UsbHandle() {}
  44              		.loc 3 42 5 is_stmt 1 view .LVU3
  45              		.loc 3 42 5 is_stmt 0 view .LVU4
  46              	.LBE79:
  47              	.LBB80:
  48              	.LBI80:
  49              		.file 4 "/home/nahomts/Documents/DaisyExamples/libDaisy/src/per/adc.h"
   1:/home/nahomts/Documents/DaisyExamples/libDaisy/src/per/adc.h **** #pragma once
   2:/home/nahomts/Documents/DaisyExamples/libDaisy/src/per/adc.h **** #ifndef DSY_ADC_H
   3:/home/nahomts/Documents/DaisyExamples/libDaisy/src/per/adc.h **** #define DSY_ADC_H /**< Macro */
   4:/home/nahomts/Documents/DaisyExamples/libDaisy/src/per/adc.h **** #include <stdint.h>
   5:/home/nahomts/Documents/DaisyExamples/libDaisy/src/per/adc.h **** #include <stdlib.h>
   6:/home/nahomts/Documents/DaisyExamples/libDaisy/src/per/adc.h **** #include "daisy_core.h"
   7:/home/nahomts/Documents/DaisyExamples/libDaisy/src/per/adc.h **** #include "per/gpio.h"
   8:/home/nahomts/Documents/DaisyExamples/libDaisy/src/per/adc.h **** 
   9:/home/nahomts/Documents/DaisyExamples/libDaisy/src/per/adc.h **** #define DSY_ADC_MAX_CHANNELS 16 /**< Maximum number of ADC channels */
  10:/home/nahomts/Documents/DaisyExamples/libDaisy/src/per/adc.h **** 
  11:/home/nahomts/Documents/DaisyExamples/libDaisy/src/per/adc.h **** namespace daisy
  12:/home/nahomts/Documents/DaisyExamples/libDaisy/src/per/adc.h **** {
  13:/home/nahomts/Documents/DaisyExamples/libDaisy/src/per/adc.h **** /** @addtogroup per_analog
  14:/home/nahomts/Documents/DaisyExamples/libDaisy/src/per/adc.h ****     @{
  15:/home/nahomts/Documents/DaisyExamples/libDaisy/src/per/adc.h **** */
  16:/home/nahomts/Documents/DaisyExamples/libDaisy/src/per/adc.h **** 
  17:/home/nahomts/Documents/DaisyExamples/libDaisy/src/per/adc.h **** /* While there may not be many configuration options here,
  18:/home/nahomts/Documents/DaisyExamples/libDaisy/src/per/adc.h **** using a struct like this allows us to add more configuration
  19:/home/nahomts/Documents/DaisyExamples/libDaisy/src/per/adc.h **** later without breaking existing functionality.
ARM GAS  /tmp/cc06O66m.s 			page 5


  20:/home/nahomts/Documents/DaisyExamples/libDaisy/src/per/adc.h **** */
  21:/home/nahomts/Documents/DaisyExamples/libDaisy/src/per/adc.h **** 
  22:/home/nahomts/Documents/DaisyExamples/libDaisy/src/per/adc.h **** /** @brief   Configuration Structure for an ADC Channel 
  23:/home/nahomts/Documents/DaisyExamples/libDaisy/src/per/adc.h ****  *  @details This can be used to configure a a single input, 
  24:/home/nahomts/Documents/DaisyExamples/libDaisy/src/per/adc.h ****  *           or a multiplexed input, allowing up to 8 inputs on 
  25:/home/nahomts/Documents/DaisyExamples/libDaisy/src/per/adc.h ****  *           one channel.
  26:/home/nahomts/Documents/DaisyExamples/libDaisy/src/per/adc.h ****  *  @note    Sharing data lines to multiple muxes _is_ possible, but
  27:/home/nahomts/Documents/DaisyExamples/libDaisy/src/per/adc.h ****  *           each channel sharing data lines must be set to the maximum
  28:/home/nahomts/Documents/DaisyExamples/libDaisy/src/per/adc.h ****  *           number of channels, even if some multiplexers have fewer
  29:/home/nahomts/Documents/DaisyExamples/libDaisy/src/per/adc.h ****  *           inputs connected.
  30:/home/nahomts/Documents/DaisyExamples/libDaisy/src/per/adc.h **** */
  31:/home/nahomts/Documents/DaisyExamples/libDaisy/src/per/adc.h **** struct AdcChannelConfig
  32:/home/nahomts/Documents/DaisyExamples/libDaisy/src/per/adc.h **** {
  33:/home/nahomts/Documents/DaisyExamples/libDaisy/src/per/adc.h ****     /** Which pin to use for multiplexing */
  34:/home/nahomts/Documents/DaisyExamples/libDaisy/src/per/adc.h ****     enum MuxPin
  35:/home/nahomts/Documents/DaisyExamples/libDaisy/src/per/adc.h ****     {
  36:/home/nahomts/Documents/DaisyExamples/libDaisy/src/per/adc.h ****         MUX_SEL_0,    /**< & */
  37:/home/nahomts/Documents/DaisyExamples/libDaisy/src/per/adc.h ****         MUX_SEL_1,    /**< & */
  38:/home/nahomts/Documents/DaisyExamples/libDaisy/src/per/adc.h ****         MUX_SEL_2,    /**< & */
  39:/home/nahomts/Documents/DaisyExamples/libDaisy/src/per/adc.h ****         MUX_SEL_LAST, /**< & */
  40:/home/nahomts/Documents/DaisyExamples/libDaisy/src/per/adc.h ****     };
  41:/home/nahomts/Documents/DaisyExamples/libDaisy/src/per/adc.h **** 
  42:/home/nahomts/Documents/DaisyExamples/libDaisy/src/per/adc.h ****     /** \brief per channel conversion speed added to fixed time based on bitdepth, etc. */
  43:/home/nahomts/Documents/DaisyExamples/libDaisy/src/per/adc.h ****     enum ConversionSpeed
  44:/home/nahomts/Documents/DaisyExamples/libDaisy/src/per/adc.h ****     {
  45:/home/nahomts/Documents/DaisyExamples/libDaisy/src/per/adc.h ****         SPEED_1CYCLES_5,
  46:/home/nahomts/Documents/DaisyExamples/libDaisy/src/per/adc.h ****         SPEED_2CYCLES_5,
  47:/home/nahomts/Documents/DaisyExamples/libDaisy/src/per/adc.h ****         SPEED_8CYCLES_5,
  48:/home/nahomts/Documents/DaisyExamples/libDaisy/src/per/adc.h ****         SPEED_16CYCLES_5,
  49:/home/nahomts/Documents/DaisyExamples/libDaisy/src/per/adc.h ****         SPEED_32CYCLES_5,
  50:/home/nahomts/Documents/DaisyExamples/libDaisy/src/per/adc.h ****         SPEED_64CYCLES_5,
  51:/home/nahomts/Documents/DaisyExamples/libDaisy/src/per/adc.h ****         SPEED_387CYCLES_5,
  52:/home/nahomts/Documents/DaisyExamples/libDaisy/src/per/adc.h ****         SPEED_810CYCLES_5,
  53:/home/nahomts/Documents/DaisyExamples/libDaisy/src/per/adc.h ****     };
  54:/home/nahomts/Documents/DaisyExamples/libDaisy/src/per/adc.h **** 
  55:/home/nahomts/Documents/DaisyExamples/libDaisy/src/per/adc.h ****     /** Initializes a single ADC pin as an ADC. 
  56:/home/nahomts/Documents/DaisyExamples/libDaisy/src/per/adc.h ****     \param pin Pin to init.
  57:/home/nahomts/Documents/DaisyExamples/libDaisy/src/per/adc.h ****     \param speed conversion speed for this pin defaults to 8.5 cycles
  58:/home/nahomts/Documents/DaisyExamples/libDaisy/src/per/adc.h ****      */
  59:/home/nahomts/Documents/DaisyExamples/libDaisy/src/per/adc.h ****     void InitSingle(dsy_gpio_pin pin, ConversionSpeed speed = SPEED_8CYCLES_5);
  60:/home/nahomts/Documents/DaisyExamples/libDaisy/src/per/adc.h **** 
  61:/home/nahomts/Documents/DaisyExamples/libDaisy/src/per/adc.h ****     /** 
  62:/home/nahomts/Documents/DaisyExamples/libDaisy/src/per/adc.h ****     Initializes a single ADC pin as a Multiplexed ADC.
  63:/home/nahomts/Documents/DaisyExamples/libDaisy/src/per/adc.h ****     Requires a CD405X Multiplexer connected to the pin.
  64:/home/nahomts/Documents/DaisyExamples/libDaisy/src/per/adc.h ****     You only need to supply the mux pins that are required,
  65:/home/nahomts/Documents/DaisyExamples/libDaisy/src/per/adc.h ****     e.g. a 4052 mux would only require mux_0 and mux_1.
  66:/home/nahomts/Documents/DaisyExamples/libDaisy/src/per/adc.h ****     Internal Callbacks handle the pin addressing.
  67:/home/nahomts/Documents/DaisyExamples/libDaisy/src/per/adc.h ****     \param adc_pin &
  68:/home/nahomts/Documents/DaisyExamples/libDaisy/src/per/adc.h ****     \param mux_channels must be 1-8
  69:/home/nahomts/Documents/DaisyExamples/libDaisy/src/per/adc.h ****     \param mux_0 First mux pin
  70:/home/nahomts/Documents/DaisyExamples/libDaisy/src/per/adc.h ****     \param mux_1 Second mux pin
  71:/home/nahomts/Documents/DaisyExamples/libDaisy/src/per/adc.h ****     \param mux_2 Third mux pin
  72:/home/nahomts/Documents/DaisyExamples/libDaisy/src/per/adc.h ****     \param speed conversion speed for this pin defaults to 8.5 cycles
  73:/home/nahomts/Documents/DaisyExamples/libDaisy/src/per/adc.h ****     */
  74:/home/nahomts/Documents/DaisyExamples/libDaisy/src/per/adc.h ****     void InitMux(dsy_gpio_pin    adc_pin,
  75:/home/nahomts/Documents/DaisyExamples/libDaisy/src/per/adc.h ****                  size_t          mux_channels,
  76:/home/nahomts/Documents/DaisyExamples/libDaisy/src/per/adc.h ****                  dsy_gpio_pin    mux_0,
ARM GAS  /tmp/cc06O66m.s 			page 6


  77:/home/nahomts/Documents/DaisyExamples/libDaisy/src/per/adc.h ****                  dsy_gpio_pin    mux_1 = {DSY_GPIOX, 0},
  78:/home/nahomts/Documents/DaisyExamples/libDaisy/src/per/adc.h ****                  dsy_gpio_pin    mux_2 = {DSY_GPIOX, 0},
  79:/home/nahomts/Documents/DaisyExamples/libDaisy/src/per/adc.h ****                  ConversionSpeed speed = SPEED_8CYCLES_5);
  80:/home/nahomts/Documents/DaisyExamples/libDaisy/src/per/adc.h **** 
  81:/home/nahomts/Documents/DaisyExamples/libDaisy/src/per/adc.h ****     dsy_gpio        pin_;                   /**< & */
  82:/home/nahomts/Documents/DaisyExamples/libDaisy/src/per/adc.h ****     dsy_gpio        mux_pin_[MUX_SEL_LAST]; /**< & */
  83:/home/nahomts/Documents/DaisyExamples/libDaisy/src/per/adc.h ****     uint8_t         mux_channels_;          /**< & */
  84:/home/nahomts/Documents/DaisyExamples/libDaisy/src/per/adc.h ****     ConversionSpeed speed_;
  85:/home/nahomts/Documents/DaisyExamples/libDaisy/src/per/adc.h **** };
  86:/home/nahomts/Documents/DaisyExamples/libDaisy/src/per/adc.h **** 
  87:/home/nahomts/Documents/DaisyExamples/libDaisy/src/per/adc.h **** /**
  88:/home/nahomts/Documents/DaisyExamples/libDaisy/src/per/adc.h ****    @brief Handler for analog to digital conversion
  89:/home/nahomts/Documents/DaisyExamples/libDaisy/src/per/adc.h **** */
  90:/home/nahomts/Documents/DaisyExamples/libDaisy/src/per/adc.h **** class AdcHandle
  91:/home/nahomts/Documents/DaisyExamples/libDaisy/src/per/adc.h **** {
  92:/home/nahomts/Documents/DaisyExamples/libDaisy/src/per/adc.h ****   public:
  93:/home/nahomts/Documents/DaisyExamples/libDaisy/src/per/adc.h ****     /** Supported oversampling amounts */
  94:/home/nahomts/Documents/DaisyExamples/libDaisy/src/per/adc.h ****     enum OverSampling
  95:/home/nahomts/Documents/DaisyExamples/libDaisy/src/per/adc.h ****     {
  96:/home/nahomts/Documents/DaisyExamples/libDaisy/src/per/adc.h ****         OVS_NONE, /**< & */
  97:/home/nahomts/Documents/DaisyExamples/libDaisy/src/per/adc.h ****         OVS_4,    /**< & */
  98:/home/nahomts/Documents/DaisyExamples/libDaisy/src/per/adc.h ****         OVS_8,    /**< & */
  99:/home/nahomts/Documents/DaisyExamples/libDaisy/src/per/adc.h ****         OVS_16,   /**< & */
 100:/home/nahomts/Documents/DaisyExamples/libDaisy/src/per/adc.h ****         OVS_32,   /**< & */
 101:/home/nahomts/Documents/DaisyExamples/libDaisy/src/per/adc.h ****         OVS_64,   /**< & */
 102:/home/nahomts/Documents/DaisyExamples/libDaisy/src/per/adc.h ****         OVS_128,  /**< & */
 103:/home/nahomts/Documents/DaisyExamples/libDaisy/src/per/adc.h ****         OVS_256,  /**< & */
 104:/home/nahomts/Documents/DaisyExamples/libDaisy/src/per/adc.h ****         OVS_512,  /**< & */
 105:/home/nahomts/Documents/DaisyExamples/libDaisy/src/per/adc.h ****         OVS_1024, /**< & */
 106:/home/nahomts/Documents/DaisyExamples/libDaisy/src/per/adc.h ****         OVS_LAST, /**< & */
 107:/home/nahomts/Documents/DaisyExamples/libDaisy/src/per/adc.h ****     };
 108:/home/nahomts/Documents/DaisyExamples/libDaisy/src/per/adc.h **** 
 109:/home/nahomts/Documents/DaisyExamples/libDaisy/src/per/adc.h ****     AdcHandle() {}
 110:/home/nahomts/Documents/DaisyExamples/libDaisy/src/per/adc.h ****     ~AdcHandle() {}
  50              		.loc 4 110 5 is_stmt 1 view .LVU5
  51              		.loc 4 110 5 is_stmt 0 view .LVU6
  52              	.LBE80:
  53              	.LBB81:
  54              	.LBI81:
  55              		.file 5 "/home/nahomts/Documents/DaisyExamples/libDaisy/src/hid/audio.h"
   1:/home/nahomts/Documents/DaisyExamples/libDaisy/src/hid/audio.h **** #ifndef DSY_AUDIO_H
   2:/home/nahomts/Documents/DaisyExamples/libDaisy/src/hid/audio.h **** #define DSY_AUDIO_H /**< & */
   3:/home/nahomts/Documents/DaisyExamples/libDaisy/src/hid/audio.h **** 
   4:/home/nahomts/Documents/DaisyExamples/libDaisy/src/hid/audio.h **** #include "per/sai.h"
   5:/home/nahomts/Documents/DaisyExamples/libDaisy/src/hid/audio.h **** 
   6:/home/nahomts/Documents/DaisyExamples/libDaisy/src/hid/audio.h **** namespace daisy
   7:/home/nahomts/Documents/DaisyExamples/libDaisy/src/hid/audio.h **** {
   8:/home/nahomts/Documents/DaisyExamples/libDaisy/src/hid/audio.h **** /** @brief Audio Engine Handle
   9:/home/nahomts/Documents/DaisyExamples/libDaisy/src/hid/audio.h ****  *  @ingroup audio 
  10:/home/nahomts/Documents/DaisyExamples/libDaisy/src/hid/audio.h ****  *  @details This class allows for higher level access to an audio engine.
  11:/home/nahomts/Documents/DaisyExamples/libDaisy/src/hid/audio.h ****  *           If you're using a SOM like the DaisySeed or DaisyPatchSM (or any 
  12:/home/nahomts/Documents/DaisyExamples/libDaisy/src/hid/audio.h ****  *            board that includes one of those objects) then the intialization
  13:/home/nahomts/Documents/DaisyExamples/libDaisy/src/hid/audio.h ****  *            is already taken  care of.
  14:/home/nahomts/Documents/DaisyExamples/libDaisy/src/hid/audio.h ****  *           If you're setting up your own custom hardware, or need to make changes
  15:/home/nahomts/Documents/DaisyExamples/libDaisy/src/hid/audio.h ****  *           you will have to take the following steps:
  16:/home/nahomts/Documents/DaisyExamples/libDaisy/src/hid/audio.h ****  *             1. Create and Initialize an SaiHandle or two depending on your requirements
  17:/home/nahomts/Documents/DaisyExamples/libDaisy/src/hid/audio.h ****  *             2. Initialize the Audio Handle with the desired settings and the Initialized SaiHand
ARM GAS  /tmp/cc06O66m.s 			page 7


  18:/home/nahomts/Documents/DaisyExamples/libDaisy/src/hid/audio.h ****  *             3. If the connected codec requires special configuration or initialization, do so
  19:/home/nahomts/Documents/DaisyExamples/libDaisy/src/hid/audio.h ****  *             4. Write a callback method using either the AudioCallback or the InterleavingAudioCa
  20:/home/nahomts/Documents/DaisyExamples/libDaisy/src/hid/audio.h ****  *             5. Start the Audio using one of the StartAudio function
  21:/home/nahomts/Documents/DaisyExamples/libDaisy/src/hid/audio.h ****  */
  22:/home/nahomts/Documents/DaisyExamples/libDaisy/src/hid/audio.h **** class AudioHandle
  23:/home/nahomts/Documents/DaisyExamples/libDaisy/src/hid/audio.h **** {
  24:/home/nahomts/Documents/DaisyExamples/libDaisy/src/hid/audio.h ****   public:
  25:/home/nahomts/Documents/DaisyExamples/libDaisy/src/hid/audio.h ****     /** Manually configurable details about the Audio Engine */
  26:/home/nahomts/Documents/DaisyExamples/libDaisy/src/hid/audio.h ****     /** TODO: Figure out how to get samplerate in here. */
  27:/home/nahomts/Documents/DaisyExamples/libDaisy/src/hid/audio.h ****     struct Config
  28:/home/nahomts/Documents/DaisyExamples/libDaisy/src/hid/audio.h ****     {
  29:/home/nahomts/Documents/DaisyExamples/libDaisy/src/hid/audio.h ****         /** number of samples to process per callback */
  30:/home/nahomts/Documents/DaisyExamples/libDaisy/src/hid/audio.h ****         size_t blocksize;
  31:/home/nahomts/Documents/DaisyExamples/libDaisy/src/hid/audio.h **** 
  32:/home/nahomts/Documents/DaisyExamples/libDaisy/src/hid/audio.h ****         /**< Sample rate of audio */
  33:/home/nahomts/Documents/DaisyExamples/libDaisy/src/hid/audio.h ****         SaiHandle::Config::SampleRate samplerate;
  34:/home/nahomts/Documents/DaisyExamples/libDaisy/src/hid/audio.h **** 
  35:/home/nahomts/Documents/DaisyExamples/libDaisy/src/hid/audio.h ****         /** factor for adjustment before and after callback for hardware that may have extra headro
  36:/home/nahomts/Documents/DaisyExamples/libDaisy/src/hid/audio.h ****         float postgain;
  37:/home/nahomts/Documents/DaisyExamples/libDaisy/src/hid/audio.h **** 
  38:/home/nahomts/Documents/DaisyExamples/libDaisy/src/hid/audio.h ****         /** factor for additional one-sided compensation to audio path for hardware that may
  39:/home/nahomts/Documents/DaisyExamples/libDaisy/src/hid/audio.h ****          *  have unequal input/output ranges
  40:/home/nahomts/Documents/DaisyExamples/libDaisy/src/hid/audio.h ****          */
  41:/home/nahomts/Documents/DaisyExamples/libDaisy/src/hid/audio.h ****         float output_compensation;
  42:/home/nahomts/Documents/DaisyExamples/libDaisy/src/hid/audio.h **** 
  43:/home/nahomts/Documents/DaisyExamples/libDaisy/src/hid/audio.h ****         /** Sets default values for config struct */
  44:/home/nahomts/Documents/DaisyExamples/libDaisy/src/hid/audio.h ****         Config()
  45:/home/nahomts/Documents/DaisyExamples/libDaisy/src/hid/audio.h ****         : blocksize(48),
  46:/home/nahomts/Documents/DaisyExamples/libDaisy/src/hid/audio.h ****           samplerate(SaiHandle::Config::SampleRate::SAI_48KHZ),
  47:/home/nahomts/Documents/DaisyExamples/libDaisy/src/hid/audio.h ****           postgain(1.f),
  48:/home/nahomts/Documents/DaisyExamples/libDaisy/src/hid/audio.h ****           output_compensation(1.f)
  49:/home/nahomts/Documents/DaisyExamples/libDaisy/src/hid/audio.h ****         {
  50:/home/nahomts/Documents/DaisyExamples/libDaisy/src/hid/audio.h ****         }
  51:/home/nahomts/Documents/DaisyExamples/libDaisy/src/hid/audio.h ****     };
  52:/home/nahomts/Documents/DaisyExamples/libDaisy/src/hid/audio.h **** 
  53:/home/nahomts/Documents/DaisyExamples/libDaisy/src/hid/audio.h ****     enum class Result
  54:/home/nahomts/Documents/DaisyExamples/libDaisy/src/hid/audio.h ****     {
  55:/home/nahomts/Documents/DaisyExamples/libDaisy/src/hid/audio.h ****         OK,
  56:/home/nahomts/Documents/DaisyExamples/libDaisy/src/hid/audio.h ****         ERR,
  57:/home/nahomts/Documents/DaisyExamples/libDaisy/src/hid/audio.h ****     };
  58:/home/nahomts/Documents/DaisyExamples/libDaisy/src/hid/audio.h **** 
  59:/home/nahomts/Documents/DaisyExamples/libDaisy/src/hid/audio.h ****     /** Non-Interleaving input buffer
  60:/home/nahomts/Documents/DaisyExamples/libDaisy/src/hid/audio.h ****      * Buffer arranged by float[chn][sample] 
  61:/home/nahomts/Documents/DaisyExamples/libDaisy/src/hid/audio.h ****      * const so that the user can't modify the input
  62:/home/nahomts/Documents/DaisyExamples/libDaisy/src/hid/audio.h ****      */
  63:/home/nahomts/Documents/DaisyExamples/libDaisy/src/hid/audio.h ****     typedef const float* const* InputBuffer;
  64:/home/nahomts/Documents/DaisyExamples/libDaisy/src/hid/audio.h **** 
  65:/home/nahomts/Documents/DaisyExamples/libDaisy/src/hid/audio.h ****     /** Non-Interleaving output buffer
  66:/home/nahomts/Documents/DaisyExamples/libDaisy/src/hid/audio.h ****      * Arranged by float[chn][sample] 
  67:/home/nahomts/Documents/DaisyExamples/libDaisy/src/hid/audio.h ****      */
  68:/home/nahomts/Documents/DaisyExamples/libDaisy/src/hid/audio.h ****     typedef float** OutputBuffer;
  69:/home/nahomts/Documents/DaisyExamples/libDaisy/src/hid/audio.h **** 
  70:/home/nahomts/Documents/DaisyExamples/libDaisy/src/hid/audio.h ****     /** Type for a Non-Interleaving audio callback 
  71:/home/nahomts/Documents/DaisyExamples/libDaisy/src/hid/audio.h ****      * Non-Interleaving audio callbacks in daisy will be of this type
  72:/home/nahomts/Documents/DaisyExamples/libDaisy/src/hid/audio.h ****      */
  73:/home/nahomts/Documents/DaisyExamples/libDaisy/src/hid/audio.h ****     typedef void (*AudioCallback)(InputBuffer  in,
  74:/home/nahomts/Documents/DaisyExamples/libDaisy/src/hid/audio.h ****                                   OutputBuffer out,
ARM GAS  /tmp/cc06O66m.s 			page 8


  75:/home/nahomts/Documents/DaisyExamples/libDaisy/src/hid/audio.h ****                                   size_t       size);
  76:/home/nahomts/Documents/DaisyExamples/libDaisy/src/hid/audio.h **** 
  77:/home/nahomts/Documents/DaisyExamples/libDaisy/src/hid/audio.h ****     /** Interleaving Input buffer
  78:/home/nahomts/Documents/DaisyExamples/libDaisy/src/hid/audio.h ****      ** audio is prepared as { L0, R0, L1, R1, . . . LN, RN }]
  79:/home/nahomts/Documents/DaisyExamples/libDaisy/src/hid/audio.h ****      ** this is const, as the user shouldn't modify it
  80:/home/nahomts/Documents/DaisyExamples/libDaisy/src/hid/audio.h ****     */
  81:/home/nahomts/Documents/DaisyExamples/libDaisy/src/hid/audio.h ****     typedef const float* InterleavingInputBuffer;
  82:/home/nahomts/Documents/DaisyExamples/libDaisy/src/hid/audio.h **** 
  83:/home/nahomts/Documents/DaisyExamples/libDaisy/src/hid/audio.h ****     /** Interleaving Output buffer 
  84:/home/nahomts/Documents/DaisyExamples/libDaisy/src/hid/audio.h ****      ** audio is prepared as { L0, R0, L1, R1, . . . LN, RN }
  85:/home/nahomts/Documents/DaisyExamples/libDaisy/src/hid/audio.h ****     */
  86:/home/nahomts/Documents/DaisyExamples/libDaisy/src/hid/audio.h ****     typedef float* InterleavingOutputBuffer;
  87:/home/nahomts/Documents/DaisyExamples/libDaisy/src/hid/audio.h **** 
  88:/home/nahomts/Documents/DaisyExamples/libDaisy/src/hid/audio.h ****     /** Interleaving Audio Callback 
  89:/home/nahomts/Documents/DaisyExamples/libDaisy/src/hid/audio.h ****      * Interleaving audio callbacks in daisy must be of this type
  90:/home/nahomts/Documents/DaisyExamples/libDaisy/src/hid/audio.h ****      */
  91:/home/nahomts/Documents/DaisyExamples/libDaisy/src/hid/audio.h ****     typedef void (*InterleavingAudioCallback)(InterleavingInputBuffer  in,
  92:/home/nahomts/Documents/DaisyExamples/libDaisy/src/hid/audio.h ****                                               InterleavingOutputBuffer out,
  93:/home/nahomts/Documents/DaisyExamples/libDaisy/src/hid/audio.h ****                                               size_t                   size);
  94:/home/nahomts/Documents/DaisyExamples/libDaisy/src/hid/audio.h **** 
  95:/home/nahomts/Documents/DaisyExamples/libDaisy/src/hid/audio.h ****     AudioHandle() : pimpl_(nullptr) {}
  96:/home/nahomts/Documents/DaisyExamples/libDaisy/src/hid/audio.h ****     ~AudioHandle() {}
  56              		.loc 5 96 5 is_stmt 1 view .LVU7
  57              		.loc 5 96 5 is_stmt 0 view .LVU8
  58              	.LBE81:
  59              		.loc 1 22 19 view .LVU9
  60 0000 7047     		bx	lr
  61              		.cfi_endproc
  62              	.LFE2555:
  64              		.weak	_ZN5daisy9DaisySeedD1Ev
  65              		.thumb_set _ZN5daisy9DaisySeedD1Ev,_ZN5daisy9DaisySeedD2Ev
  66 0002 00BF     		.section	.text.startup.main,"ax",%progbits
  67              		.align	1
  68              		.p2align 2,,3
  69              		.global	main
  70              		.syntax unified
  71              		.thumb
  72              		.thumb_func
  73              		.fpu fpv5-d16
  75              	main:
  76              	.LFB4681:
  77              		.file 6 "I2C.cpp"
   1:I2C.cpp       **** #include "daisy_seed.h"
   2:I2C.cpp       **** #include "daisysp.h"
   3:I2C.cpp       **** 
   4:I2C.cpp       **** using namespace daisy;
   5:I2C.cpp       **** using namespace daisysp;
   6:I2C.cpp       **** 
   7:I2C.cpp       **** DaisySeed hardware;
   8:I2C.cpp       **** 
   9:I2C.cpp       **** int main()
  10:I2C.cpp       **** {
  78              		.loc 6 10 1 is_stmt 1 view -0
  79              		.cfi_startproc
  80              		@ args = 0, pretend = 0, frame = 40
  81              		@ frame_needed = 0, uses_anonymous_args = 0
  11:I2C.cpp       ****     // Initialize the Daisy Seed hardware (including LED)
ARM GAS  /tmp/cc06O66m.s 			page 9


  12:I2C.cpp       ****     hardware.Init();
  82              		.loc 6 12 5 view .LVU11
  10:I2C.cpp       ****     // Initialize the Daisy Seed hardware (including LED)
  83              		.loc 6 10 1 is_stmt 0 view .LVU12
  84 0000 30B5     		push	{r4, r5, lr}
  85              		.cfi_def_cfa_offset 12
  86              		.cfi_offset 4, -12
  87              		.cfi_offset 5, -8
  88              		.cfi_offset 14, -4
  89              		.loc 6 12 18 view .LVU13
  90 0002 0021     		movs	r1, #0
  10:I2C.cpp       ****     // Initialize the Daisy Seed hardware (including LED)
  91              		.loc 6 10 1 view .LVU14
  92 0004 8DB0     		sub	sp, sp, #52
  93              		.cfi_def_cfa_offset 64
  94              		.loc 6 12 18 view .LVU15
  95 0006 2348     		ldr	r0, .L11
  96 0008 FFF7FEFF 		bl	_ZN5daisy9DaisySeed4InitEb
  97              	.LVL1:
  13:I2C.cpp       **** 
  14:I2C.cpp       ****     // Configure the I2C handle
  15:I2C.cpp       ****     I2CHandle::Config i2c1_conf;
  98              		.loc 6 15 5 is_stmt 1 view .LVU16
  99              	.LBB82:
 100              	.LBI82:
 101              		.file 7 "/home/nahomts/Documents/DaisyExamples/libDaisy/src/per/i2c.h"
   1:/home/nahomts/Documents/DaisyExamples/libDaisy/src/per/i2c.h **** #pragma once
   2:/home/nahomts/Documents/DaisyExamples/libDaisy/src/per/i2c.h **** #include "daisy_core.h"
   3:/home/nahomts/Documents/DaisyExamples/libDaisy/src/per/i2c.h **** 
   4:/home/nahomts/Documents/DaisyExamples/libDaisy/src/per/i2c.h **** namespace daisy
   5:/home/nahomts/Documents/DaisyExamples/libDaisy/src/per/i2c.h **** {
   6:/home/nahomts/Documents/DaisyExamples/libDaisy/src/per/i2c.h **** /** A handle for interacting with an I2C peripheral. This is a dumb
   7:/home/nahomts/Documents/DaisyExamples/libDaisy/src/per/i2c.h ****  *  gateway that internally points to one of the four I2C peripherals
   8:/home/nahomts/Documents/DaisyExamples/libDaisy/src/per/i2c.h ****  *  after it was initialised. It can then be copied and passed around.
   9:/home/nahomts/Documents/DaisyExamples/libDaisy/src/per/i2c.h ****  *  Use an I2CHandle like this:
  10:/home/nahomts/Documents/DaisyExamples/libDaisy/src/per/i2c.h ****  *  
  11:/home/nahomts/Documents/DaisyExamples/libDaisy/src/per/i2c.h ****  *      // setup the configuration
  12:/home/nahomts/Documents/DaisyExamples/libDaisy/src/per/i2c.h ****  *      I2CHandle::Config i2c_conf;
  13:/home/nahomts/Documents/DaisyExamples/libDaisy/src/per/i2c.h ****  *      i2c_conf.periph = I2CHandle::Config::Peripheral::I2C_1;
  14:/home/nahomts/Documents/DaisyExamples/libDaisy/src/per/i2c.h ****  *      i2c_conf.speed  = I2CHandle::Config::Speed::I2C_400KHZ;
  15:/home/nahomts/Documents/DaisyExamples/libDaisy/src/per/i2c.h ****  *      i2c_conf.mode   = I2CHandle::Config::Mode::Master;
  16:/home/nahomts/Documents/DaisyExamples/libDaisy/src/per/i2c.h ****  *      i2c_conf.pin_config.scl  = {DSY_GPIOB, 8};
  17:/home/nahomts/Documents/DaisyExamples/libDaisy/src/per/i2c.h ****  *      i2c_conf.pin_config.sda  = {DSY_GPIOB, 9};
  18:/home/nahomts/Documents/DaisyExamples/libDaisy/src/per/i2c.h ****  *      // initialise the peripheral
  19:/home/nahomts/Documents/DaisyExamples/libDaisy/src/per/i2c.h ****  *      I2CHandle i2c;
  20:/home/nahomts/Documents/DaisyExamples/libDaisy/src/per/i2c.h ****  *      i2c.Init(i2c_conf);
  21:/home/nahomts/Documents/DaisyExamples/libDaisy/src/per/i2c.h ****  *      // now i2c points to the corresponding peripheral and can be used.
  22:/home/nahomts/Documents/DaisyExamples/libDaisy/src/per/i2c.h ****  *      i2c.TransmitBlocking( ... );
  23:/home/nahomts/Documents/DaisyExamples/libDaisy/src/per/i2c.h ****  */
  24:/home/nahomts/Documents/DaisyExamples/libDaisy/src/per/i2c.h **** class I2CHandle
  25:/home/nahomts/Documents/DaisyExamples/libDaisy/src/per/i2c.h **** {
  26:/home/nahomts/Documents/DaisyExamples/libDaisy/src/per/i2c.h ****   public:
  27:/home/nahomts/Documents/DaisyExamples/libDaisy/src/per/i2c.h ****     /** Contains settings for initialising an I2C interface. */
  28:/home/nahomts/Documents/DaisyExamples/libDaisy/src/per/i2c.h ****     struct Config
 102              		.loc 7 28 12 view .LVU17
 103              	.LBE82:
  16:I2C.cpp       ****     i2c1_conf.periph = I2CHandle::Config::Peripheral::I2C_1;
ARM GAS  /tmp/cc06O66m.s 			page 10


  17:I2C.cpp       ****     i2c1_conf.mode = I2CHandle::Config::Mode::I2C_MASTER;
  18:I2C.cpp       ****     i2c1_conf.speed = I2CHandle::Config::Speed::I2C_400KHZ;
  19:I2C.cpp       ****     i2c1_conf.pin_config.scl = seed::D11;
 104              		.loc 6 19 30 is_stmt 0 view .LVU18
 105 000c 224A     		ldr	r2, .L11+4
  16:I2C.cpp       ****     i2c1_conf.periph = I2CHandle::Config::Peripheral::I2C_1;
 106              		.loc 6 16 22 view .LVU19
 107 000e 0023     		movs	r3, #0
 108              		.loc 6 19 30 view .LVU20
 109 0010 1188     		ldrh	r1, [r2]
  20:I2C.cpp       ****     i2c1_conf.pin_config.sda = seed::D12;
 110              		.loc 6 20 30 view .LVU21
 111 0012 9088     		ldrh	r0, [r2, #4]
 112              	.LBB85:
 113              	.LBB83:
 114              		.loc 7 28 12 view .LVU22
 115 0014 1022     		movs	r2, #16
 116              	.LBE83:
 117              	.LBE85:
  19:I2C.cpp       ****     i2c1_conf.pin_config.sda = seed::D12;
 118              		.loc 6 19 30 view .LVU23
 119 0016 ADF82010 		strh	r1, [sp, #32]	@ movhi
  21:I2C.cpp       **** 
  22:I2C.cpp       ****     // Initialize the I2C handle
  23:I2C.cpp       ****     I2CHandle i2c1_handle;
  24:I2C.cpp       ****     if (i2c1_handle.Init(i2c1_conf) != I2CHandle::Result::OK)
 120              		.loc 6 24 25 view .LVU24
 121 001a 07A9     		add	r1, sp, #28
 122              	.LVL2:
 123              	.LBB86:
 124              	.LBB84:
 125              		.loc 7 28 12 view .LVU25
 126 001c 8DF82C20 		strb	r2, [sp, #44]
 127              	.LVL3:
 128              		.loc 7 28 12 view .LVU26
 129              	.LBE84:
 130              	.LBE86:
  16:I2C.cpp       ****     i2c1_conf.mode = I2CHandle::Config::Mode::I2C_MASTER;
 131              		.loc 6 16 5 is_stmt 1 view .LVU27
  17:I2C.cpp       ****     i2c1_conf.speed = I2CHandle::Config::Speed::I2C_400KHZ;
 132              		.loc 6 17 5 view .LVU28
  18:I2C.cpp       ****     i2c1_conf.pin_config.scl = seed::D11;
 133              		.loc 6 18 5 view .LVU29
  18:I2C.cpp       ****     i2c1_conf.pin_config.scl = seed::D11;
 134              		.loc 6 18 21 is_stmt 0 view .LVU30
 135 0020 0122     		movs	r2, #1
  20:I2C.cpp       **** 
 136              		.loc 6 20 30 view .LVU31
 137 0022 ADF82200 		strh	r0, [sp, #34]	@ movhi
 138              		.loc 6 24 25 view .LVU32
 139 0026 02A8     		add	r0, sp, #8
  16:I2C.cpp       ****     i2c1_conf.mode = I2CHandle::Config::Mode::I2C_MASTER;
 140              		.loc 6 16 22 view .LVU33
 141 0028 0793     		str	r3, [sp, #28]
  17:I2C.cpp       ****     i2c1_conf.speed = I2CHandle::Config::Speed::I2C_400KHZ;
 142              		.loc 6 17 20 view .LVU34
 143 002a 0A93     		str	r3, [sp, #40]
ARM GAS  /tmp/cc06O66m.s 			page 11


 144              	.LBB87:
 145              	.LBB88:
 146              	.LBB89:
  29:/home/nahomts/Documents/DaisyExamples/libDaisy/src/per/i2c.h ****     {
  30:/home/nahomts/Documents/DaisyExamples/libDaisy/src/per/i2c.h ****         /** Specifies whether the interface will operate in master or slave mode. */
  31:/home/nahomts/Documents/DaisyExamples/libDaisy/src/per/i2c.h ****         enum class Mode
  32:/home/nahomts/Documents/DaisyExamples/libDaisy/src/per/i2c.h ****         {
  33:/home/nahomts/Documents/DaisyExamples/libDaisy/src/per/i2c.h ****             I2C_MASTER,
  34:/home/nahomts/Documents/DaisyExamples/libDaisy/src/per/i2c.h ****             I2C_SLAVE,
  35:/home/nahomts/Documents/DaisyExamples/libDaisy/src/per/i2c.h ****         };
  36:/home/nahomts/Documents/DaisyExamples/libDaisy/src/per/i2c.h **** 
  37:/home/nahomts/Documents/DaisyExamples/libDaisy/src/per/i2c.h ****         /** Specifices the internal peripheral to use (these are mapped to different pins on the ha
  38:/home/nahomts/Documents/DaisyExamples/libDaisy/src/per/i2c.h ****         enum class Peripheral
  39:/home/nahomts/Documents/DaisyExamples/libDaisy/src/per/i2c.h ****         {
  40:/home/nahomts/Documents/DaisyExamples/libDaisy/src/per/i2c.h ****             I2C_1 = 0, /**< & */
  41:/home/nahomts/Documents/DaisyExamples/libDaisy/src/per/i2c.h ****             I2C_2,     /**< & */
  42:/home/nahomts/Documents/DaisyExamples/libDaisy/src/per/i2c.h ****             I2C_3,     /**< & */
  43:/home/nahomts/Documents/DaisyExamples/libDaisy/src/per/i2c.h ****             I2C_4,     /**< & */
  44:/home/nahomts/Documents/DaisyExamples/libDaisy/src/per/i2c.h ****         };
  45:/home/nahomts/Documents/DaisyExamples/libDaisy/src/per/i2c.h **** 
  46:/home/nahomts/Documents/DaisyExamples/libDaisy/src/per/i2c.h ****         /** Rate at which the clock/data will be sent/received. The device being used will have max
  47:/home/nahomts/Documents/DaisyExamples/libDaisy/src/per/i2c.h ****          *  1MHZ Mode is currently 886kHz
  48:/home/nahomts/Documents/DaisyExamples/libDaisy/src/per/i2c.h ****          */
  49:/home/nahomts/Documents/DaisyExamples/libDaisy/src/per/i2c.h ****         enum class Speed
  50:/home/nahomts/Documents/DaisyExamples/libDaisy/src/per/i2c.h ****         {
  51:/home/nahomts/Documents/DaisyExamples/libDaisy/src/per/i2c.h ****             I2C_100KHZ, /**< & */
  52:/home/nahomts/Documents/DaisyExamples/libDaisy/src/per/i2c.h ****             I2C_400KHZ, /**< & */
  53:/home/nahomts/Documents/DaisyExamples/libDaisy/src/per/i2c.h ****             I2C_1MHZ,   /**< & */
  54:/home/nahomts/Documents/DaisyExamples/libDaisy/src/per/i2c.h ****         };
  55:/home/nahomts/Documents/DaisyExamples/libDaisy/src/per/i2c.h **** 
  56:/home/nahomts/Documents/DaisyExamples/libDaisy/src/per/i2c.h ****         Peripheral periph; /**< & */
  57:/home/nahomts/Documents/DaisyExamples/libDaisy/src/per/i2c.h ****         struct
  58:/home/nahomts/Documents/DaisyExamples/libDaisy/src/per/i2c.h ****         {
  59:/home/nahomts/Documents/DaisyExamples/libDaisy/src/per/i2c.h ****             dsy_gpio_pin scl; /**< & */
  60:/home/nahomts/Documents/DaisyExamples/libDaisy/src/per/i2c.h ****             dsy_gpio_pin sda; /**< & */
  61:/home/nahomts/Documents/DaisyExamples/libDaisy/src/per/i2c.h ****         } pin_config;         /**< & */
  62:/home/nahomts/Documents/DaisyExamples/libDaisy/src/per/i2c.h **** 
  63:/home/nahomts/Documents/DaisyExamples/libDaisy/src/per/i2c.h ****         Speed speed; /**< & */
  64:/home/nahomts/Documents/DaisyExamples/libDaisy/src/per/i2c.h ****         Mode  mode;  /**< & */
  65:/home/nahomts/Documents/DaisyExamples/libDaisy/src/per/i2c.h ****         // 0x10 is chosen as a default to avoid conflicts with reserved addresses
  66:/home/nahomts/Documents/DaisyExamples/libDaisy/src/per/i2c.h ****         uint8_t address = 0x10; /**< & */
  67:/home/nahomts/Documents/DaisyExamples/libDaisy/src/per/i2c.h ****     };
  68:/home/nahomts/Documents/DaisyExamples/libDaisy/src/per/i2c.h **** 
  69:/home/nahomts/Documents/DaisyExamples/libDaisy/src/per/i2c.h ****     /** Return values for I2C functions. */
  70:/home/nahomts/Documents/DaisyExamples/libDaisy/src/per/i2c.h ****     enum class Result
  71:/home/nahomts/Documents/DaisyExamples/libDaisy/src/per/i2c.h ****     {
  72:/home/nahomts/Documents/DaisyExamples/libDaisy/src/per/i2c.h ****         OK, /**< & */
  73:/home/nahomts/Documents/DaisyExamples/libDaisy/src/per/i2c.h ****         ERR /**< & */
  74:/home/nahomts/Documents/DaisyExamples/libDaisy/src/per/i2c.h ****     };
  75:/home/nahomts/Documents/DaisyExamples/libDaisy/src/per/i2c.h **** 
  76:/home/nahomts/Documents/DaisyExamples/libDaisy/src/per/i2c.h ****     enum class Direction
  77:/home/nahomts/Documents/DaisyExamples/libDaisy/src/per/i2c.h ****     {
  78:/home/nahomts/Documents/DaisyExamples/libDaisy/src/per/i2c.h ****         TRANSMIT, /**< & */
  79:/home/nahomts/Documents/DaisyExamples/libDaisy/src/per/i2c.h ****         RECEIVE,  /**< & */
  80:/home/nahomts/Documents/DaisyExamples/libDaisy/src/per/i2c.h ****     };
  81:/home/nahomts/Documents/DaisyExamples/libDaisy/src/per/i2c.h **** 
  82:/home/nahomts/Documents/DaisyExamples/libDaisy/src/per/i2c.h ****     I2CHandle() : pimpl_(nullptr) {}
ARM GAS  /tmp/cc06O66m.s 			page 12


 147              		.loc 7 82 33 view .LVU35
 148 002c 0293     		str	r3, [sp, #8]
 149              	.LBE89:
 150              	.LBE88:
 151              	.LBE87:
  18:I2C.cpp       ****     i2c1_conf.pin_config.scl = seed::D11;
 152              		.loc 6 18 21 view .LVU36
 153 002e 0992     		str	r2, [sp, #36]
  19:I2C.cpp       ****     i2c1_conf.pin_config.sda = seed::D12;
 154              		.loc 6 19 5 is_stmt 1 view .LVU37
  20:I2C.cpp       **** 
 155              		.loc 6 20 5 view .LVU38
  23:I2C.cpp       ****     if (i2c1_handle.Init(i2c1_conf) != I2CHandle::Result::OK)
 156              		.loc 6 23 5 view .LVU39
 157              	.LVL4:
 158              	.LBB90:
 159              	.LBI87:
 160              		.loc 7 82 5 view .LVU40
 161              		.loc 7 82 5 is_stmt 0 view .LVU41
 162              	.LBE90:
 163              		.loc 6 24 5 is_stmt 1 view .LVU42
 164              		.loc 6 24 25 is_stmt 0 view .LVU43
 165 0030 FFF7FEFF 		bl	_ZN5daisy9I2CHandle4InitERKNS0_6ConfigE
 166              	.LVL5:
 167              		.loc 6 24 5 view .LVU44
 168 0034 00B3     		cbz	r0, .L6
 169              	.L5:
  25:I2C.cpp       ****     {
  26:I2C.cpp       ****         // Init failed - rapid blink to indicate error
  27:I2C.cpp       ****         while (true)
 170              		.loc 6 27 9 is_stmt 1 discriminator 1 view .LVU45
  28:I2C.cpp       ****         {
  29:I2C.cpp       ****             hardware.SetLed(true);
 171              		.loc 6 29 13 discriminator 1 view .LVU46
 172              		.loc 6 29 28 is_stmt 0 discriminator 1 view .LVU47
 173 0036 0121     		movs	r1, #1
 174 0038 1648     		ldr	r0, .L11
 175 003a FFF7FEFF 		bl	_ZN5daisy9DaisySeed6SetLedEb
 176              	.LVL6:
  30:I2C.cpp       ****             hardware.DelayMs(100);
 177              		.loc 6 30 13 is_stmt 1 discriminator 1 view .LVU48
 178              		.loc 6 30 29 is_stmt 0 discriminator 1 view .LVU49
 179 003e 6421     		movs	r1, #100
 180 0040 1448     		ldr	r0, .L11
 181 0042 FFF7FEFF 		bl	_ZN5daisy9DaisySeed7DelayMsEj
 182              	.LVL7:
  31:I2C.cpp       ****             hardware.SetLed(false);
 183              		.loc 6 31 13 is_stmt 1 discriminator 1 view .LVU50
 184              		.loc 6 31 28 is_stmt 0 discriminator 1 view .LVU51
 185 0046 0021     		movs	r1, #0
 186 0048 1248     		ldr	r0, .L11
 187 004a FFF7FEFF 		bl	_ZN5daisy9DaisySeed6SetLedEb
 188              	.LVL8:
  32:I2C.cpp       ****             hardware.DelayMs(100);
 189              		.loc 6 32 13 is_stmt 1 discriminator 1 view .LVU52
 190              		.loc 6 32 29 is_stmt 0 discriminator 1 view .LVU53
 191 004e 6421     		movs	r1, #100
ARM GAS  /tmp/cc06O66m.s 			page 13


 192 0050 1048     		ldr	r0, .L11
 193 0052 FFF7FEFF 		bl	_ZN5daisy9DaisySeed7DelayMsEj
 194              	.LVL9:
  27:I2C.cpp       ****         {
 195              		.loc 6 27 9 is_stmt 1 discriminator 1 view .LVU54
 196 0056 EEE7     		b	.L5
 197              	.LVL10:
 198              	.L10:
 199              	.LBB91:
  33:I2C.cpp       ****         }
  34:I2C.cpp       ****     }
  35:I2C.cpp       **** 
  36:I2C.cpp       **** 
  37:I2C.cpp       ****     // Main loop
  38:I2C.cpp       **** 
  39:I2C.cpp       ****     // size of the buffer
  40:I2C.cpp       ****     uint8_t buffer[16];
  41:I2C.cpp       ****     while (true)
  42:I2C.cpp       ****     {
  43:I2C.cpp       ****         // Try to receive data -- got from 
  44:I2C.cpp       ****         // https://daisy.audio/tutorials/_a9_Getting_Started-I2C/#blocking-transmit-and-receive
  45:I2C.cpp       ****         I2CHandle::Result result = i2c1_handle.ReceiveBlocking(
  46:I2C.cpp       ****             0x28,
  47:I2C.cpp       ****             buffer,
  48:I2C.cpp       ****             sizeof(buffer),
  49:I2C.cpp       ****             1000
  50:I2C.cpp       ****         );
  51:I2C.cpp       **** 
  52:I2C.cpp       ****         // Flash LED if data was received successfully
  53:I2C.cpp       ****         if (result == I2CHandle::Result::OK)
  54:I2C.cpp       ****         {
  55:I2C.cpp       ****             hardware.SetLed(true);
 200              		.loc 6 55 13 view .LVU55
 201              		.loc 6 55 28 is_stmt 0 view .LVU56
 202 0058 0E48     		ldr	r0, .L11
 203              	.LVL11:
 204              		.loc 6 55 28 view .LVU57
 205 005a 0121     		movs	r1, #1
 206 005c FFF7FEFF 		bl	_ZN5daisy9DaisySeed6SetLedEb
 207              	.LVL12:
  56:I2C.cpp       ****             hardware.DelayMs(1000);
 208              		.loc 6 56 13 is_stmt 1 view .LVU58
 209              		.loc 6 56 29 is_stmt 0 view .LVU59
 210 0060 2946     		mov	r1, r5
 211 0062 0C48     		ldr	r0, .L11
 212 0064 FFF7FEFF 		bl	_ZN5daisy9DaisySeed7DelayMsEj
 213              	.LVL13:
  57:I2C.cpp       ****             hardware.SetLed(false);
 214              		.loc 6 57 13 is_stmt 1 view .LVU60
 215              		.loc 6 57 28 is_stmt 0 view .LVU61
 216 0068 2146     		mov	r1, r4
 217 006a 0A48     		ldr	r0, .L11
 218 006c FFF7FEFF 		bl	_ZN5daisy9DaisySeed6SetLedEb
 219              	.LVL14:
  58:I2C.cpp       ****             hardware.DelayMs(1000);
 220              		.loc 6 58 13 is_stmt 1 view .LVU62
 221              		.loc 6 58 29 is_stmt 0 view .LVU63
ARM GAS  /tmp/cc06O66m.s 			page 14


 222 0070 2946     		mov	r1, r5
 223 0072 0848     		ldr	r0, .L11
 224 0074 FFF7FEFF 		bl	_ZN5daisy9DaisySeed7DelayMsEj
 225              	.LVL15:
 226              	.L6:
 227              		.loc 6 58 29 view .LVU64
 228              	.LBE91:
  40:I2C.cpp       ****     while (true)
 229              		.loc 6 40 5 is_stmt 1 view .LVU65
  41:I2C.cpp       ****     {
 230              		.loc 6 41 5 view .LVU66
 231              	.LBB92:
  45:I2C.cpp       ****             0x28,
 232              		.loc 6 45 9 view .LVU67
  45:I2C.cpp       ****             0x28,
 233              		.loc 6 45 63 is_stmt 0 view .LVU68
 234 0078 4FF47A75 		mov	r5, #1000
 235 007c 1023     		movs	r3, #16
 236 007e 03AA     		add	r2, sp, #12
 237 0080 2821     		movs	r1, #40
 238 0082 02A8     		add	r0, sp, #8
 239 0084 0095     		str	r5, [sp]
 240 0086 FFF7FEFF 		bl	_ZN5daisy9I2CHandle15ReceiveBlockingEtPhtm
 241              	.LVL16:
  53:I2C.cpp       ****         {
 242              		.loc 6 53 9 is_stmt 1 view .LVU69
 243 008a 0446     		mov	r4, r0
 244 008c 0028     		cmp	r0, #0
 245 008e F3D1     		bne	.L6
 246 0090 E2E7     		b	.L10
 247              	.L12:
 248 0092 00BF     		.align	2
 249              	.L11:
 250 0094 00000000 		.word	.LANCHOR0
 251 0098 00000000 		.word	.LANCHOR1
 252              	.LBE92:
 253              		.cfi_endproc
 254              	.LFE4681:
 256              		.section	.text.startup._GLOBAL__sub_I_hardware,"ax",%progbits
 257              		.align	1
 258              		.p2align 2,,3
 259              		.syntax unified
 260              		.thumb
 261              		.thumb_func
 262              		.fpu fpv5-d16
 264              	_GLOBAL__sub_I_hardware:
 265              	.LFB5244:
  59:I2C.cpp       ****         }
  60:I2C.cpp       ****     }
  61:I2C.cpp       **** }...
 266              		.loc 6 61 1 view -0
 267              		.cfi_startproc
 268              		@ args = 0, pretend = 0, frame = 0
 269              		@ frame_needed = 0, uses_anonymous_args = 0
 270              		@ link register save eliminated.
 271              	.LBB114:
 272              	.LBI114:
ARM GAS  /tmp/cc06O66m.s 			page 15


 273              		.loc 6 61 1 view .LVU71
 274              	.LVL17:
 275              	.LBB115:
 276              	.LBB116:
 277              	.LBI116:
  21:/home/nahomts/Documents/DaisyExamples/libDaisy/src/daisy_seed.h ****     ~DaisySeed() {}
 278              		.loc 1 21 5 view .LVU72
 279              	.LBB117:
 280              	.LBB118:
 281              	.LBI118:
 282              		.file 8 "/home/nahomts/Documents/DaisyExamples/libDaisy/src/per/qspi.h"
   1:/home/nahomts/Documents/DaisyExamples/libDaisy/src/per/qspi.h **** #ifndef DSY_QSPI
   2:/home/nahomts/Documents/DaisyExamples/libDaisy/src/per/qspi.h **** #define DSY_QSPI /**< Macro */
   3:/home/nahomts/Documents/DaisyExamples/libDaisy/src/per/qspi.h **** 
   4:/home/nahomts/Documents/DaisyExamples/libDaisy/src/per/qspi.h **** #ifndef UNIT_TEST // for unit tests, a dummy implementation
   5:/home/nahomts/Documents/DaisyExamples/libDaisy/src/per/qspi.h **** 
   6:/home/nahomts/Documents/DaisyExamples/libDaisy/src/per/qspi.h **** #include <cstdint>
   7:/home/nahomts/Documents/DaisyExamples/libDaisy/src/per/qspi.h **** #include "daisy_core.h" // Added for dsy_gpio_pin typedef
   8:/home/nahomts/Documents/DaisyExamples/libDaisy/src/per/qspi.h **** 
   9:/home/nahomts/Documents/DaisyExamples/libDaisy/src/per/qspi.h **** #define DSY_QSPI_TEXT       \
  10:/home/nahomts/Documents/DaisyExamples/libDaisy/src/per/qspi.h ****     __attribute__((section( \
  11:/home/nahomts/Documents/DaisyExamples/libDaisy/src/per/qspi.h ****         ".qspiflash_text"))) /**< used for reading memory in memory_mapped mode. */
  12:/home/nahomts/Documents/DaisyExamples/libDaisy/src/per/qspi.h **** #define DSY_QSPI_DATA       \
  13:/home/nahomts/Documents/DaisyExamples/libDaisy/src/per/qspi.h ****     __attribute__((section( \
  14:/home/nahomts/Documents/DaisyExamples/libDaisy/src/per/qspi.h ****         ".qspiflash_data"))) /**< used for reading memory in memory_mapped mode. */
  15:/home/nahomts/Documents/DaisyExamples/libDaisy/src/per/qspi.h **** #define DSY_QSPI_BSS        \
  16:/home/nahomts/Documents/DaisyExamples/libDaisy/src/per/qspi.h ****     __attribute__((section( \
  17:/home/nahomts/Documents/DaisyExamples/libDaisy/src/per/qspi.h ****         ".qspiflash_bss"))) /**< used for reading memory in memory_mapped mode. */
  18:/home/nahomts/Documents/DaisyExamples/libDaisy/src/per/qspi.h **** 
  19:/home/nahomts/Documents/DaisyExamples/libDaisy/src/per/qspi.h **** namespace daisy
  20:/home/nahomts/Documents/DaisyExamples/libDaisy/src/per/qspi.h **** {
  21:/home/nahomts/Documents/DaisyExamples/libDaisy/src/per/qspi.h **** /** @addtogroup serial
  22:/home/nahomts/Documents/DaisyExamples/libDaisy/src/per/qspi.h **** @{
  23:/home/nahomts/Documents/DaisyExamples/libDaisy/src/per/qspi.h **** */
  24:/home/nahomts/Documents/DaisyExamples/libDaisy/src/per/qspi.h **** 
  25:/home/nahomts/Documents/DaisyExamples/libDaisy/src/per/qspi.h **** /** 
  26:/home/nahomts/Documents/DaisyExamples/libDaisy/src/per/qspi.h ****  Driver for QSPI peripheral to interface with external flash memory. \n 
  27:/home/nahomts/Documents/DaisyExamples/libDaisy/src/per/qspi.h ****     Currently supported QSPI Devices: \n 
  28:/home/nahomts/Documents/DaisyExamples/libDaisy/src/per/qspi.h ****     * IS25LP080D
  29:/home/nahomts/Documents/DaisyExamples/libDaisy/src/per/qspi.h **** */
  30:/home/nahomts/Documents/DaisyExamples/libDaisy/src/per/qspi.h **** class QSPIHandle
  31:/home/nahomts/Documents/DaisyExamples/libDaisy/src/per/qspi.h **** {
  32:/home/nahomts/Documents/DaisyExamples/libDaisy/src/per/qspi.h ****   public:
  33:/home/nahomts/Documents/DaisyExamples/libDaisy/src/per/qspi.h ****     enum Result
  34:/home/nahomts/Documents/DaisyExamples/libDaisy/src/per/qspi.h ****     {
  35:/home/nahomts/Documents/DaisyExamples/libDaisy/src/per/qspi.h ****         OK = 0,
  36:/home/nahomts/Documents/DaisyExamples/libDaisy/src/per/qspi.h ****         ERR
  37:/home/nahomts/Documents/DaisyExamples/libDaisy/src/per/qspi.h ****     };
  38:/home/nahomts/Documents/DaisyExamples/libDaisy/src/per/qspi.h **** 
  39:/home/nahomts/Documents/DaisyExamples/libDaisy/src/per/qspi.h ****     /** Indicates the current status of the module. 
  40:/home/nahomts/Documents/DaisyExamples/libDaisy/src/per/qspi.h ****          *  Warnings are indicated by a leading W.
  41:/home/nahomts/Documents/DaisyExamples/libDaisy/src/per/qspi.h ****          *  Errors are indicated by a leading E and cause an immediate exit.
  42:/home/nahomts/Documents/DaisyExamples/libDaisy/src/per/qspi.h ****          * 
  43:/home/nahomts/Documents/DaisyExamples/libDaisy/src/per/qspi.h ****          *  \param GOOD - No errors have been reported.
  44:/home/nahomts/Documents/DaisyExamples/libDaisy/src/per/qspi.h ****          *  \param E_HAL_ERROR - HAL code did not return HAL_OK.
  45:/home/nahomts/Documents/DaisyExamples/libDaisy/src/per/qspi.h ****          *  \param E_SWITCHING_MODES - An error was encountered while switching QSPI peripheral mod
  46:/home/nahomts/Documents/DaisyExamples/libDaisy/src/per/qspi.h ****          *  \param E_INVALID_MODE - QSPI should not be written to while the program is executing fr
ARM GAS  /tmp/cc06O66m.s 			page 16


  47:/home/nahomts/Documents/DaisyExamples/libDaisy/src/per/qspi.h ****          */
  48:/home/nahomts/Documents/DaisyExamples/libDaisy/src/per/qspi.h ****     enum Status
  49:/home/nahomts/Documents/DaisyExamples/libDaisy/src/per/qspi.h ****     {
  50:/home/nahomts/Documents/DaisyExamples/libDaisy/src/per/qspi.h ****         GOOD = 0,
  51:/home/nahomts/Documents/DaisyExamples/libDaisy/src/per/qspi.h ****         E_HAL_ERROR,
  52:/home/nahomts/Documents/DaisyExamples/libDaisy/src/per/qspi.h ****         E_SWITCHING_MODES,
  53:/home/nahomts/Documents/DaisyExamples/libDaisy/src/per/qspi.h ****         E_INVALID_MODE,
  54:/home/nahomts/Documents/DaisyExamples/libDaisy/src/per/qspi.h ****     };
  55:/home/nahomts/Documents/DaisyExamples/libDaisy/src/per/qspi.h **** 
  56:/home/nahomts/Documents/DaisyExamples/libDaisy/src/per/qspi.h ****     /** Configuration structure for interfacing with QSPI Driver */
  57:/home/nahomts/Documents/DaisyExamples/libDaisy/src/per/qspi.h ****     struct Config
  58:/home/nahomts/Documents/DaisyExamples/libDaisy/src/per/qspi.h ****     {
  59:/home/nahomts/Documents/DaisyExamples/libDaisy/src/per/qspi.h ****         /** Flash Devices supported. (Both of these are more-or-less the same, just different sizes
  60:/home/nahomts/Documents/DaisyExamples/libDaisy/src/per/qspi.h ****         enum Device
  61:/home/nahomts/Documents/DaisyExamples/libDaisy/src/per/qspi.h ****         {
  62:/home/nahomts/Documents/DaisyExamples/libDaisy/src/per/qspi.h ****             IS25LP080D,  /**< & */
  63:/home/nahomts/Documents/DaisyExamples/libDaisy/src/per/qspi.h ****             IS25LP064A,  /**< & */
  64:/home/nahomts/Documents/DaisyExamples/libDaisy/src/per/qspi.h ****             DEVICE_LAST, /**< & */
  65:/home/nahomts/Documents/DaisyExamples/libDaisy/src/per/qspi.h ****         };
  66:/home/nahomts/Documents/DaisyExamples/libDaisy/src/per/qspi.h **** 
  67:/home/nahomts/Documents/DaisyExamples/libDaisy/src/per/qspi.h ****         /** 
  68:/home/nahomts/Documents/DaisyExamples/libDaisy/src/per/qspi.h ****         Modes of operation.
  69:/home/nahomts/Documents/DaisyExamples/libDaisy/src/per/qspi.h ****         Memory Mapped mode: QSPI configured so that the QSPI can be
  70:/home/nahomts/Documents/DaisyExamples/libDaisy/src/per/qspi.h ****         read from starting address 0x90000000. Writing is not
  71:/home/nahomts/Documents/DaisyExamples/libDaisy/src/per/qspi.h ****         possible in this mode. \n 
  72:/home/nahomts/Documents/DaisyExamples/libDaisy/src/per/qspi.h ****         Indirect Polling mode: Device driver enabled. 
  73:/home/nahomts/Documents/DaisyExamples/libDaisy/src/per/qspi.h ****         */
  74:/home/nahomts/Documents/DaisyExamples/libDaisy/src/per/qspi.h ****         enum Mode
  75:/home/nahomts/Documents/DaisyExamples/libDaisy/src/per/qspi.h ****         {
  76:/home/nahomts/Documents/DaisyExamples/libDaisy/src/per/qspi.h ****             MEMORY_MAPPED,    /**< & */
  77:/home/nahomts/Documents/DaisyExamples/libDaisy/src/per/qspi.h ****             INDIRECT_POLLING, /**< & */
  78:/home/nahomts/Documents/DaisyExamples/libDaisy/src/per/qspi.h ****             MODE_LAST,
  79:/home/nahomts/Documents/DaisyExamples/libDaisy/src/per/qspi.h ****         };
  80:/home/nahomts/Documents/DaisyExamples/libDaisy/src/per/qspi.h **** 
  81:/home/nahomts/Documents/DaisyExamples/libDaisy/src/per/qspi.h ****         //SCK,  CE# (active low)
  82:/home/nahomts/Documents/DaisyExamples/libDaisy/src/per/qspi.h ****         struct
  83:/home/nahomts/Documents/DaisyExamples/libDaisy/src/per/qspi.h ****         {
  84:/home/nahomts/Documents/DaisyExamples/libDaisy/src/per/qspi.h ****             dsy_gpio_pin io0; /**< & */
  85:/home/nahomts/Documents/DaisyExamples/libDaisy/src/per/qspi.h ****             dsy_gpio_pin io1; /**< & */
  86:/home/nahomts/Documents/DaisyExamples/libDaisy/src/per/qspi.h ****             dsy_gpio_pin io2; /**< & */
  87:/home/nahomts/Documents/DaisyExamples/libDaisy/src/per/qspi.h ****             dsy_gpio_pin io3; /**< & */
  88:/home/nahomts/Documents/DaisyExamples/libDaisy/src/per/qspi.h ****             dsy_gpio_pin clk; /**< & */
  89:/home/nahomts/Documents/DaisyExamples/libDaisy/src/per/qspi.h ****             dsy_gpio_pin ncs; /**< & */
  90:/home/nahomts/Documents/DaisyExamples/libDaisy/src/per/qspi.h ****         } pin_config;
  91:/home/nahomts/Documents/DaisyExamples/libDaisy/src/per/qspi.h **** 
  92:/home/nahomts/Documents/DaisyExamples/libDaisy/src/per/qspi.h ****         Device device;
  93:/home/nahomts/Documents/DaisyExamples/libDaisy/src/per/qspi.h ****         Mode   mode;
  94:/home/nahomts/Documents/DaisyExamples/libDaisy/src/per/qspi.h ****     };
  95:/home/nahomts/Documents/DaisyExamples/libDaisy/src/per/qspi.h **** 
  96:/home/nahomts/Documents/DaisyExamples/libDaisy/src/per/qspi.h ****     /** 
  97:/home/nahomts/Documents/DaisyExamples/libDaisy/src/per/qspi.h ****         Initializes QSPI peripheral, and Resets, and prepares memory for access.
  98:/home/nahomts/Documents/DaisyExamples/libDaisy/src/per/qspi.h ****         \param config should be populated with the mode, device and pin_config before calling this 
  99:/home/nahomts/Documents/DaisyExamples/libDaisy/src/per/qspi.h ****         \return Result::OK or Result::ERR
 100:/home/nahomts/Documents/DaisyExamples/libDaisy/src/per/qspi.h ****         */
 101:/home/nahomts/Documents/DaisyExamples/libDaisy/src/per/qspi.h ****     Result Init(const Config& config);
 102:/home/nahomts/Documents/DaisyExamples/libDaisy/src/per/qspi.h **** 
 103:/home/nahomts/Documents/DaisyExamples/libDaisy/src/per/qspi.h ****     /** Returns the current config. */
ARM GAS  /tmp/cc06O66m.s 			page 17


 104:/home/nahomts/Documents/DaisyExamples/libDaisy/src/per/qspi.h ****     const Config& GetConfig() const;
 105:/home/nahomts/Documents/DaisyExamples/libDaisy/src/per/qspi.h **** 
 106:/home/nahomts/Documents/DaisyExamples/libDaisy/src/per/qspi.h ****     // Couldn't this just be called before anything else in init? That
 107:/home/nahomts/Documents/DaisyExamples/libDaisy/src/per/qspi.h ****     // would make manually calling it unnecessary.
 108:/home/nahomts/Documents/DaisyExamples/libDaisy/src/per/qspi.h ****     /** 
 109:/home/nahomts/Documents/DaisyExamples/libDaisy/src/per/qspi.h ****         Deinitializes the peripheral
 110:/home/nahomts/Documents/DaisyExamples/libDaisy/src/per/qspi.h ****         This should be called before reinitializing QSPI in a different mode.
 111:/home/nahomts/Documents/DaisyExamples/libDaisy/src/per/qspi.h ****         \return Result::OK or Result::ERR
 112:/home/nahomts/Documents/DaisyExamples/libDaisy/src/per/qspi.h ****         */
 113:/home/nahomts/Documents/DaisyExamples/libDaisy/src/per/qspi.h ****     Result DeInit();
 114:/home/nahomts/Documents/DaisyExamples/libDaisy/src/per/qspi.h **** 
 115:/home/nahomts/Documents/DaisyExamples/libDaisy/src/per/qspi.h ****     /** 
 116:/home/nahomts/Documents/DaisyExamples/libDaisy/src/per/qspi.h ****         Writes a single page to to the specified address on the QSPI chip.
 117:/home/nahomts/Documents/DaisyExamples/libDaisy/src/per/qspi.h ****         For IS25LP*, page size is 256 bytes.
 118:/home/nahomts/Documents/DaisyExamples/libDaisy/src/per/qspi.h ****         \param address Address to write to
 119:/home/nahomts/Documents/DaisyExamples/libDaisy/src/per/qspi.h ****         \param size Buffer size
 120:/home/nahomts/Documents/DaisyExamples/libDaisy/src/per/qspi.h ****         \param buffer Buffer to write
 121:/home/nahomts/Documents/DaisyExamples/libDaisy/src/per/qspi.h ****         \return Result::OK or Result::ERR
 122:/home/nahomts/Documents/DaisyExamples/libDaisy/src/per/qspi.h ****         */
 123:/home/nahomts/Documents/DaisyExamples/libDaisy/src/per/qspi.h ****     Result WritePage(uint32_t address, uint32_t size, uint8_t* buffer);
 124:/home/nahomts/Documents/DaisyExamples/libDaisy/src/per/qspi.h **** 
 125:/home/nahomts/Documents/DaisyExamples/libDaisy/src/per/qspi.h ****     /** 
 126:/home/nahomts/Documents/DaisyExamples/libDaisy/src/per/qspi.h ****         Writes data in buffer to to the QSPI. Starting at address to address+size 
 127:/home/nahomts/Documents/DaisyExamples/libDaisy/src/per/qspi.h ****         \param address Address to write to
 128:/home/nahomts/Documents/DaisyExamples/libDaisy/src/per/qspi.h ****         \param size Buffer size
 129:/home/nahomts/Documents/DaisyExamples/libDaisy/src/per/qspi.h ****         \param buffer Buffer to write
 130:/home/nahomts/Documents/DaisyExamples/libDaisy/src/per/qspi.h ****         \return Result::OK or Result::ERR
 131:/home/nahomts/Documents/DaisyExamples/libDaisy/src/per/qspi.h ****         */
 132:/home/nahomts/Documents/DaisyExamples/libDaisy/src/per/qspi.h ****     Result Write(uint32_t address, uint32_t size, uint8_t* buffer);
 133:/home/nahomts/Documents/DaisyExamples/libDaisy/src/per/qspi.h **** 
 134:/home/nahomts/Documents/DaisyExamples/libDaisy/src/per/qspi.h ****     /** 
 135:/home/nahomts/Documents/DaisyExamples/libDaisy/src/per/qspi.h ****         Erases the area specified on the chip.
 136:/home/nahomts/Documents/DaisyExamples/libDaisy/src/per/qspi.h ****         Erasures will happen by 4K, 32K or 64K increments.
 137:/home/nahomts/Documents/DaisyExamples/libDaisy/src/per/qspi.h ****         Smallest erase possible is 4kB at a time. (on IS25LP*)
 138:/home/nahomts/Documents/DaisyExamples/libDaisy/src/per/qspi.h ****         \param start_addr Address to begin erasing from
 139:/home/nahomts/Documents/DaisyExamples/libDaisy/src/per/qspi.h ****         \param end_addr  Address to stop erasing at
 140:/home/nahomts/Documents/DaisyExamples/libDaisy/src/per/qspi.h ****         \return Result::OK or Result::ERR
 141:/home/nahomts/Documents/DaisyExamples/libDaisy/src/per/qspi.h ****         */
 142:/home/nahomts/Documents/DaisyExamples/libDaisy/src/per/qspi.h ****     Result Erase(uint32_t start_addr, uint32_t end_addr);
 143:/home/nahomts/Documents/DaisyExamples/libDaisy/src/per/qspi.h **** 
 144:/home/nahomts/Documents/DaisyExamples/libDaisy/src/per/qspi.h ****     /**  
 145:/home/nahomts/Documents/DaisyExamples/libDaisy/src/per/qspi.h ****          Erases a single sector of the chip.  
 146:/home/nahomts/Documents/DaisyExamples/libDaisy/src/per/qspi.h ****         TODO: Document the size of this function. 
 147:/home/nahomts/Documents/DaisyExamples/libDaisy/src/per/qspi.h ****         \param address Address of sector to erase
 148:/home/nahomts/Documents/DaisyExamples/libDaisy/src/per/qspi.h ****         \return Result::OK or Result::ERR
 149:/home/nahomts/Documents/DaisyExamples/libDaisy/src/per/qspi.h ****         */
 150:/home/nahomts/Documents/DaisyExamples/libDaisy/src/per/qspi.h ****     Result EraseSector(uint32_t address);
 151:/home/nahomts/Documents/DaisyExamples/libDaisy/src/per/qspi.h **** 
 152:/home/nahomts/Documents/DaisyExamples/libDaisy/src/per/qspi.h ****     /** Returns the current class status. Useful for debugging.
 153:/home/nahomts/Documents/DaisyExamples/libDaisy/src/per/qspi.h ****      *  \returns Status
 154:/home/nahomts/Documents/DaisyExamples/libDaisy/src/per/qspi.h ****      */
 155:/home/nahomts/Documents/DaisyExamples/libDaisy/src/per/qspi.h ****     Status GetStatus();
 156:/home/nahomts/Documents/DaisyExamples/libDaisy/src/per/qspi.h **** 
 157:/home/nahomts/Documents/DaisyExamples/libDaisy/src/per/qspi.h ****     /** Returns a pointer to the actual memory used 
 158:/home/nahomts/Documents/DaisyExamples/libDaisy/src/per/qspi.h ****      *  The memory at this address is read-only
 159:/home/nahomts/Documents/DaisyExamples/libDaisy/src/per/qspi.h ****      *  to write to it use the Write function.
 160:/home/nahomts/Documents/DaisyExamples/libDaisy/src/per/qspi.h ****      * 
ARM GAS  /tmp/cc06O66m.s 			page 18


 161:/home/nahomts/Documents/DaisyExamples/libDaisy/src/per/qspi.h ****      *  \param offset returns the pointer starting this 
 162:/home/nahomts/Documents/DaisyExamples/libDaisy/src/per/qspi.h ****      *                many bytes into the memory
 163:/home/nahomts/Documents/DaisyExamples/libDaisy/src/per/qspi.h ****     */
 164:/home/nahomts/Documents/DaisyExamples/libDaisy/src/per/qspi.h ****     void* GetData(uint32_t offset = 0);
 165:/home/nahomts/Documents/DaisyExamples/libDaisy/src/per/qspi.h **** 
 166:/home/nahomts/Documents/DaisyExamples/libDaisy/src/per/qspi.h ****     QSPIHandle() : pimpl_(nullptr) {}
 283              		.loc 8 166 5 view .LVU73
 284              	.LBB119:
 285              	.LBB120:
 286              		.loc 8 166 34 is_stmt 0 view .LVU74
 287 0000 0448     		ldr	r0, .L14
 288 0002 0023     		movs	r3, #0
 289              	.LBE120:
 290              	.LBE119:
 291              	.LBE118:
 292              	.LBE117:
 293              	.LBE116:
   7:I2C.cpp       **** DaisySeed hardware;
 294              		.loc 6 7 11 view .LVU75
 295 0004 044A     		ldr	r2, .L14+4
 296 0006 0549     		ldr	r1, .L14+8
 297              	.LBB137:
 298              	.LBB136:
 299              	.LBB123:
 300              	.LBB122:
 301              	.LBB121:
 302              		.loc 8 166 34 view .LVU76
 303 0008 0360     		str	r3, [r0]
 304              	.LVL18:
 305              		.loc 8 166 34 view .LVU77
 306              	.LBE121:
 307              	.LBE122:
 308              	.LBE123:
 309              	.LBB124:
 310              	.LBI124:
  95:/home/nahomts/Documents/DaisyExamples/libDaisy/src/hid/audio.h ****     ~AudioHandle() {}
 311              		.loc 5 95 5 is_stmt 1 view .LVU78
 312              	.LBB125:
 313              	.LBB126:
  95:/home/nahomts/Documents/DaisyExamples/libDaisy/src/hid/audio.h ****     ~AudioHandle() {}
 314              		.loc 5 95 35 is_stmt 0 view .LVU79
 315 000a 4361     		str	r3, [r0, #20]
 316              	.LVL19:
  95:/home/nahomts/Documents/DaisyExamples/libDaisy/src/hid/audio.h ****     ~AudioHandle() {}
 317              		.loc 5 95 35 view .LVU80
 318              	.LBE126:
 319              	.LBE125:
 320              	.LBE124:
 321              	.LBB127:
 322              	.LBI127:
 109:/home/nahomts/Documents/DaisyExamples/libDaisy/src/per/adc.h ****     ~AdcHandle() {}
 323              		.loc 4 109 5 is_stmt 1 view .LVU81
 109:/home/nahomts/Documents/DaisyExamples/libDaisy/src/per/adc.h ****     ~AdcHandle() {}
 324              		.loc 4 109 5 is_stmt 0 view .LVU82
 325              	.LBE127:
 326              	.LBB128:
 327              	.LBI128:
ARM GAS  /tmp/cc06O66m.s 			page 19


 328              		.file 9 "/home/nahomts/Documents/DaisyExamples/libDaisy/src/per/dac.h"
   1:/home/nahomts/Documents/DaisyExamples/libDaisy/src/per/dac.h **** #pragma once
   2:/home/nahomts/Documents/DaisyExamples/libDaisy/src/per/dac.h **** #ifndef DSY_DAC_H
   3:/home/nahomts/Documents/DaisyExamples/libDaisy/src/per/dac.h **** #define DSY_DAC_H
   4:/home/nahomts/Documents/DaisyExamples/libDaisy/src/per/dac.h **** 
   5:/home/nahomts/Documents/DaisyExamples/libDaisy/src/per/dac.h **** #include "daisy_core.h"
   6:/home/nahomts/Documents/DaisyExamples/libDaisy/src/per/dac.h **** 
   7:/home/nahomts/Documents/DaisyExamples/libDaisy/src/per/dac.h **** namespace daisy
   8:/home/nahomts/Documents/DaisyExamples/libDaisy/src/per/dac.h **** {
   9:/home/nahomts/Documents/DaisyExamples/libDaisy/src/per/dac.h **** /** @brief DAC handle for Built-in DAC Peripheral 
  10:/home/nahomts/Documents/DaisyExamples/libDaisy/src/per/dac.h ****  *  @ingroup per_analog
  11:/home/nahomts/Documents/DaisyExamples/libDaisy/src/per/dac.h ****  ** 
  12:/home/nahomts/Documents/DaisyExamples/libDaisy/src/per/dac.h ****  ** For now only Normal Mode is supported,
  13:/home/nahomts/Documents/DaisyExamples/libDaisy/src/per/dac.h ****  ** Sample and hold mode provides reduced power consumption, but requires a bit more setup.
  14:/home/nahomts/Documents/DaisyExamples/libDaisy/src/per/dac.h ****  **
  15:/home/nahomts/Documents/DaisyExamples/libDaisy/src/per/dac.h ****  ** For now connecting the DAC through other internal peripherals is also not supported.
  16:/home/nahomts/Documents/DaisyExamples/libDaisy/src/per/dac.h ****  **
  17:/home/nahomts/Documents/DaisyExamples/libDaisy/src/per/dac.h ****  ** Since the DAC channels have dedicated pins we don't need to pass in a pin config like with
  18:/home/nahomts/Documents/DaisyExamples/libDaisy/src/per/dac.h ****  ** other modules. However, it is still important to not try to use the DAC pins for anything else.
  19:/home/nahomts/Documents/DaisyExamples/libDaisy/src/per/dac.h ****  ** DAC Channel 1 is on PA4, and DAC Channel 2 is on PA5
  20:/home/nahomts/Documents/DaisyExamples/libDaisy/src/per/dac.h ****  ***/
  21:/home/nahomts/Documents/DaisyExamples/libDaisy/src/per/dac.h **** class DacHandle
  22:/home/nahomts/Documents/DaisyExamples/libDaisy/src/per/dac.h **** {
  23:/home/nahomts/Documents/DaisyExamples/libDaisy/src/per/dac.h ****   public:
  24:/home/nahomts/Documents/DaisyExamples/libDaisy/src/per/dac.h ****     /** Return Values for the DacHandle class */
  25:/home/nahomts/Documents/DaisyExamples/libDaisy/src/per/dac.h ****     enum class Result
  26:/home/nahomts/Documents/DaisyExamples/libDaisy/src/per/dac.h ****     {
  27:/home/nahomts/Documents/DaisyExamples/libDaisy/src/per/dac.h ****         OK,
  28:/home/nahomts/Documents/DaisyExamples/libDaisy/src/per/dac.h ****         ERR,
  29:/home/nahomts/Documents/DaisyExamples/libDaisy/src/per/dac.h ****     };
  30:/home/nahomts/Documents/DaisyExamples/libDaisy/src/per/dac.h **** 
  31:/home/nahomts/Documents/DaisyExamples/libDaisy/src/per/dac.h ****     /** Selects which channel(s) will be configured for use. */
  32:/home/nahomts/Documents/DaisyExamples/libDaisy/src/per/dac.h ****     enum class Channel
  33:/home/nahomts/Documents/DaisyExamples/libDaisy/src/per/dac.h ****     {
  34:/home/nahomts/Documents/DaisyExamples/libDaisy/src/per/dac.h ****         ONE,
  35:/home/nahomts/Documents/DaisyExamples/libDaisy/src/per/dac.h ****         TWO,
  36:/home/nahomts/Documents/DaisyExamples/libDaisy/src/per/dac.h ****         BOTH,
  37:/home/nahomts/Documents/DaisyExamples/libDaisy/src/per/dac.h ****     };
  38:/home/nahomts/Documents/DaisyExamples/libDaisy/src/per/dac.h **** 
  39:/home/nahomts/Documents/DaisyExamples/libDaisy/src/per/dac.h ****     /** Sets the Mode for the DAC channels.
  40:/home/nahomts/Documents/DaisyExamples/libDaisy/src/per/dac.h ****      **
  41:/home/nahomts/Documents/DaisyExamples/libDaisy/src/per/dac.h ****      ** Polling mode uses the blocking mode to transmit a single value at a time.
  42:/home/nahomts/Documents/DaisyExamples/libDaisy/src/per/dac.h ****      **
  43:/home/nahomts/Documents/DaisyExamples/libDaisy/src/per/dac.h ****      ** DMA mode uses a buffer, and periodically transmits it triggering a 
  44:/home/nahomts/Documents/DaisyExamples/libDaisy/src/per/dac.h ****      ** callback to fill the buffer when it is ready for more samples.
  45:/home/nahomts/Documents/DaisyExamples/libDaisy/src/per/dac.h ****      ***/
  46:/home/nahomts/Documents/DaisyExamples/libDaisy/src/per/dac.h ****     enum class Mode
  47:/home/nahomts/Documents/DaisyExamples/libDaisy/src/per/dac.h ****     {
  48:/home/nahomts/Documents/DaisyExamples/libDaisy/src/per/dac.h ****         POLLING,
  49:/home/nahomts/Documents/DaisyExamples/libDaisy/src/per/dac.h ****         DMA,
  50:/home/nahomts/Documents/DaisyExamples/libDaisy/src/per/dac.h ****     };
  51:/home/nahomts/Documents/DaisyExamples/libDaisy/src/per/dac.h **** 
  52:/home/nahomts/Documents/DaisyExamples/libDaisy/src/per/dac.h ****     /** Sets the number of bits per sample transmitted out of the DAC.
  53:/home/nahomts/Documents/DaisyExamples/libDaisy/src/per/dac.h ****      ** The output range will be: 0V - VDDA
  54:/home/nahomts/Documents/DaisyExamples/libDaisy/src/per/dac.h ****      ** The resolution will be roughly: bitdepth / (VDDA - 0V) 
  55:/home/nahomts/Documents/DaisyExamples/libDaisy/src/per/dac.h ****      ***/
  56:/home/nahomts/Documents/DaisyExamples/libDaisy/src/per/dac.h ****     enum class BitDepth
ARM GAS  /tmp/cc06O66m.s 			page 20


  57:/home/nahomts/Documents/DaisyExamples/libDaisy/src/per/dac.h ****     {
  58:/home/nahomts/Documents/DaisyExamples/libDaisy/src/per/dac.h ****         BITS_8,
  59:/home/nahomts/Documents/DaisyExamples/libDaisy/src/per/dac.h ****         BITS_12
  60:/home/nahomts/Documents/DaisyExamples/libDaisy/src/per/dac.h ****     };
  61:/home/nahomts/Documents/DaisyExamples/libDaisy/src/per/dac.h **** 
  62:/home/nahomts/Documents/DaisyExamples/libDaisy/src/per/dac.h ****     /** Sets whether the DAC output is buffered for higher drive ability. */
  63:/home/nahomts/Documents/DaisyExamples/libDaisy/src/per/dac.h ****     enum class BufferState
  64:/home/nahomts/Documents/DaisyExamples/libDaisy/src/per/dac.h ****     {
  65:/home/nahomts/Documents/DaisyExamples/libDaisy/src/per/dac.h ****         ENABLED,
  66:/home/nahomts/Documents/DaisyExamples/libDaisy/src/per/dac.h ****         DISABLED,
  67:/home/nahomts/Documents/DaisyExamples/libDaisy/src/per/dac.h ****     };
  68:/home/nahomts/Documents/DaisyExamples/libDaisy/src/per/dac.h **** 
  69:/home/nahomts/Documents/DaisyExamples/libDaisy/src/per/dac.h ****     /** Configuration structure for initializing the DAC structure. */
  70:/home/nahomts/Documents/DaisyExamples/libDaisy/src/per/dac.h ****     struct Config
  71:/home/nahomts/Documents/DaisyExamples/libDaisy/src/per/dac.h ****     {
  72:/home/nahomts/Documents/DaisyExamples/libDaisy/src/per/dac.h ****         /** Target Samplerate in Hz used to configure the internal 
  73:/home/nahomts/Documents/DaisyExamples/libDaisy/src/per/dac.h ****          ** timebase for DMA mode. Does nothing in POLLING mode.
  74:/home/nahomts/Documents/DaisyExamples/libDaisy/src/per/dac.h ****          ** If the value is 0 at Init time this will default to 48000Hz 
  75:/home/nahomts/Documents/DaisyExamples/libDaisy/src/per/dac.h ****          ** otherwise the driver will attempt meet the target.*/
  76:/home/nahomts/Documents/DaisyExamples/libDaisy/src/per/dac.h ****         uint32_t target_samplerate;
  77:/home/nahomts/Documents/DaisyExamples/libDaisy/src/per/dac.h **** 
  78:/home/nahomts/Documents/DaisyExamples/libDaisy/src/per/dac.h ****         Channel     chn;
  79:/home/nahomts/Documents/DaisyExamples/libDaisy/src/per/dac.h ****         Mode        mode;
  80:/home/nahomts/Documents/DaisyExamples/libDaisy/src/per/dac.h ****         BitDepth    bitdepth;
  81:/home/nahomts/Documents/DaisyExamples/libDaisy/src/per/dac.h ****         BufferState buff_state;
  82:/home/nahomts/Documents/DaisyExamples/libDaisy/src/per/dac.h ****     };
  83:/home/nahomts/Documents/DaisyExamples/libDaisy/src/per/dac.h **** 
  84:/home/nahomts/Documents/DaisyExamples/libDaisy/src/per/dac.h ****     DacHandle() : pimpl_(nullptr) {}
 329              		.loc 9 84 5 is_stmt 1 view .LVU83
 330              	.LBB129:
 331              	.LBB130:
 332              		.loc 9 84 33 is_stmt 0 view .LVU84
 333 000c 0362     		str	r3, [r0, #32]
 334              	.LVL20:
 335              		.loc 9 84 33 view .LVU85
 336              	.LBE130:
 337              	.LBE129:
 338              	.LBE128:
 339              	.LBB131:
 340              	.LBI131:
  40:/home/nahomts/Documents/DaisyExamples/libDaisy/src/hid/usb.h **** 
 341              		.loc 3 40 5 is_stmt 1 view .LVU86
  40:/home/nahomts/Documents/DaisyExamples/libDaisy/src/hid/usb.h **** 
 342              		.loc 3 40 5 is_stmt 0 view .LVU87
 343              	.LBE131:
 344              	.LBB132:
 345              	.LBI132:
  96:/home/nahomts/Documents/DaisyExamples/libDaisy/src/sys/system.h ****     ~System() {}
 346              		.loc 2 96 5 is_stmt 1 view .LVU88
  96:/home/nahomts/Documents/DaisyExamples/libDaisy/src/sys/system.h ****     ~System() {}
 347              		.loc 2 96 5 is_stmt 0 view .LVU89
 348              	.LBE132:
 349              	.LBB133:
 350              	.LBI133:
 351              		.file 10 "/home/nahomts/Documents/DaisyExamples/libDaisy/src/per/sai.h"
   1:/home/nahomts/Documents/DaisyExamples/libDaisy/src/per/sai.h **** #pragma once
   2:/home/nahomts/Documents/DaisyExamples/libDaisy/src/per/sai.h **** #ifndef DSY_SAI_H
ARM GAS  /tmp/cc06O66m.s 			page 21


   3:/home/nahomts/Documents/DaisyExamples/libDaisy/src/per/sai.h **** #define DSY_SAI_H
   4:/home/nahomts/Documents/DaisyExamples/libDaisy/src/per/sai.h **** 
   5:/home/nahomts/Documents/DaisyExamples/libDaisy/src/per/sai.h **** #include "daisy_core.h"
   6:/home/nahomts/Documents/DaisyExamples/libDaisy/src/per/sai.h **** 
   7:/home/nahomts/Documents/DaisyExamples/libDaisy/src/per/sai.h **** namespace daisy
   8:/home/nahomts/Documents/DaisyExamples/libDaisy/src/per/sai.h **** {
   9:/home/nahomts/Documents/DaisyExamples/libDaisy/src/per/sai.h **** /** 
  10:/home/nahomts/Documents/DaisyExamples/libDaisy/src/per/sai.h ****  * Support for I2S Audio Protocol with different bit-depth, samplerate options
  11:/home/nahomts/Documents/DaisyExamples/libDaisy/src/per/sai.h ****  * Allows for master or slave, as well as freedom of selecting direction, 
  12:/home/nahomts/Documents/DaisyExamples/libDaisy/src/per/sai.h ****  * and other behavior for each peripheral, and block.
  13:/home/nahomts/Documents/DaisyExamples/libDaisy/src/per/sai.h ****  * 
  14:/home/nahomts/Documents/DaisyExamples/libDaisy/src/per/sai.h ****  * DMA Transfer commands must use buffers located within non-cached memory or use cache maintenance
  15:/home/nahomts/Documents/DaisyExamples/libDaisy/src/per/sai.h ****  * To declare an unitialized global element in the DMA memory section:
  16:/home/nahomts/Documents/DaisyExamples/libDaisy/src/per/sai.h ****  *    int32_t DSY_DMA_BUFFER_SECTOR my_buffer[96];
  17:/home/nahomts/Documents/DaisyExamples/libDaisy/src/per/sai.h ****  *
  18:/home/nahomts/Documents/DaisyExamples/libDaisy/src/per/sai.h ****  * Callback functions will be called once per half of the buffer. In the above example, 
  19:/home/nahomts/Documents/DaisyExamples/libDaisy/src/per/sai.h ****  * the callback function would be called once for every 48 samples.
  20:/home/nahomts/Documents/DaisyExamples/libDaisy/src/per/sai.h ****  * 
  21:/home/nahomts/Documents/DaisyExamples/libDaisy/src/per/sai.h ****  * Use SAI Handle like this:
  22:/home/nahomts/Documents/DaisyExamples/libDaisy/src/per/sai.h ****  * 
  23:/home/nahomts/Documents/DaisyExamples/libDaisy/src/per/sai.h ****  *  SaiHandle::Config sai_config;
  24:/home/nahomts/Documents/DaisyExamples/libDaisy/src/per/sai.h ****  *  sai_config.periph          = SaiHandle::Config::Peripheral::SAI_1;
  25:/home/nahomts/Documents/DaisyExamples/libDaisy/src/per/sai.h ****  *  sai_config.sr              = SaiHandle::Config::SampleRate::SAI_48KHZ;
  26:/home/nahomts/Documents/DaisyExamples/libDaisy/src/per/sai.h ****  *  sai_config.bit_depth       = SaiHandle::Config::BitDepth::SAI_24BIT;
  27:/home/nahomts/Documents/DaisyExamples/libDaisy/src/per/sai.h ****  *  sai_config.a_sync          = SaiHandle::Config::Sync::MASTER;
  28:/home/nahomts/Documents/DaisyExamples/libDaisy/src/per/sai.h ****  *  sai_config.b_sync          = SaiHandle::Config::Sync::SLAVE;
  29:/home/nahomts/Documents/DaisyExamples/libDaisy/src/per/sai.h ****  *  sai_config.a_dir           = SaiHandle::Config::Direction::RECEIVE;
  30:/home/nahomts/Documents/DaisyExamples/libDaisy/src/per/sai.h ****  *  sai_config.b_dir           = SaiHandle::Config::Direction::TRANSMIT;
  31:/home/nahomts/Documents/DaisyExamples/libDaisy/src/per/sai.h ****  *  sai_config.pin_config.fs   = {DSY_GPIOE, 4};
  32:/home/nahomts/Documents/DaisyExamples/libDaisy/src/per/sai.h ****  *  sai_config.pin_config.mclk = {DSY_GPIOE, 2};
  33:/home/nahomts/Documents/DaisyExamples/libDaisy/src/per/sai.h ****  *  sai_config.pin_config.sck  = {DSY_GPIOE, 5};
  34:/home/nahomts/Documents/DaisyExamples/libDaisy/src/per/sai.h ****  *  sai_config.pin_config.sa   = {DSY_GPIOE, 6};
  35:/home/nahomts/Documents/DaisyExamples/libDaisy/src/per/sai.h ****  *  sai_config.pin_config.sb   = {DSY_GPIOE, 3};
  36:/home/nahomts/Documents/DaisyExamples/libDaisy/src/per/sai.h ****  *  // Then Initialize
  37:/home/nahomts/Documents/DaisyExamples/libDaisy/src/per/sai.h ****  *  SaiHandle sai;
  38:/home/nahomts/Documents/DaisyExamples/libDaisy/src/per/sai.h ****  *  sai.Init(sai_config);
  39:/home/nahomts/Documents/DaisyExamples/libDaisy/src/per/sai.h ****  *  // Now you can use it:
  40:/home/nahomts/Documents/DaisyExamples/libDaisy/src/per/sai.h ****  *  sai.StartDma(. . .);
  41:/home/nahomts/Documents/DaisyExamples/libDaisy/src/per/sai.h ****  */
  42:/home/nahomts/Documents/DaisyExamples/libDaisy/src/per/sai.h **** class SaiHandle
  43:/home/nahomts/Documents/DaisyExamples/libDaisy/src/per/sai.h **** {
  44:/home/nahomts/Documents/DaisyExamples/libDaisy/src/per/sai.h ****   public:
  45:/home/nahomts/Documents/DaisyExamples/libDaisy/src/per/sai.h ****     /** Contains settings for initialising an SAI Interface */
  46:/home/nahomts/Documents/DaisyExamples/libDaisy/src/per/sai.h ****     struct Config
  47:/home/nahomts/Documents/DaisyExamples/libDaisy/src/per/sai.h ****     {
  48:/home/nahomts/Documents/DaisyExamples/libDaisy/src/per/sai.h ****         /** Specifies the internal peripheral to use (mapped to different hardware pins) */
  49:/home/nahomts/Documents/DaisyExamples/libDaisy/src/per/sai.h ****         enum class Peripheral
  50:/home/nahomts/Documents/DaisyExamples/libDaisy/src/per/sai.h ****         {
  51:/home/nahomts/Documents/DaisyExamples/libDaisy/src/per/sai.h ****             SAI_1,
  52:/home/nahomts/Documents/DaisyExamples/libDaisy/src/per/sai.h ****             SAI_2,
  53:/home/nahomts/Documents/DaisyExamples/libDaisy/src/per/sai.h ****         };
  54:/home/nahomts/Documents/DaisyExamples/libDaisy/src/per/sai.h **** 
  55:/home/nahomts/Documents/DaisyExamples/libDaisy/src/per/sai.h ****         /** Rate at which samples will be streaming to/from the device. */
  56:/home/nahomts/Documents/DaisyExamples/libDaisy/src/per/sai.h ****         enum class SampleRate
  57:/home/nahomts/Documents/DaisyExamples/libDaisy/src/per/sai.h ****         {
  58:/home/nahomts/Documents/DaisyExamples/libDaisy/src/per/sai.h ****             SAI_8KHZ,
  59:/home/nahomts/Documents/DaisyExamples/libDaisy/src/per/sai.h ****             SAI_16KHZ,
ARM GAS  /tmp/cc06O66m.s 			page 22


  60:/home/nahomts/Documents/DaisyExamples/libDaisy/src/per/sai.h ****             SAI_32KHZ,
  61:/home/nahomts/Documents/DaisyExamples/libDaisy/src/per/sai.h ****             SAI_48KHZ,
  62:/home/nahomts/Documents/DaisyExamples/libDaisy/src/per/sai.h ****             SAI_96KHZ,
  63:/home/nahomts/Documents/DaisyExamples/libDaisy/src/per/sai.h ****         };
  64:/home/nahomts/Documents/DaisyExamples/libDaisy/src/per/sai.h **** 
  65:/home/nahomts/Documents/DaisyExamples/libDaisy/src/per/sai.h ****         /** Bit Depth that the hardware expects to be transferred to/from the device. */
  66:/home/nahomts/Documents/DaisyExamples/libDaisy/src/per/sai.h ****         enum class BitDepth
  67:/home/nahomts/Documents/DaisyExamples/libDaisy/src/per/sai.h ****         {
  68:/home/nahomts/Documents/DaisyExamples/libDaisy/src/per/sai.h ****             SAI_16BIT,
  69:/home/nahomts/Documents/DaisyExamples/libDaisy/src/per/sai.h ****             SAI_24BIT,
  70:/home/nahomts/Documents/DaisyExamples/libDaisy/src/per/sai.h ****             SAI_32BIT,
  71:/home/nahomts/Documents/DaisyExamples/libDaisy/src/per/sai.h ****         };
  72:/home/nahomts/Documents/DaisyExamples/libDaisy/src/per/sai.h **** 
  73:/home/nahomts/Documents/DaisyExamples/libDaisy/src/per/sai.h ****         /** Specifies whether a particular block is the master or the slave 
  74:/home/nahomts/Documents/DaisyExamples/libDaisy/src/per/sai.h ****          ** If both are set to slave, no MCLK signal will be used, and it is
  75:/home/nahomts/Documents/DaisyExamples/libDaisy/src/per/sai.h ****          ** expected that the codec will have its own xtal.
  76:/home/nahomts/Documents/DaisyExamples/libDaisy/src/per/sai.h ****          */
  77:/home/nahomts/Documents/DaisyExamples/libDaisy/src/per/sai.h ****         enum class Sync
  78:/home/nahomts/Documents/DaisyExamples/libDaisy/src/per/sai.h ****         {
  79:/home/nahomts/Documents/DaisyExamples/libDaisy/src/per/sai.h ****             MASTER,
  80:/home/nahomts/Documents/DaisyExamples/libDaisy/src/per/sai.h ****             SLAVE,
  81:/home/nahomts/Documents/DaisyExamples/libDaisy/src/per/sai.h ****         };
  82:/home/nahomts/Documents/DaisyExamples/libDaisy/src/per/sai.h **** 
  83:/home/nahomts/Documents/DaisyExamples/libDaisy/src/per/sai.h ****         /** Specifies the direction for each peripheral block. */
  84:/home/nahomts/Documents/DaisyExamples/libDaisy/src/per/sai.h ****         enum class Direction
  85:/home/nahomts/Documents/DaisyExamples/libDaisy/src/per/sai.h ****         {
  86:/home/nahomts/Documents/DaisyExamples/libDaisy/src/per/sai.h ****             TRANSMIT,
  87:/home/nahomts/Documents/DaisyExamples/libDaisy/src/per/sai.h ****             RECEIVE,
  88:/home/nahomts/Documents/DaisyExamples/libDaisy/src/per/sai.h ****         };
  89:/home/nahomts/Documents/DaisyExamples/libDaisy/src/per/sai.h **** 
  90:/home/nahomts/Documents/DaisyExamples/libDaisy/src/per/sai.h ****         Peripheral periph;
  91:/home/nahomts/Documents/DaisyExamples/libDaisy/src/per/sai.h ****         struct
  92:/home/nahomts/Documents/DaisyExamples/libDaisy/src/per/sai.h ****         {
  93:/home/nahomts/Documents/DaisyExamples/libDaisy/src/per/sai.h ****             dsy_gpio_pin mclk, fs, sck, sa, sb;
  94:/home/nahomts/Documents/DaisyExamples/libDaisy/src/per/sai.h ****         } pin_config;
  95:/home/nahomts/Documents/DaisyExamples/libDaisy/src/per/sai.h ****         SampleRate sr;
  96:/home/nahomts/Documents/DaisyExamples/libDaisy/src/per/sai.h ****         BitDepth   bit_depth;
  97:/home/nahomts/Documents/DaisyExamples/libDaisy/src/per/sai.h ****         Sync       a_sync, b_sync;
  98:/home/nahomts/Documents/DaisyExamples/libDaisy/src/per/sai.h ****         Direction  a_dir, b_dir;
  99:/home/nahomts/Documents/DaisyExamples/libDaisy/src/per/sai.h ****     };
 100:/home/nahomts/Documents/DaisyExamples/libDaisy/src/per/sai.h **** 
 101:/home/nahomts/Documents/DaisyExamples/libDaisy/src/per/sai.h ****     /** Return values for SAI functions */
 102:/home/nahomts/Documents/DaisyExamples/libDaisy/src/per/sai.h ****     enum class Result
 103:/home/nahomts/Documents/DaisyExamples/libDaisy/src/per/sai.h ****     {
 104:/home/nahomts/Documents/DaisyExamples/libDaisy/src/per/sai.h ****         OK,
 105:/home/nahomts/Documents/DaisyExamples/libDaisy/src/per/sai.h ****         ERR,
 106:/home/nahomts/Documents/DaisyExamples/libDaisy/src/per/sai.h ****     };
 107:/home/nahomts/Documents/DaisyExamples/libDaisy/src/per/sai.h **** 
 108:/home/nahomts/Documents/DaisyExamples/libDaisy/src/per/sai.h ****     SaiHandle() : pimpl_(nullptr) {}
 352              		.loc 10 108 5 is_stmt 1 view .LVU90
 353              	.LBB134:
 354              	.LBB135:
 355              		.loc 10 108 33 is_stmt 0 view .LVU91
 356 000e C363     		str	r3, [r0, #60]
 357              	.LVL21:
 358              		.loc 10 108 33 view .LVU92
 359              	.LBE135:
ARM GAS  /tmp/cc06O66m.s 			page 23


 360              	.LBE134:
 361              	.LBE133:
 362              	.LBE136:
 363              	.LBE137:
   7:I2C.cpp       **** DaisySeed hardware;
 364              		.loc 6 7 11 view .LVU93
 365 0010 FFF7FEBF 		b	__aeabi_atexit
 366              	.LVL22:
 367              	.L15:
 368              		.align	2
 369              	.L14:
 370 0014 00000000 		.word	.LANCHOR0
 371 0018 00000000 		.word	__dso_handle
 372 001c 00000000 		.word	_ZN5daisy9DaisySeedD1Ev
 373              	.LBE115:
 374              	.LBE114:
 375              		.cfi_endproc
 376              	.LFE5244:
 378              		.section	.init_array,"aw",%init_array
 379              		.align	2
 380 0000 00000000 		.word	_GLOBAL__sub_I_hardware(target1)
 381              		.global	hardware
 382              		.section	.rodata
 383              		.align	2
 384              		.set	.LANCHOR1,. + 0
 385              	.LC0:
 386 0000 01       		.byte	1
 387 0001 08       		.byte	8
 388 0002 0000     		.space	2
 389              	.LC1:
 390 0004 01       		.byte	1
 391 0005 09       		.byte	9
 392              		.section	.bss.hardware,"aw",%nobits
 393              		.align	2
 394              		.set	.LANCHOR0,. + 0
 397              	hardware:
 398 0000 00000000 		.space	64
 398      00000000 
 398      00000000 
 398      00000000 
 398      00000000 
 399              		.text
 400              	.Letext0:
 401              		.file 11 "/home/nahomts/Developer/gcc-arm-none-eabi-10-2020-q4-major/arm-none-eabi/include/machine
 402              		.file 12 "/home/nahomts/Developer/gcc-arm-none-eabi-10-2020-q4-major/arm-none-eabi/include/sys/_st
 403              		.file 13 "/home/nahomts/Developer/gcc-arm-none-eabi-10-2020-q4-major/arm-none-eabi/include/stdint.
 404              		.file 14 "/home/nahomts/Developer/gcc-arm-none-eabi-10-2020-q4-major/lib/gcc/arm-none-eabi/10.2.1/
 405              		.file 15 "/home/nahomts/Developer/gcc-arm-none-eabi-10-2020-q4-major/arm-none-eabi/include/c++/10.
 406              		.file 16 "/home/nahomts/Developer/gcc-arm-none-eabi-10-2020-q4-major/arm-none-eabi/include/c++/10.
 407              		.file 17 "/home/nahomts/Developer/gcc-arm-none-eabi-10-2020-q4-major/arm-none-eabi/include/c++/10.
 408              		.file 18 "/home/nahomts/Developer/gcc-arm-none-eabi-10-2020-q4-major/arm-none-eabi/include/c++/10.
 409              		.file 19 "/home/nahomts/Developer/gcc-arm-none-eabi-10-2020-q4-major/arm-none-eabi/include/c++/10.
 410              		.file 20 "/home/nahomts/Developer/gcc-arm-none-eabi-10-2020-q4-major/arm-none-eabi/include/c++/10.
 411              		.file 21 "/home/nahomts/Developer/gcc-arm-none-eabi-10-2020-q4-major/arm-none-eabi/include/c++/10.
 412              		.file 22 "/home/nahomts/Developer/gcc-arm-none-eabi-10-2020-q4-major/arm-none-eabi/include/c++/10.
 413              		.file 23 "/home/nahomts/Developer/gcc-arm-none-eabi-10-2020-q4-major/arm-none-eabi/include/c++/10.
 414              		.file 24 "/home/nahomts/Developer/gcc-arm-none-eabi-10-2020-q4-major/arm-none-eabi/include/c++/10.
ARM GAS  /tmp/cc06O66m.s 			page 24


 415              		.file 25 "/home/nahomts/Developer/gcc-arm-none-eabi-10-2020-q4-major/arm-none-eabi/include/c++/10.
 416              		.file 26 "/home/nahomts/Developer/gcc-arm-none-eabi-10-2020-q4-major/arm-none-eabi/include/c++/10.
 417              		.file 27 "/home/nahomts/Developer/gcc-arm-none-eabi-10-2020-q4-major/arm-none-eabi/include/c++/10.
 418              		.file 28 "/home/nahomts/Developer/gcc-arm-none-eabi-10-2020-q4-major/arm-none-eabi/include/c++/10.
 419              		.file 29 "/home/nahomts/Developer/gcc-arm-none-eabi-10-2020-q4-major/arm-none-eabi/include/c++/10.
 420              		.file 30 "/home/nahomts/Developer/gcc-arm-none-eabi-10-2020-q4-major/arm-none-eabi/include/c++/10.
 421              		.file 31 "/home/nahomts/Developer/gcc-arm-none-eabi-10-2020-q4-major/arm-none-eabi/include/c++/10.
 422              		.file 32 "/home/nahomts/Developer/gcc-arm-none-eabi-10-2020-q4-major/arm-none-eabi/include/c++/10.
 423              		.file 33 "/home/nahomts/Developer/gcc-arm-none-eabi-10-2020-q4-major/arm-none-eabi/include/sys/_ty
 424              		.file 34 "/home/nahomts/Developer/gcc-arm-none-eabi-10-2020-q4-major/arm-none-eabi/include/sys/ree
 425              		.file 35 "/home/nahomts/Developer/gcc-arm-none-eabi-10-2020-q4-major/arm-none-eabi/include/sys/loc
 426              		.file 36 "/home/nahomts/Developer/gcc-arm-none-eabi-10-2020-q4-major/arm-none-eabi/include/math.h"
 427              		.file 37 "/home/nahomts/Developer/gcc-arm-none-eabi-10-2020-q4-major/arm-none-eabi/include/stdlib.
 428              		.file 38 "/home/nahomts/Developer/gcc-arm-none-eabi-10-2020-q4-major/arm-none-eabi/include/c++/10.
 429              		.file 39 "/home/nahomts/Developer/gcc-arm-none-eabi-10-2020-q4-major/arm-none-eabi/include/c++/10.
 430              		.file 40 "/home/nahomts/Documents/DaisyExamples/libDaisy/src/daisy_core.h"
 431              		.file 41 "/home/nahomts/Documents/DaisyExamples/libDaisy/src/per/tim.h"
 432              		.file 42 "/home/nahomts/Documents/DaisyExamples/libDaisy/src/util/wav_format.h"
 433              		.file 43 "/home/nahomts/Documents/DaisyExamples/libDaisy/src/dev/max11300.h"
 434              		.file 44 "/home/nahomts/Documents/DaisyExamples/libDaisy/src/per/gpio.h"
 435              		.file 45 "/home/nahomts/Documents/DaisyExamples/libDaisy/src/dev/sdram.h"
 436              		.file 46 "/home/nahomts/Developer/gcc-arm-none-eabi-10-2020-q4-major/lib/gcc/arm-none-eabi/10.2.1/
 437              		.file 47 "/home/nahomts/Developer/gcc-arm-none-eabi-10-2020-q4-major/arm-none-eabi/include/stdio.h
 438              		.file 48 "/home/nahomts/Developer/gcc-arm-none-eabi-10-2020-q4-major/arm-none-eabi/include/string.
 439              		.file 49 "/home/nahomts/Documents/DaisyExamples/DaisySP/Source/Control/adenv.h"
 440              		.file 50 "/home/nahomts/Documents/DaisyExamples/DaisySP/Source/Utility/dsp.h"
 441              		.file 51 "/home/nahomts/Developer/gcc-arm-none-eabi-10-2020-q4-major/arm-none-eabi/include/wchar.h
 442              		.file 52 "/home/nahomts/Developer/gcc-arm-none-eabi-10-2020-q4-major/arm-none-eabi/include/locale.
 443              		.file 53 "/home/nahomts/Documents/DaisyExamples/libDaisy/src/dev/sr_595.h"
 444              		.file 54 "<built-in>"
ARM GAS  /tmp/cc06O66m.s 			page 25

