ARM GAS  /var/folders/yk/qy9v9gw959gblxgjb8zzl1nw0000gn/T//cchmfQCm.s 			page 1


   1              		.cpu cortex-m7
   2              		.arch armv7e-m
   3              		.fpu fpv5-d16
   4              		.eabi_attribute 28, 1
   5              		.eabi_attribute 20, 1
   6              		.eabi_attribute 21, 1
   7              		.eabi_attribute 23, 3
   8              		.eabi_attribute 24, 1
   9              		.eabi_attribute 25, 1
  10              		.eabi_attribute 26, 1
  11              		.eabi_attribute 30, 2
  12              		.eabi_attribute 34, 1
  13              		.eabi_attribute 18, 4
  14              		.file	"main.cpp"
  15              		.text
  16              	.Ltext0:
  17              		.cfi_sections	.debug_frame
  18              		.file 1 "main.cpp"
  19              		.section	.text._ZN5daisy9DaisySeedD2Ev,"axG",%progbits,_ZN5daisy9DaisySeedD5Ev,comdat
  20              		.align	1
  21              		.p2align 2,,3
  22              		.weak	_ZN5daisy9DaisySeedD2Ev
  23              		.syntax unified
  24              		.thumb
  25              		.thumb_func
  27              	_ZN5daisy9DaisySeedD2Ev:
  28              	.LVL0:
  29              	.LFB2343:
  30              		.file 2 "/Users/ozalp/Documents/DaisyExamples/libDaisy/src/daisy_seed.h"
   1:/Users/ozalp/Documents/DaisyExamples/libDaisy/src/daisy_seed.h **** #pragma once
   2:/Users/ozalp/Documents/DaisyExamples/libDaisy/src/daisy_seed.h **** #ifndef DSY_SEED_H
   3:/Users/ozalp/Documents/DaisyExamples/libDaisy/src/daisy_seed.h **** #define DSY_SEED_H
   4:/Users/ozalp/Documents/DaisyExamples/libDaisy/src/daisy_seed.h **** 
   5:/Users/ozalp/Documents/DaisyExamples/libDaisy/src/daisy_seed.h **** #include "daisy.h"
   6:/Users/ozalp/Documents/DaisyExamples/libDaisy/src/daisy_seed.h **** 
   7:/Users/ozalp/Documents/DaisyExamples/libDaisy/src/daisy_seed.h **** //Uncomment this out if you're still using the rev2 hardware
   8:/Users/ozalp/Documents/DaisyExamples/libDaisy/src/daisy_seed.h **** //#define SEED_REV2
   9:/Users/ozalp/Documents/DaisyExamples/libDaisy/src/daisy_seed.h **** 
  10:/Users/ozalp/Documents/DaisyExamples/libDaisy/src/daisy_seed.h **** namespace daisy
  11:/Users/ozalp/Documents/DaisyExamples/libDaisy/src/daisy_seed.h **** {
  12:/Users/ozalp/Documents/DaisyExamples/libDaisy/src/daisy_seed.h **** /**
  13:/Users/ozalp/Documents/DaisyExamples/libDaisy/src/daisy_seed.h ****    @brief This is the higher-level interface for the Daisy board. \n 
  14:/Users/ozalp/Documents/DaisyExamples/libDaisy/src/daisy_seed.h ****     All basic peripheral configuration/initialization is setup here. \n
  15:/Users/ozalp/Documents/DaisyExamples/libDaisy/src/daisy_seed.h **** 
  16:/Users/ozalp/Documents/DaisyExamples/libDaisy/src/daisy_seed.h ****    @ingroup boards
  17:/Users/ozalp/Documents/DaisyExamples/libDaisy/src/daisy_seed.h **** */
  18:/Users/ozalp/Documents/DaisyExamples/libDaisy/src/daisy_seed.h **** class DaisySeed
  19:/Users/ozalp/Documents/DaisyExamples/libDaisy/src/daisy_seed.h **** {
  20:/Users/ozalp/Documents/DaisyExamples/libDaisy/src/daisy_seed.h ****   public:
  21:/Users/ozalp/Documents/DaisyExamples/libDaisy/src/daisy_seed.h ****     DaisySeed() {}
  22:/Users/ozalp/Documents/DaisyExamples/libDaisy/src/daisy_seed.h ****     ~DaisySeed() {}
  31              		.loc 2 22 5 view -0
  32              		.cfi_startproc
  33              		@ args = 0, pretend = 0, frame = 0
  34              		@ frame_needed = 0, uses_anonymous_args = 0
  35              		@ link register save eliminated.
  36              	.LBB68:
ARM GAS  /var/folders/yk/qy9v9gw959gblxgjb8zzl1nw0000gn/T//cchmfQCm.s 			page 2


  37              	.LBB69:
  38              	.LBI69:
  39              		.file 3 "/Users/ozalp/Documents/DaisyExamples/libDaisy/src/sys/system.h"
   1:/Users/ozalp/Documents/DaisyExamples/libDaisy/src/sys/system.h **** #ifndef DSY_SYSTEM_H
   2:/Users/ozalp/Documents/DaisyExamples/libDaisy/src/sys/system.h **** #define DSY_SYSTEM_H
   3:/Users/ozalp/Documents/DaisyExamples/libDaisy/src/sys/system.h **** 
   4:/Users/ozalp/Documents/DaisyExamples/libDaisy/src/sys/system.h **** #ifndef UNIT_TEST // for unit tests, a dummy implementation is provided below
   5:/Users/ozalp/Documents/DaisyExamples/libDaisy/src/sys/system.h **** 
   6:/Users/ozalp/Documents/DaisyExamples/libDaisy/src/sys/system.h **** #include <cstdint>
   7:/Users/ozalp/Documents/DaisyExamples/libDaisy/src/sys/system.h **** #include "per/tim.h"
   8:/Users/ozalp/Documents/DaisyExamples/libDaisy/src/sys/system.h **** 
   9:/Users/ozalp/Documents/DaisyExamples/libDaisy/src/sys/system.h **** namespace daisy
  10:/Users/ozalp/Documents/DaisyExamples/libDaisy/src/sys/system.h **** {
  11:/Users/ozalp/Documents/DaisyExamples/libDaisy/src/sys/system.h **** /** A handle for interacting with the Core System.
  12:/Users/ozalp/Documents/DaisyExamples/libDaisy/src/sys/system.h ****  ** This includes the Clock tree, MPU, global DMA initialization,
  13:/Users/ozalp/Documents/DaisyExamples/libDaisy/src/sys/system.h ****  ** cache handling, and any other necessary global initiailzation
  14:/Users/ozalp/Documents/DaisyExamples/libDaisy/src/sys/system.h ****  **
  15:/Users/ozalp/Documents/DaisyExamples/libDaisy/src/sys/system.h ****  ** @author shensley
  16:/Users/ozalp/Documents/DaisyExamples/libDaisy/src/sys/system.h ****  ** @ingroup system
  17:/Users/ozalp/Documents/DaisyExamples/libDaisy/src/sys/system.h ****  */
  18:/Users/ozalp/Documents/DaisyExamples/libDaisy/src/sys/system.h **** class System
  19:/Users/ozalp/Documents/DaisyExamples/libDaisy/src/sys/system.h **** {
  20:/Users/ozalp/Documents/DaisyExamples/libDaisy/src/sys/system.h ****   public:
  21:/Users/ozalp/Documents/DaisyExamples/libDaisy/src/sys/system.h ****     /** Contains settings for initializing the System */
  22:/Users/ozalp/Documents/DaisyExamples/libDaisy/src/sys/system.h ****     struct Config
  23:/Users/ozalp/Documents/DaisyExamples/libDaisy/src/sys/system.h ****     {
  24:/Users/ozalp/Documents/DaisyExamples/libDaisy/src/sys/system.h ****         /** Specifies the system clock frequency that feeds APB/AHB clocks, etc. */
  25:/Users/ozalp/Documents/DaisyExamples/libDaisy/src/sys/system.h ****         enum class SysClkFreq
  26:/Users/ozalp/Documents/DaisyExamples/libDaisy/src/sys/system.h ****         {
  27:/Users/ozalp/Documents/DaisyExamples/libDaisy/src/sys/system.h ****             FREQ_400MHZ,
  28:/Users/ozalp/Documents/DaisyExamples/libDaisy/src/sys/system.h ****             FREQ_480MHZ,
  29:/Users/ozalp/Documents/DaisyExamples/libDaisy/src/sys/system.h ****         };
  30:/Users/ozalp/Documents/DaisyExamples/libDaisy/src/sys/system.h **** 
  31:/Users/ozalp/Documents/DaisyExamples/libDaisy/src/sys/system.h ****         /** Method to call on the struct to set to defaults
  32:/Users/ozalp/Documents/DaisyExamples/libDaisy/src/sys/system.h ****          ** CPU Freq set to 400MHz
  33:/Users/ozalp/Documents/DaisyExamples/libDaisy/src/sys/system.h ****          ** Cache Enabled
  34:/Users/ozalp/Documents/DaisyExamples/libDaisy/src/sys/system.h ****          ** */
  35:/Users/ozalp/Documents/DaisyExamples/libDaisy/src/sys/system.h ****         void Defaults()
  36:/Users/ozalp/Documents/DaisyExamples/libDaisy/src/sys/system.h ****         {
  37:/Users/ozalp/Documents/DaisyExamples/libDaisy/src/sys/system.h ****             cpu_freq    = SysClkFreq::FREQ_400MHZ;
  38:/Users/ozalp/Documents/DaisyExamples/libDaisy/src/sys/system.h ****             use_dcache  = true;
  39:/Users/ozalp/Documents/DaisyExamples/libDaisy/src/sys/system.h ****             use_icache  = true;
  40:/Users/ozalp/Documents/DaisyExamples/libDaisy/src/sys/system.h ****             skip_clocks = false;
  41:/Users/ozalp/Documents/DaisyExamples/libDaisy/src/sys/system.h ****         }
  42:/Users/ozalp/Documents/DaisyExamples/libDaisy/src/sys/system.h **** 
  43:/Users/ozalp/Documents/DaisyExamples/libDaisy/src/sys/system.h ****         /** Method to call on the struct to set to boost mode:
  44:/Users/ozalp/Documents/DaisyExamples/libDaisy/src/sys/system.h ****          ** CPU Freq set to 480MHz
  45:/Users/ozalp/Documents/DaisyExamples/libDaisy/src/sys/system.h ****          ** Cache Enabled
  46:/Users/ozalp/Documents/DaisyExamples/libDaisy/src/sys/system.h ****          ** */
  47:/Users/ozalp/Documents/DaisyExamples/libDaisy/src/sys/system.h ****         void Boost()
  48:/Users/ozalp/Documents/DaisyExamples/libDaisy/src/sys/system.h ****         {
  49:/Users/ozalp/Documents/DaisyExamples/libDaisy/src/sys/system.h ****             cpu_freq    = SysClkFreq::FREQ_480MHZ;
  50:/Users/ozalp/Documents/DaisyExamples/libDaisy/src/sys/system.h ****             use_dcache  = true;
  51:/Users/ozalp/Documents/DaisyExamples/libDaisy/src/sys/system.h ****             use_icache  = true;
  52:/Users/ozalp/Documents/DaisyExamples/libDaisy/src/sys/system.h ****             skip_clocks = false;
  53:/Users/ozalp/Documents/DaisyExamples/libDaisy/src/sys/system.h ****         }
  54:/Users/ozalp/Documents/DaisyExamples/libDaisy/src/sys/system.h **** 
ARM GAS  /var/folders/yk/qy9v9gw959gblxgjb8zzl1nw0000gn/T//cchmfQCm.s 			page 3


  55:/Users/ozalp/Documents/DaisyExamples/libDaisy/src/sys/system.h ****         SysClkFreq cpu_freq;
  56:/Users/ozalp/Documents/DaisyExamples/libDaisy/src/sys/system.h ****         bool       use_dcache;
  57:/Users/ozalp/Documents/DaisyExamples/libDaisy/src/sys/system.h ****         bool       use_icache;
  58:/Users/ozalp/Documents/DaisyExamples/libDaisy/src/sys/system.h ****         bool       skip_clocks;
  59:/Users/ozalp/Documents/DaisyExamples/libDaisy/src/sys/system.h ****     };
  60:/Users/ozalp/Documents/DaisyExamples/libDaisy/src/sys/system.h **** 
  61:/Users/ozalp/Documents/DaisyExamples/libDaisy/src/sys/system.h ****     /** Describes the different regions of memory available to the Daisy */
  62:/Users/ozalp/Documents/DaisyExamples/libDaisy/src/sys/system.h ****     enum MemoryRegion
  63:/Users/ozalp/Documents/DaisyExamples/libDaisy/src/sys/system.h ****     {
  64:/Users/ozalp/Documents/DaisyExamples/libDaisy/src/sys/system.h ****         INTERNAL_FLASH = 0,
  65:/Users/ozalp/Documents/DaisyExamples/libDaisy/src/sys/system.h ****         ITCMRAM,
  66:/Users/ozalp/Documents/DaisyExamples/libDaisy/src/sys/system.h ****         DTCMRAM,
  67:/Users/ozalp/Documents/DaisyExamples/libDaisy/src/sys/system.h ****         SRAM_D1,
  68:/Users/ozalp/Documents/DaisyExamples/libDaisy/src/sys/system.h ****         SRAM_D2,
  69:/Users/ozalp/Documents/DaisyExamples/libDaisy/src/sys/system.h ****         SRAM_D3,
  70:/Users/ozalp/Documents/DaisyExamples/libDaisy/src/sys/system.h ****         SDRAM,
  71:/Users/ozalp/Documents/DaisyExamples/libDaisy/src/sys/system.h ****         QSPI,
  72:/Users/ozalp/Documents/DaisyExamples/libDaisy/src/sys/system.h ****         INVALID_ADDRESS,
  73:/Users/ozalp/Documents/DaisyExamples/libDaisy/src/sys/system.h ****     };
  74:/Users/ozalp/Documents/DaisyExamples/libDaisy/src/sys/system.h **** 
  75:/Users/ozalp/Documents/DaisyExamples/libDaisy/src/sys/system.h ****     /** Bootloader struct for controlling bootloading parameters */
  76:/Users/ozalp/Documents/DaisyExamples/libDaisy/src/sys/system.h ****     struct BootInfo
  77:/Users/ozalp/Documents/DaisyExamples/libDaisy/src/sys/system.h ****     {
  78:/Users/ozalp/Documents/DaisyExamples/libDaisy/src/sys/system.h ****         enum class Type : uint32_t
  79:/Users/ozalp/Documents/DaisyExamples/libDaisy/src/sys/system.h ****         {
  80:/Users/ozalp/Documents/DaisyExamples/libDaisy/src/sys/system.h ****             INVALID      = 0x00000000,
  81:/Users/ozalp/Documents/DaisyExamples/libDaisy/src/sys/system.h ****             JUMP         = 0xDEADBEEF,
  82:/Users/ozalp/Documents/DaisyExamples/libDaisy/src/sys/system.h ****             SKIP_TIMEOUT = 0x5AFEB007,
  83:/Users/ozalp/Documents/DaisyExamples/libDaisy/src/sys/system.h ****             INF_TIMEOUT  = 0xB0074EFA,
  84:/Users/ozalp/Documents/DaisyExamples/libDaisy/src/sys/system.h ****         } status;
  85:/Users/ozalp/Documents/DaisyExamples/libDaisy/src/sys/system.h ****         uint32_t data;
  86:/Users/ozalp/Documents/DaisyExamples/libDaisy/src/sys/system.h ****         enum class Version : uint32_t
  87:/Users/ozalp/Documents/DaisyExamples/libDaisy/src/sys/system.h ****         {
  88:/Users/ozalp/Documents/DaisyExamples/libDaisy/src/sys/system.h ****             LT_v6_0 = 0, // Less than v6.0
  89:/Users/ozalp/Documents/DaisyExamples/libDaisy/src/sys/system.h ****             NONE,        // No bootloader present
  90:/Users/ozalp/Documents/DaisyExamples/libDaisy/src/sys/system.h ****             v6_0,        // v6.0
  91:/Users/ozalp/Documents/DaisyExamples/libDaisy/src/sys/system.h ****             v6_1,        // v6.1 or greater
  92:/Users/ozalp/Documents/DaisyExamples/libDaisy/src/sys/system.h ****             LAST
  93:/Users/ozalp/Documents/DaisyExamples/libDaisy/src/sys/system.h ****         } version;
  94:/Users/ozalp/Documents/DaisyExamples/libDaisy/src/sys/system.h ****     };
  95:/Users/ozalp/Documents/DaisyExamples/libDaisy/src/sys/system.h **** 
  96:/Users/ozalp/Documents/DaisyExamples/libDaisy/src/sys/system.h ****     System() {}
  97:/Users/ozalp/Documents/DaisyExamples/libDaisy/src/sys/system.h ****     ~System() {}
  40              		.loc 3 97 5 view .LVU1
  41              		.loc 3 97 5 is_stmt 0 view .LVU2
  42              	.LBE69:
  43              	.LBB70:
  44              	.LBI70:
  45              		.file 4 "/Users/ozalp/Documents/DaisyExamples/libDaisy/src/hid/usb.h"
   1:/Users/ozalp/Documents/DaisyExamples/libDaisy/src/hid/usb.h **** #pragma once
   2:/Users/ozalp/Documents/DaisyExamples/libDaisy/src/hid/usb.h **** #ifndef DSY_HID_USB_H
   3:/Users/ozalp/Documents/DaisyExamples/libDaisy/src/hid/usb.h **** #define DSY_HID_USB_H
   4:/Users/ozalp/Documents/DaisyExamples/libDaisy/src/hid/usb.h **** #include <stdint.h>
   5:/Users/ozalp/Documents/DaisyExamples/libDaisy/src/hid/usb.h **** #include <stdlib.h>
   6:/Users/ozalp/Documents/DaisyExamples/libDaisy/src/hid/usb.h **** 
   7:/Users/ozalp/Documents/DaisyExamples/libDaisy/src/hid/usb.h **** namespace daisy
   8:/Users/ozalp/Documents/DaisyExamples/libDaisy/src/hid/usb.h **** /** @addtogroup human_interface
ARM GAS  /var/folders/yk/qy9v9gw959gblxgjb8zzl1nw0000gn/T//cchmfQCm.s 			page 4


   9:/Users/ozalp/Documents/DaisyExamples/libDaisy/src/hid/usb.h ****     @{
  10:/Users/ozalp/Documents/DaisyExamples/libDaisy/src/hid/usb.h **** */
  11:/Users/ozalp/Documents/DaisyExamples/libDaisy/src/hid/usb.h **** 
  12:/Users/ozalp/Documents/DaisyExamples/libDaisy/src/hid/usb.h **** {
  13:/Users/ozalp/Documents/DaisyExamples/libDaisy/src/hid/usb.h **** /** 
  14:/Users/ozalp/Documents/DaisyExamples/libDaisy/src/hid/usb.h ****     @brief Interface for initializing and using the USB Peripherals on the daisy
  15:/Users/ozalp/Documents/DaisyExamples/libDaisy/src/hid/usb.h ****     @author Stephen Hensley
  16:/Users/ozalp/Documents/DaisyExamples/libDaisy/src/hid/usb.h ****     @date December 2019
  17:/Users/ozalp/Documents/DaisyExamples/libDaisy/src/hid/usb.h **** */
  18:/Users/ozalp/Documents/DaisyExamples/libDaisy/src/hid/usb.h **** class UsbHandle
  19:/Users/ozalp/Documents/DaisyExamples/libDaisy/src/hid/usb.h **** {
  20:/Users/ozalp/Documents/DaisyExamples/libDaisy/src/hid/usb.h ****   public:
  21:/Users/ozalp/Documents/DaisyExamples/libDaisy/src/hid/usb.h ****     /** Return values for USBHandle Functions */
  22:/Users/ozalp/Documents/DaisyExamples/libDaisy/src/hid/usb.h ****     enum class Result
  23:/Users/ozalp/Documents/DaisyExamples/libDaisy/src/hid/usb.h ****     {
  24:/Users/ozalp/Documents/DaisyExamples/libDaisy/src/hid/usb.h ****         OK,
  25:/Users/ozalp/Documents/DaisyExamples/libDaisy/src/hid/usb.h ****         ERR,
  26:/Users/ozalp/Documents/DaisyExamples/libDaisy/src/hid/usb.h ****     };
  27:/Users/ozalp/Documents/DaisyExamples/libDaisy/src/hid/usb.h **** 
  28:/Users/ozalp/Documents/DaisyExamples/libDaisy/src/hid/usb.h ****     /** Specified which of the two USB Peripherals to initialize. */
  29:/Users/ozalp/Documents/DaisyExamples/libDaisy/src/hid/usb.h ****     enum UsbPeriph
  30:/Users/ozalp/Documents/DaisyExamples/libDaisy/src/hid/usb.h ****     {
  31:/Users/ozalp/Documents/DaisyExamples/libDaisy/src/hid/usb.h ****         FS_INTERNAL, /**< Internal pin */
  32:/Users/ozalp/Documents/DaisyExamples/libDaisy/src/hid/usb.h ****         FS_EXTERNAL, /**< FS External D+ pin is Pin 38 (GPIO32). FS External D- pin is Pin 37 (GPIO
  33:/Users/ozalp/Documents/DaisyExamples/libDaisy/src/hid/usb.h ****         FS_BOTH,     /**< Both */
  34:/Users/ozalp/Documents/DaisyExamples/libDaisy/src/hid/usb.h ****     };
  35:/Users/ozalp/Documents/DaisyExamples/libDaisy/src/hid/usb.h **** 
  36:/Users/ozalp/Documents/DaisyExamples/libDaisy/src/hid/usb.h **** 
  37:/Users/ozalp/Documents/DaisyExamples/libDaisy/src/hid/usb.h ****     /** Function called upon reception of a buffer */
  38:/Users/ozalp/Documents/DaisyExamples/libDaisy/src/hid/usb.h ****     typedef void (*ReceiveCallback)(uint8_t* buff, uint32_t* len);
  39:/Users/ozalp/Documents/DaisyExamples/libDaisy/src/hid/usb.h **** 
  40:/Users/ozalp/Documents/DaisyExamples/libDaisy/src/hid/usb.h ****     UsbHandle() {}
  41:/Users/ozalp/Documents/DaisyExamples/libDaisy/src/hid/usb.h **** 
  42:/Users/ozalp/Documents/DaisyExamples/libDaisy/src/hid/usb.h ****     ~UsbHandle() {}
  46              		.loc 4 42 5 is_stmt 1 view .LVU3
  47              		.loc 4 42 5 is_stmt 0 view .LVU4
  48              	.LBE70:
  49              	.LBB71:
  50              	.LBI71:
  51              		.file 5 "/Users/ozalp/Documents/DaisyExamples/libDaisy/src/per/adc.h"
   1:/Users/ozalp/Documents/DaisyExamples/libDaisy/src/per/adc.h **** #pragma once
   2:/Users/ozalp/Documents/DaisyExamples/libDaisy/src/per/adc.h **** #ifndef DSY_ADC_H
   3:/Users/ozalp/Documents/DaisyExamples/libDaisy/src/per/adc.h **** #define DSY_ADC_H /**< Macro */
   4:/Users/ozalp/Documents/DaisyExamples/libDaisy/src/per/adc.h **** #include <stdint.h>
   5:/Users/ozalp/Documents/DaisyExamples/libDaisy/src/per/adc.h **** #include <stdlib.h>
   6:/Users/ozalp/Documents/DaisyExamples/libDaisy/src/per/adc.h **** #include "daisy_core.h"
   7:/Users/ozalp/Documents/DaisyExamples/libDaisy/src/per/adc.h **** #include "per/gpio.h"
   8:/Users/ozalp/Documents/DaisyExamples/libDaisy/src/per/adc.h **** 
   9:/Users/ozalp/Documents/DaisyExamples/libDaisy/src/per/adc.h **** #define DSY_ADC_MAX_CHANNELS 16 /**< Maximum number of ADC channels */
  10:/Users/ozalp/Documents/DaisyExamples/libDaisy/src/per/adc.h **** 
  11:/Users/ozalp/Documents/DaisyExamples/libDaisy/src/per/adc.h **** namespace daisy
  12:/Users/ozalp/Documents/DaisyExamples/libDaisy/src/per/adc.h **** {
  13:/Users/ozalp/Documents/DaisyExamples/libDaisy/src/per/adc.h **** /** @addtogroup per_analog
  14:/Users/ozalp/Documents/DaisyExamples/libDaisy/src/per/adc.h ****     @{
  15:/Users/ozalp/Documents/DaisyExamples/libDaisy/src/per/adc.h **** */
  16:/Users/ozalp/Documents/DaisyExamples/libDaisy/src/per/adc.h **** 
  17:/Users/ozalp/Documents/DaisyExamples/libDaisy/src/per/adc.h **** /* While there may not be many configuration options here,
ARM GAS  /var/folders/yk/qy9v9gw959gblxgjb8zzl1nw0000gn/T//cchmfQCm.s 			page 5


  18:/Users/ozalp/Documents/DaisyExamples/libDaisy/src/per/adc.h **** using a struct like this allows us to add more configuration
  19:/Users/ozalp/Documents/DaisyExamples/libDaisy/src/per/adc.h **** later without breaking existing functionality.
  20:/Users/ozalp/Documents/DaisyExamples/libDaisy/src/per/adc.h **** */
  21:/Users/ozalp/Documents/DaisyExamples/libDaisy/src/per/adc.h **** 
  22:/Users/ozalp/Documents/DaisyExamples/libDaisy/src/per/adc.h **** /** @brief   Configuration Structure for an ADC Channel 
  23:/Users/ozalp/Documents/DaisyExamples/libDaisy/src/per/adc.h ****  *  @details This can be used to configure a a single input, 
  24:/Users/ozalp/Documents/DaisyExamples/libDaisy/src/per/adc.h ****  *           or a multiplexed input, allowing up to 8 inputs on 
  25:/Users/ozalp/Documents/DaisyExamples/libDaisy/src/per/adc.h ****  *           one channel.
  26:/Users/ozalp/Documents/DaisyExamples/libDaisy/src/per/adc.h ****  *  @note    Sharing data lines to multiple muxes _is_ possible, but
  27:/Users/ozalp/Documents/DaisyExamples/libDaisy/src/per/adc.h ****  *           each channel sharing data lines must be set to the maximum
  28:/Users/ozalp/Documents/DaisyExamples/libDaisy/src/per/adc.h ****  *           number of channels, even if some multiplexers have fewer
  29:/Users/ozalp/Documents/DaisyExamples/libDaisy/src/per/adc.h ****  *           inputs connected.
  30:/Users/ozalp/Documents/DaisyExamples/libDaisy/src/per/adc.h **** */
  31:/Users/ozalp/Documents/DaisyExamples/libDaisy/src/per/adc.h **** struct AdcChannelConfig
  32:/Users/ozalp/Documents/DaisyExamples/libDaisy/src/per/adc.h **** {
  33:/Users/ozalp/Documents/DaisyExamples/libDaisy/src/per/adc.h ****     /** Which pin to use for multiplexing */
  34:/Users/ozalp/Documents/DaisyExamples/libDaisy/src/per/adc.h ****     enum MuxPin
  35:/Users/ozalp/Documents/DaisyExamples/libDaisy/src/per/adc.h ****     {
  36:/Users/ozalp/Documents/DaisyExamples/libDaisy/src/per/adc.h ****         MUX_SEL_0,    /**< & */
  37:/Users/ozalp/Documents/DaisyExamples/libDaisy/src/per/adc.h ****         MUX_SEL_1,    /**< & */
  38:/Users/ozalp/Documents/DaisyExamples/libDaisy/src/per/adc.h ****         MUX_SEL_2,    /**< & */
  39:/Users/ozalp/Documents/DaisyExamples/libDaisy/src/per/adc.h ****         MUX_SEL_LAST, /**< & */
  40:/Users/ozalp/Documents/DaisyExamples/libDaisy/src/per/adc.h ****     };
  41:/Users/ozalp/Documents/DaisyExamples/libDaisy/src/per/adc.h **** 
  42:/Users/ozalp/Documents/DaisyExamples/libDaisy/src/per/adc.h ****     /** \brief per channel conversion speed added to fixed time based on bitdepth, etc. */
  43:/Users/ozalp/Documents/DaisyExamples/libDaisy/src/per/adc.h ****     enum ConversionSpeed
  44:/Users/ozalp/Documents/DaisyExamples/libDaisy/src/per/adc.h ****     {
  45:/Users/ozalp/Documents/DaisyExamples/libDaisy/src/per/adc.h ****         SPEED_1CYCLES_5,
  46:/Users/ozalp/Documents/DaisyExamples/libDaisy/src/per/adc.h ****         SPEED_2CYCLES_5,
  47:/Users/ozalp/Documents/DaisyExamples/libDaisy/src/per/adc.h ****         SPEED_8CYCLES_5,
  48:/Users/ozalp/Documents/DaisyExamples/libDaisy/src/per/adc.h ****         SPEED_16CYCLES_5,
  49:/Users/ozalp/Documents/DaisyExamples/libDaisy/src/per/adc.h ****         SPEED_32CYCLES_5,
  50:/Users/ozalp/Documents/DaisyExamples/libDaisy/src/per/adc.h ****         SPEED_64CYCLES_5,
  51:/Users/ozalp/Documents/DaisyExamples/libDaisy/src/per/adc.h ****         SPEED_387CYCLES_5,
  52:/Users/ozalp/Documents/DaisyExamples/libDaisy/src/per/adc.h ****         SPEED_810CYCLES_5,
  53:/Users/ozalp/Documents/DaisyExamples/libDaisy/src/per/adc.h ****     };
  54:/Users/ozalp/Documents/DaisyExamples/libDaisy/src/per/adc.h **** 
  55:/Users/ozalp/Documents/DaisyExamples/libDaisy/src/per/adc.h ****     /** Initializes a single ADC pin as an ADC. 
  56:/Users/ozalp/Documents/DaisyExamples/libDaisy/src/per/adc.h ****     \param pin Pin to init.
  57:/Users/ozalp/Documents/DaisyExamples/libDaisy/src/per/adc.h ****     \param speed conversion speed for this pin defaults to 8.5 cycles
  58:/Users/ozalp/Documents/DaisyExamples/libDaisy/src/per/adc.h ****      */
  59:/Users/ozalp/Documents/DaisyExamples/libDaisy/src/per/adc.h ****     void InitSingle(dsy_gpio_pin pin, ConversionSpeed speed = SPEED_8CYCLES_5);
  60:/Users/ozalp/Documents/DaisyExamples/libDaisy/src/per/adc.h **** 
  61:/Users/ozalp/Documents/DaisyExamples/libDaisy/src/per/adc.h ****     /** 
  62:/Users/ozalp/Documents/DaisyExamples/libDaisy/src/per/adc.h ****     Initializes a single ADC pin as a Multiplexed ADC.
  63:/Users/ozalp/Documents/DaisyExamples/libDaisy/src/per/adc.h ****     Requires a CD405X Multiplexer connected to the pin.
  64:/Users/ozalp/Documents/DaisyExamples/libDaisy/src/per/adc.h ****     You only need to supply the mux pins that are required,
  65:/Users/ozalp/Documents/DaisyExamples/libDaisy/src/per/adc.h ****     e.g. a 4052 mux would only require mux_0 and mux_1.
  66:/Users/ozalp/Documents/DaisyExamples/libDaisy/src/per/adc.h ****     Internal Callbacks handle the pin addressing.
  67:/Users/ozalp/Documents/DaisyExamples/libDaisy/src/per/adc.h ****     \param adc_pin &
  68:/Users/ozalp/Documents/DaisyExamples/libDaisy/src/per/adc.h ****     \param mux_channels must be 1-8
  69:/Users/ozalp/Documents/DaisyExamples/libDaisy/src/per/adc.h ****     \param mux_0 First mux pin
  70:/Users/ozalp/Documents/DaisyExamples/libDaisy/src/per/adc.h ****     \param mux_1 Second mux pin
  71:/Users/ozalp/Documents/DaisyExamples/libDaisy/src/per/adc.h ****     \param mux_2 Third mux pin
  72:/Users/ozalp/Documents/DaisyExamples/libDaisy/src/per/adc.h ****     \param speed conversion speed for this pin defaults to 8.5 cycles
  73:/Users/ozalp/Documents/DaisyExamples/libDaisy/src/per/adc.h ****     */
  74:/Users/ozalp/Documents/DaisyExamples/libDaisy/src/per/adc.h ****     void InitMux(dsy_gpio_pin    adc_pin,
ARM GAS  /var/folders/yk/qy9v9gw959gblxgjb8zzl1nw0000gn/T//cchmfQCm.s 			page 6


  75:/Users/ozalp/Documents/DaisyExamples/libDaisy/src/per/adc.h ****                  size_t          mux_channels,
  76:/Users/ozalp/Documents/DaisyExamples/libDaisy/src/per/adc.h ****                  dsy_gpio_pin    mux_0,
  77:/Users/ozalp/Documents/DaisyExamples/libDaisy/src/per/adc.h ****                  dsy_gpio_pin    mux_1 = {DSY_GPIOX, 0},
  78:/Users/ozalp/Documents/DaisyExamples/libDaisy/src/per/adc.h ****                  dsy_gpio_pin    mux_2 = {DSY_GPIOX, 0},
  79:/Users/ozalp/Documents/DaisyExamples/libDaisy/src/per/adc.h ****                  ConversionSpeed speed = SPEED_8CYCLES_5);
  80:/Users/ozalp/Documents/DaisyExamples/libDaisy/src/per/adc.h **** 
  81:/Users/ozalp/Documents/DaisyExamples/libDaisy/src/per/adc.h ****     dsy_gpio        pin_;                   /**< & */
  82:/Users/ozalp/Documents/DaisyExamples/libDaisy/src/per/adc.h ****     dsy_gpio        mux_pin_[MUX_SEL_LAST]; /**< & */
  83:/Users/ozalp/Documents/DaisyExamples/libDaisy/src/per/adc.h ****     uint8_t         mux_channels_;          /**< & */
  84:/Users/ozalp/Documents/DaisyExamples/libDaisy/src/per/adc.h ****     ConversionSpeed speed_;
  85:/Users/ozalp/Documents/DaisyExamples/libDaisy/src/per/adc.h **** };
  86:/Users/ozalp/Documents/DaisyExamples/libDaisy/src/per/adc.h **** 
  87:/Users/ozalp/Documents/DaisyExamples/libDaisy/src/per/adc.h **** /**
  88:/Users/ozalp/Documents/DaisyExamples/libDaisy/src/per/adc.h ****    @brief Handler for analog to digital conversion
  89:/Users/ozalp/Documents/DaisyExamples/libDaisy/src/per/adc.h **** */
  90:/Users/ozalp/Documents/DaisyExamples/libDaisy/src/per/adc.h **** class AdcHandle
  91:/Users/ozalp/Documents/DaisyExamples/libDaisy/src/per/adc.h **** {
  92:/Users/ozalp/Documents/DaisyExamples/libDaisy/src/per/adc.h ****   public:
  93:/Users/ozalp/Documents/DaisyExamples/libDaisy/src/per/adc.h ****     /** Supported oversampling amounts */
  94:/Users/ozalp/Documents/DaisyExamples/libDaisy/src/per/adc.h ****     enum OverSampling
  95:/Users/ozalp/Documents/DaisyExamples/libDaisy/src/per/adc.h ****     {
  96:/Users/ozalp/Documents/DaisyExamples/libDaisy/src/per/adc.h ****         OVS_NONE, /**< & */
  97:/Users/ozalp/Documents/DaisyExamples/libDaisy/src/per/adc.h ****         OVS_4,    /**< & */
  98:/Users/ozalp/Documents/DaisyExamples/libDaisy/src/per/adc.h ****         OVS_8,    /**< & */
  99:/Users/ozalp/Documents/DaisyExamples/libDaisy/src/per/adc.h ****         OVS_16,   /**< & */
 100:/Users/ozalp/Documents/DaisyExamples/libDaisy/src/per/adc.h ****         OVS_32,   /**< & */
 101:/Users/ozalp/Documents/DaisyExamples/libDaisy/src/per/adc.h ****         OVS_64,   /**< & */
 102:/Users/ozalp/Documents/DaisyExamples/libDaisy/src/per/adc.h ****         OVS_128,  /**< & */
 103:/Users/ozalp/Documents/DaisyExamples/libDaisy/src/per/adc.h ****         OVS_256,  /**< & */
 104:/Users/ozalp/Documents/DaisyExamples/libDaisy/src/per/adc.h ****         OVS_512,  /**< & */
 105:/Users/ozalp/Documents/DaisyExamples/libDaisy/src/per/adc.h ****         OVS_1024, /**< & */
 106:/Users/ozalp/Documents/DaisyExamples/libDaisy/src/per/adc.h ****         OVS_LAST, /**< & */
 107:/Users/ozalp/Documents/DaisyExamples/libDaisy/src/per/adc.h ****     };
 108:/Users/ozalp/Documents/DaisyExamples/libDaisy/src/per/adc.h **** 
 109:/Users/ozalp/Documents/DaisyExamples/libDaisy/src/per/adc.h ****     AdcHandle() {}
 110:/Users/ozalp/Documents/DaisyExamples/libDaisy/src/per/adc.h ****     ~AdcHandle() {}
  52              		.loc 5 110 5 is_stmt 1 view .LVU5
  53              		.loc 5 110 5 is_stmt 0 view .LVU6
  54              	.LBE71:
  55              	.LBB72:
  56              	.LBI72:
  57              		.file 6 "/Users/ozalp/Documents/DaisyExamples/libDaisy/src/hid/audio.h"
   1:/Users/ozalp/Documents/DaisyExamples/libDaisy/src/hid/audio.h **** #ifndef DSY_AUDIO_H
   2:/Users/ozalp/Documents/DaisyExamples/libDaisy/src/hid/audio.h **** #define DSY_AUDIO_H /**< & */
   3:/Users/ozalp/Documents/DaisyExamples/libDaisy/src/hid/audio.h **** 
   4:/Users/ozalp/Documents/DaisyExamples/libDaisy/src/hid/audio.h **** #include "per/sai.h"
   5:/Users/ozalp/Documents/DaisyExamples/libDaisy/src/hid/audio.h **** 
   6:/Users/ozalp/Documents/DaisyExamples/libDaisy/src/hid/audio.h **** namespace daisy
   7:/Users/ozalp/Documents/DaisyExamples/libDaisy/src/hid/audio.h **** {
   8:/Users/ozalp/Documents/DaisyExamples/libDaisy/src/hid/audio.h **** /** @brief Audio Engine Handle
   9:/Users/ozalp/Documents/DaisyExamples/libDaisy/src/hid/audio.h ****  *  @ingroup audio 
  10:/Users/ozalp/Documents/DaisyExamples/libDaisy/src/hid/audio.h ****  *  @details This class allows for higher level access to an audio engine.
  11:/Users/ozalp/Documents/DaisyExamples/libDaisy/src/hid/audio.h ****  *           If you're using a SOM like the DaisySeed or DaisyPatchSM (or any 
  12:/Users/ozalp/Documents/DaisyExamples/libDaisy/src/hid/audio.h ****  *            board that includes one of those objects) then the intialization
  13:/Users/ozalp/Documents/DaisyExamples/libDaisy/src/hid/audio.h ****  *            is already taken  care of.
  14:/Users/ozalp/Documents/DaisyExamples/libDaisy/src/hid/audio.h ****  *           If you're setting up your own custom hardware, or need to make changes
  15:/Users/ozalp/Documents/DaisyExamples/libDaisy/src/hid/audio.h ****  *           you will have to take the following steps:
ARM GAS  /var/folders/yk/qy9v9gw959gblxgjb8zzl1nw0000gn/T//cchmfQCm.s 			page 7


  16:/Users/ozalp/Documents/DaisyExamples/libDaisy/src/hid/audio.h ****  *             1. Create and Initialize an SaiHandle or two depending on your requirements
  17:/Users/ozalp/Documents/DaisyExamples/libDaisy/src/hid/audio.h ****  *             2. Initialize the Audio Handle with the desired settings and the Initialized SaiHand
  18:/Users/ozalp/Documents/DaisyExamples/libDaisy/src/hid/audio.h ****  *             3. If the connected codec requires special configuration or initialization, do so
  19:/Users/ozalp/Documents/DaisyExamples/libDaisy/src/hid/audio.h ****  *             4. Write a callback method using either the AudioCallback or the InterleavingAudioCa
  20:/Users/ozalp/Documents/DaisyExamples/libDaisy/src/hid/audio.h ****  *             5. Start the Audio using one of the StartAudio function
  21:/Users/ozalp/Documents/DaisyExamples/libDaisy/src/hid/audio.h ****  */
  22:/Users/ozalp/Documents/DaisyExamples/libDaisy/src/hid/audio.h **** class AudioHandle
  23:/Users/ozalp/Documents/DaisyExamples/libDaisy/src/hid/audio.h **** {
  24:/Users/ozalp/Documents/DaisyExamples/libDaisy/src/hid/audio.h ****   public:
  25:/Users/ozalp/Documents/DaisyExamples/libDaisy/src/hid/audio.h ****     /** Manually configurable details about the Audio Engine */
  26:/Users/ozalp/Documents/DaisyExamples/libDaisy/src/hid/audio.h ****     /** TODO: Figure out how to get samplerate in here. */
  27:/Users/ozalp/Documents/DaisyExamples/libDaisy/src/hid/audio.h ****     struct Config
  28:/Users/ozalp/Documents/DaisyExamples/libDaisy/src/hid/audio.h ****     {
  29:/Users/ozalp/Documents/DaisyExamples/libDaisy/src/hid/audio.h ****         /** number of samples to process per callback */
  30:/Users/ozalp/Documents/DaisyExamples/libDaisy/src/hid/audio.h ****         size_t blocksize;
  31:/Users/ozalp/Documents/DaisyExamples/libDaisy/src/hid/audio.h **** 
  32:/Users/ozalp/Documents/DaisyExamples/libDaisy/src/hid/audio.h ****         /**< Sample rate of audio */
  33:/Users/ozalp/Documents/DaisyExamples/libDaisy/src/hid/audio.h ****         SaiHandle::Config::SampleRate samplerate;
  34:/Users/ozalp/Documents/DaisyExamples/libDaisy/src/hid/audio.h **** 
  35:/Users/ozalp/Documents/DaisyExamples/libDaisy/src/hid/audio.h ****         /** factor for adjustment before and after callback for hardware that may have extra headro
  36:/Users/ozalp/Documents/DaisyExamples/libDaisy/src/hid/audio.h ****         float postgain;
  37:/Users/ozalp/Documents/DaisyExamples/libDaisy/src/hid/audio.h **** 
  38:/Users/ozalp/Documents/DaisyExamples/libDaisy/src/hid/audio.h ****         /** factor for additional one-sided compensation to audio path for hardware that may
  39:/Users/ozalp/Documents/DaisyExamples/libDaisy/src/hid/audio.h ****          *  have unequal input/output ranges
  40:/Users/ozalp/Documents/DaisyExamples/libDaisy/src/hid/audio.h ****          */
  41:/Users/ozalp/Documents/DaisyExamples/libDaisy/src/hid/audio.h ****         float output_compensation;
  42:/Users/ozalp/Documents/DaisyExamples/libDaisy/src/hid/audio.h **** 
  43:/Users/ozalp/Documents/DaisyExamples/libDaisy/src/hid/audio.h ****         /** Sets default values for config struct */
  44:/Users/ozalp/Documents/DaisyExamples/libDaisy/src/hid/audio.h ****         Config()
  45:/Users/ozalp/Documents/DaisyExamples/libDaisy/src/hid/audio.h ****         : blocksize(48),
  46:/Users/ozalp/Documents/DaisyExamples/libDaisy/src/hid/audio.h ****           samplerate(SaiHandle::Config::SampleRate::SAI_48KHZ),
  47:/Users/ozalp/Documents/DaisyExamples/libDaisy/src/hid/audio.h ****           postgain(1.f),
  48:/Users/ozalp/Documents/DaisyExamples/libDaisy/src/hid/audio.h ****           output_compensation(1.f)
  49:/Users/ozalp/Documents/DaisyExamples/libDaisy/src/hid/audio.h ****         {
  50:/Users/ozalp/Documents/DaisyExamples/libDaisy/src/hid/audio.h ****         }
  51:/Users/ozalp/Documents/DaisyExamples/libDaisy/src/hid/audio.h ****     };
  52:/Users/ozalp/Documents/DaisyExamples/libDaisy/src/hid/audio.h **** 
  53:/Users/ozalp/Documents/DaisyExamples/libDaisy/src/hid/audio.h ****     enum class Result
  54:/Users/ozalp/Documents/DaisyExamples/libDaisy/src/hid/audio.h ****     {
  55:/Users/ozalp/Documents/DaisyExamples/libDaisy/src/hid/audio.h ****         OK,
  56:/Users/ozalp/Documents/DaisyExamples/libDaisy/src/hid/audio.h ****         ERR,
  57:/Users/ozalp/Documents/DaisyExamples/libDaisy/src/hid/audio.h ****     };
  58:/Users/ozalp/Documents/DaisyExamples/libDaisy/src/hid/audio.h **** 
  59:/Users/ozalp/Documents/DaisyExamples/libDaisy/src/hid/audio.h ****     /** Non-Interleaving input buffer
  60:/Users/ozalp/Documents/DaisyExamples/libDaisy/src/hid/audio.h ****      * Buffer arranged by float[chn][sample] 
  61:/Users/ozalp/Documents/DaisyExamples/libDaisy/src/hid/audio.h ****      * const so that the user can't modify the input
  62:/Users/ozalp/Documents/DaisyExamples/libDaisy/src/hid/audio.h ****      */
  63:/Users/ozalp/Documents/DaisyExamples/libDaisy/src/hid/audio.h ****     typedef const float* const* InputBuffer;
  64:/Users/ozalp/Documents/DaisyExamples/libDaisy/src/hid/audio.h **** 
  65:/Users/ozalp/Documents/DaisyExamples/libDaisy/src/hid/audio.h ****     /** Non-Interleaving output buffer
  66:/Users/ozalp/Documents/DaisyExamples/libDaisy/src/hid/audio.h ****      * Arranged by float[chn][sample] 
  67:/Users/ozalp/Documents/DaisyExamples/libDaisy/src/hid/audio.h ****      */
  68:/Users/ozalp/Documents/DaisyExamples/libDaisy/src/hid/audio.h ****     typedef float** OutputBuffer;
  69:/Users/ozalp/Documents/DaisyExamples/libDaisy/src/hid/audio.h **** 
  70:/Users/ozalp/Documents/DaisyExamples/libDaisy/src/hid/audio.h ****     /** Type for a Non-Interleaving audio callback 
  71:/Users/ozalp/Documents/DaisyExamples/libDaisy/src/hid/audio.h ****      * Non-Interleaving audio callbacks in daisy will be of this type
  72:/Users/ozalp/Documents/DaisyExamples/libDaisy/src/hid/audio.h ****      */
ARM GAS  /var/folders/yk/qy9v9gw959gblxgjb8zzl1nw0000gn/T//cchmfQCm.s 			page 8


  73:/Users/ozalp/Documents/DaisyExamples/libDaisy/src/hid/audio.h ****     typedef void (*AudioCallback)(InputBuffer  in,
  74:/Users/ozalp/Documents/DaisyExamples/libDaisy/src/hid/audio.h ****                                   OutputBuffer out,
  75:/Users/ozalp/Documents/DaisyExamples/libDaisy/src/hid/audio.h ****                                   size_t       size);
  76:/Users/ozalp/Documents/DaisyExamples/libDaisy/src/hid/audio.h **** 
  77:/Users/ozalp/Documents/DaisyExamples/libDaisy/src/hid/audio.h ****     /** Interleaving Input buffer
  78:/Users/ozalp/Documents/DaisyExamples/libDaisy/src/hid/audio.h ****      ** audio is prepared as { L0, R0, L1, R1, . . . LN, RN }]
  79:/Users/ozalp/Documents/DaisyExamples/libDaisy/src/hid/audio.h ****      ** this is const, as the user shouldn't modify it
  80:/Users/ozalp/Documents/DaisyExamples/libDaisy/src/hid/audio.h ****     */
  81:/Users/ozalp/Documents/DaisyExamples/libDaisy/src/hid/audio.h ****     typedef const float* InterleavingInputBuffer;
  82:/Users/ozalp/Documents/DaisyExamples/libDaisy/src/hid/audio.h **** 
  83:/Users/ozalp/Documents/DaisyExamples/libDaisy/src/hid/audio.h ****     /** Interleaving Output buffer 
  84:/Users/ozalp/Documents/DaisyExamples/libDaisy/src/hid/audio.h ****      ** audio is prepared as { L0, R0, L1, R1, . . . LN, RN }
  85:/Users/ozalp/Documents/DaisyExamples/libDaisy/src/hid/audio.h ****     */
  86:/Users/ozalp/Documents/DaisyExamples/libDaisy/src/hid/audio.h ****     typedef float* InterleavingOutputBuffer;
  87:/Users/ozalp/Documents/DaisyExamples/libDaisy/src/hid/audio.h **** 
  88:/Users/ozalp/Documents/DaisyExamples/libDaisy/src/hid/audio.h ****     /** Interleaving Audio Callback 
  89:/Users/ozalp/Documents/DaisyExamples/libDaisy/src/hid/audio.h ****      * Interleaving audio callbacks in daisy must be of this type
  90:/Users/ozalp/Documents/DaisyExamples/libDaisy/src/hid/audio.h ****      */
  91:/Users/ozalp/Documents/DaisyExamples/libDaisy/src/hid/audio.h ****     typedef void (*InterleavingAudioCallback)(InterleavingInputBuffer  in,
  92:/Users/ozalp/Documents/DaisyExamples/libDaisy/src/hid/audio.h ****                                               InterleavingOutputBuffer out,
  93:/Users/ozalp/Documents/DaisyExamples/libDaisy/src/hid/audio.h ****                                               size_t                   size);
  94:/Users/ozalp/Documents/DaisyExamples/libDaisy/src/hid/audio.h **** 
  95:/Users/ozalp/Documents/DaisyExamples/libDaisy/src/hid/audio.h ****     AudioHandle() : pimpl_(nullptr) {}
  96:/Users/ozalp/Documents/DaisyExamples/libDaisy/src/hid/audio.h ****     ~AudioHandle() {}
  58              		.loc 6 96 5 is_stmt 1 view .LVU7
  59              		.loc 6 96 5 is_stmt 0 view .LVU8
  60              	.LBE72:
  61              	.LBE68:
  62              		.loc 2 22 19 view .LVU9
  63 0000 7047     		bx	lr
  64              		.cfi_endproc
  65              	.LFE2343:
  67              		.weak	_ZN5daisy9DaisySeedD1Ev
  68              		.thumb_set _ZN5daisy9DaisySeedD1Ev,_ZN5daisy9DaisySeedD2Ev
  69 0002 00BF     		.section	.rodata.main.str1.4,"aMS",%progbits,1
  70              		.align	2
  71              	.LC2:
  72 0000 48656C6C 		.ascii	"Hello World\000"
  72      6F20576F 
  72      726C6400 
  73              		.align	2
  74              	.LC3:
  75 000c 257800   		.ascii	"%x\000"
  76 000f 00       		.align	2
  77              	.LC4:
  78 0010 0A00     		.ascii	"\012\000"
  79              		.section	.text.startup.main,"ax",%progbits
  80              		.align	1
  81              		.p2align 2,,3
  82              		.global	main
  83              		.syntax unified
  84              		.thumb
  85              		.thumb_func
  87              	main:
  88              	.LFB4692:
   1:main.cpp      **** #include "daisy_seed.h"
   2:main.cpp      **** #include "daisysp.h"
ARM GAS  /var/folders/yk/qy9v9gw959gblxgjb8zzl1nw0000gn/T//cchmfQCm.s 			page 9


   3:main.cpp      **** #include <math.h>
   4:main.cpp      **** #include "i2c.h"
   5:main.cpp      **** 
   6:main.cpp      **** using namespace daisy;
   7:main.cpp      **** using namespace daisysp;
   8:main.cpp      **** 
   9:main.cpp      **** DaisySeed hardware;
  10:main.cpp      **** 
  11:main.cpp      **** I2CHandle i2c1_handle;
  12:main.cpp      **** uint8_t buffer[14];
  13:main.cpp      **** 
  14:main.cpp      **** 
  15:main.cpp      **** int main(){
  89              		.loc 1 15 11 is_stmt 1 view -0
  90              		.cfi_startproc
  91              		@ args = 0, pretend = 0, frame = 40
  92              		@ frame_needed = 0, uses_anonymous_args = 0
  16:main.cpp      ****     // Initialize the Daisy Seed hardware (including LED)
  17:main.cpp      ****     hardware.Init();
  93              		.loc 1 17 5 view .LVU11
  15:main.cpp      ****     // Initialize the Daisy Seed hardware (including LED)
  94              		.loc 1 15 11 is_stmt 0 view .LVU12
  95 0000 30B5     		push	{r4, r5, lr}
  96              		.cfi_def_cfa_offset 12
  97              		.cfi_offset 4, -12
  98              		.cfi_offset 5, -8
  99              		.cfi_offset 14, -4
 100              		.loc 1 17 18 view .LVU13
 101 0002 0021     		movs	r1, #0
  15:main.cpp      ****     // Initialize the Daisy Seed hardware (including LED)
 102              		.loc 1 15 11 view .LVU14
 103 0004 8BB0     		sub	sp, sp, #44
 104              		.cfi_def_cfa_offset 56
 105              		.loc 1 17 18 view .LVU15
 106 0006 1C48     		ldr	r0, .L10
  18:main.cpp      ****     hardware.StartLog(true);
  19:main.cpp      ****     hardware.Print("Hello World");
  20:main.cpp      **** 
  21:main.cpp      ****     // Configure the I2C handle
  22:main.cpp      ****     I2CHandle::Config i2c1_conf;
  23:main.cpp      ****     i2c1_conf.periph = I2CHandle::Config::Peripheral::I2C_1;
  24:main.cpp      ****     i2c1_conf.mode = I2CHandle::Config::Mode::I2C_MASTER;
  25:main.cpp      ****     i2c1_conf.speed = I2CHandle::Config::Speed::I2C_400KHZ;
 107              		.loc 1 25 21 view .LVU16
 108 0008 0124     		movs	r4, #1
  17:main.cpp      ****     hardware.StartLog(true);
 109              		.loc 1 17 18 view .LVU17
 110 000a FFF7FEFF 		bl	_ZN5daisy9DaisySeed4InitEb
 111              	.LVL1:
  18:main.cpp      ****     hardware.StartLog(true);
 112              		.loc 1 18 5 is_stmt 1 view .LVU18
 113              	.LBB73:
 114              	.LBI73:
  23:/Users/ozalp/Documents/DaisyExamples/libDaisy/src/daisy_seed.h **** 
  24:/Users/ozalp/Documents/DaisyExamples/libDaisy/src/daisy_seed.h ****     /** This function used to provide a pre-initialization configuraiton 
  25:/Users/ozalp/Documents/DaisyExamples/libDaisy/src/daisy_seed.h ****      *  it has since been deprecated, and does nothing.
  26:/Users/ozalp/Documents/DaisyExamples/libDaisy/src/daisy_seed.h ****      */
ARM GAS  /var/folders/yk/qy9v9gw959gblxgjb8zzl1nw0000gn/T//cchmfQCm.s 			page 10


  27:/Users/ozalp/Documents/DaisyExamples/libDaisy/src/daisy_seed.h ****     void Configure();
  28:/Users/ozalp/Documents/DaisyExamples/libDaisy/src/daisy_seed.h **** 
  29:/Users/ozalp/Documents/DaisyExamples/libDaisy/src/daisy_seed.h ****     /** 
  30:/Users/ozalp/Documents/DaisyExamples/libDaisy/src/daisy_seed.h ****     Initializes the Daisy Seed and the following peripherals:
  31:/Users/ozalp/Documents/DaisyExamples/libDaisy/src/daisy_seed.h ****     SDRAM, QSPI, 24-bit 48kHz Audio via AK4556, Internal USB,
  32:/Users/ozalp/Documents/DaisyExamples/libDaisy/src/daisy_seed.h ****     as well as the built-in LED and Testpoint.
  33:/Users/ozalp/Documents/DaisyExamples/libDaisy/src/daisy_seed.h **** 
  34:/Users/ozalp/Documents/DaisyExamples/libDaisy/src/daisy_seed.h ****     ADCs, DACs, and other special peripherals (such as I2C, SPI, etc.)
  35:/Users/ozalp/Documents/DaisyExamples/libDaisy/src/daisy_seed.h ****     can be initialized using their specific initializers within libdaisy
  36:/Users/ozalp/Documents/DaisyExamples/libDaisy/src/daisy_seed.h ****     for a specific application.
  37:/Users/ozalp/Documents/DaisyExamples/libDaisy/src/daisy_seed.h ****     */
  38:/Users/ozalp/Documents/DaisyExamples/libDaisy/src/daisy_seed.h ****     void Init(bool boost = false);
  39:/Users/ozalp/Documents/DaisyExamples/libDaisy/src/daisy_seed.h **** 
  40:/Users/ozalp/Documents/DaisyExamples/libDaisy/src/daisy_seed.h ****     /** 
  41:/Users/ozalp/Documents/DaisyExamples/libDaisy/src/daisy_seed.h ****     Deinitializes all peripherals automatically handled by `Init`.
  42:/Users/ozalp/Documents/DaisyExamples/libDaisy/src/daisy_seed.h ****     */
  43:/Users/ozalp/Documents/DaisyExamples/libDaisy/src/daisy_seed.h ****     void DeInit();
  44:/Users/ozalp/Documents/DaisyExamples/libDaisy/src/daisy_seed.h **** 
  45:/Users/ozalp/Documents/DaisyExamples/libDaisy/src/daisy_seed.h ****     /** 
  46:/Users/ozalp/Documents/DaisyExamples/libDaisy/src/daisy_seed.h ****     Wait some ms before going on.
  47:/Users/ozalp/Documents/DaisyExamples/libDaisy/src/daisy_seed.h ****     \param del Delay time in ms.
  48:/Users/ozalp/Documents/DaisyExamples/libDaisy/src/daisy_seed.h ****     */
  49:/Users/ozalp/Documents/DaisyExamples/libDaisy/src/daisy_seed.h ****     void DelayMs(size_t del);
  50:/Users/ozalp/Documents/DaisyExamples/libDaisy/src/daisy_seed.h **** 
  51:/Users/ozalp/Documents/DaisyExamples/libDaisy/src/daisy_seed.h ****     /** 
  52:/Users/ozalp/Documents/DaisyExamples/libDaisy/src/daisy_seed.h ****     Returns the gpio_pin corresponding to the index 0-31.
  53:/Users/ozalp/Documents/DaisyExamples/libDaisy/src/daisy_seed.h ****     For the given GPIO on the Daisy Seed (labeled 1-32 in docs).
  54:/Users/ozalp/Documents/DaisyExamples/libDaisy/src/daisy_seed.h ****     */
  55:/Users/ozalp/Documents/DaisyExamples/libDaisy/src/daisy_seed.h ****     static dsy_gpio_pin GetPin(uint8_t pin_idx);
  56:/Users/ozalp/Documents/DaisyExamples/libDaisy/src/daisy_seed.h **** 
  57:/Users/ozalp/Documents/DaisyExamples/libDaisy/src/daisy_seed.h ****     /** Begins the audio for the seeds builtin audio.
  58:/Users/ozalp/Documents/DaisyExamples/libDaisy/src/daisy_seed.h ****     the specified callback will get called whenever
  59:/Users/ozalp/Documents/DaisyExamples/libDaisy/src/daisy_seed.h ****     new data is ready to be prepared.
  60:/Users/ozalp/Documents/DaisyExamples/libDaisy/src/daisy_seed.h ****     */
  61:/Users/ozalp/Documents/DaisyExamples/libDaisy/src/daisy_seed.h ****     void StartAudio(AudioHandle::InterleavingAudioCallback cb);
  62:/Users/ozalp/Documents/DaisyExamples/libDaisy/src/daisy_seed.h **** 
  63:/Users/ozalp/Documents/DaisyExamples/libDaisy/src/daisy_seed.h ****     /** Begins the audio for the seeds builtin audio.
  64:/Users/ozalp/Documents/DaisyExamples/libDaisy/src/daisy_seed.h ****     the specified callback will get called whenever
  65:/Users/ozalp/Documents/DaisyExamples/libDaisy/src/daisy_seed.h ****     new data is ready to be prepared.
  66:/Users/ozalp/Documents/DaisyExamples/libDaisy/src/daisy_seed.h ****     This will use the newer non-interleaved callback.
  67:/Users/ozalp/Documents/DaisyExamples/libDaisy/src/daisy_seed.h ****     */
  68:/Users/ozalp/Documents/DaisyExamples/libDaisy/src/daisy_seed.h ****     void StartAudio(AudioHandle::AudioCallback cb);
  69:/Users/ozalp/Documents/DaisyExamples/libDaisy/src/daisy_seed.h **** 
  70:/Users/ozalp/Documents/DaisyExamples/libDaisy/src/daisy_seed.h ****     /** Changes to a new interleaved callback
  71:/Users/ozalp/Documents/DaisyExamples/libDaisy/src/daisy_seed.h ****      */
  72:/Users/ozalp/Documents/DaisyExamples/libDaisy/src/daisy_seed.h ****     void ChangeAudioCallback(AudioHandle::InterleavingAudioCallback cb);
  73:/Users/ozalp/Documents/DaisyExamples/libDaisy/src/daisy_seed.h **** 
  74:/Users/ozalp/Documents/DaisyExamples/libDaisy/src/daisy_seed.h ****     /** Changes to a new multichannel callback
  75:/Users/ozalp/Documents/DaisyExamples/libDaisy/src/daisy_seed.h ****      */
  76:/Users/ozalp/Documents/DaisyExamples/libDaisy/src/daisy_seed.h ****     void ChangeAudioCallback(AudioHandle::AudioCallback cb);
  77:/Users/ozalp/Documents/DaisyExamples/libDaisy/src/daisy_seed.h **** 
  78:/Users/ozalp/Documents/DaisyExamples/libDaisy/src/daisy_seed.h ****     /** Stops the audio if it is running. */
  79:/Users/ozalp/Documents/DaisyExamples/libDaisy/src/daisy_seed.h ****     void StopAudio();
  80:/Users/ozalp/Documents/DaisyExamples/libDaisy/src/daisy_seed.h **** 
  81:/Users/ozalp/Documents/DaisyExamples/libDaisy/src/daisy_seed.h ****     /** Updates the Audio Sample Rate, and reinitializes.
  82:/Users/ozalp/Documents/DaisyExamples/libDaisy/src/daisy_seed.h ****      ** Audio must be stopped for this to work.
  83:/Users/ozalp/Documents/DaisyExamples/libDaisy/src/daisy_seed.h ****      */
ARM GAS  /var/folders/yk/qy9v9gw959gblxgjb8zzl1nw0000gn/T//cchmfQCm.s 			page 11


  84:/Users/ozalp/Documents/DaisyExamples/libDaisy/src/daisy_seed.h ****     void SetAudioSampleRate(SaiHandle::Config::SampleRate samplerate);
  85:/Users/ozalp/Documents/DaisyExamples/libDaisy/src/daisy_seed.h **** 
  86:/Users/ozalp/Documents/DaisyExamples/libDaisy/src/daisy_seed.h ****     /** Returns the audio sample rate in Hz as a floating point number.
  87:/Users/ozalp/Documents/DaisyExamples/libDaisy/src/daisy_seed.h ****      */
  88:/Users/ozalp/Documents/DaisyExamples/libDaisy/src/daisy_seed.h ****     float AudioSampleRate();
  89:/Users/ozalp/Documents/DaisyExamples/libDaisy/src/daisy_seed.h **** 
  90:/Users/ozalp/Documents/DaisyExamples/libDaisy/src/daisy_seed.h ****     /** Sets the number of samples processed per channel by the audio callback.
  91:/Users/ozalp/Documents/DaisyExamples/libDaisy/src/daisy_seed.h ****      */
  92:/Users/ozalp/Documents/DaisyExamples/libDaisy/src/daisy_seed.h ****     void SetAudioBlockSize(size_t blocksize);
  93:/Users/ozalp/Documents/DaisyExamples/libDaisy/src/daisy_seed.h **** 
  94:/Users/ozalp/Documents/DaisyExamples/libDaisy/src/daisy_seed.h ****     /** Returns the number of samples per channel in a block of audio. */
  95:/Users/ozalp/Documents/DaisyExamples/libDaisy/src/daisy_seed.h ****     size_t AudioBlockSize();
  96:/Users/ozalp/Documents/DaisyExamples/libDaisy/src/daisy_seed.h **** 
  97:/Users/ozalp/Documents/DaisyExamples/libDaisy/src/daisy_seed.h ****     /** Returns the rate in Hz that the Audio callback is called */
  98:/Users/ozalp/Documents/DaisyExamples/libDaisy/src/daisy_seed.h ****     float AudioCallbackRate() const;
  99:/Users/ozalp/Documents/DaisyExamples/libDaisy/src/daisy_seed.h **** 
 100:/Users/ozalp/Documents/DaisyExamples/libDaisy/src/daisy_seed.h ****     /** Returns the SAI Handle for the Daisy Seed 
 101:/Users/ozalp/Documents/DaisyExamples/libDaisy/src/daisy_seed.h ****      *  This can be useful when adding a secondary codec,
 102:/Users/ozalp/Documents/DaisyExamples/libDaisy/src/daisy_seed.h ****      *  the result of this function can be passed to the audio reinit 
 103:/Users/ozalp/Documents/DaisyExamples/libDaisy/src/daisy_seed.h ****      *  with an SAI2 configuration
 104:/Users/ozalp/Documents/DaisyExamples/libDaisy/src/daisy_seed.h ****      */
 105:/Users/ozalp/Documents/DaisyExamples/libDaisy/src/daisy_seed.h ****     const SaiHandle& AudioSaiHandle() const;
 106:/Users/ozalp/Documents/DaisyExamples/libDaisy/src/daisy_seed.h **** 
 107:/Users/ozalp/Documents/DaisyExamples/libDaisy/src/daisy_seed.h ****     /** Sets the state of the built in LED
 108:/Users/ozalp/Documents/DaisyExamples/libDaisy/src/daisy_seed.h ****      */
 109:/Users/ozalp/Documents/DaisyExamples/libDaisy/src/daisy_seed.h ****     void SetLed(bool state);
 110:/Users/ozalp/Documents/DaisyExamples/libDaisy/src/daisy_seed.h **** 
 111:/Users/ozalp/Documents/DaisyExamples/libDaisy/src/daisy_seed.h ****     /** Sets the state of the test point near pin 10
 112:/Users/ozalp/Documents/DaisyExamples/libDaisy/src/daisy_seed.h ****      */
 113:/Users/ozalp/Documents/DaisyExamples/libDaisy/src/daisy_seed.h ****     void SetTestPoint(bool state);
 114:/Users/ozalp/Documents/DaisyExamples/libDaisy/src/daisy_seed.h **** 
 115:/Users/ozalp/Documents/DaisyExamples/libDaisy/src/daisy_seed.h ****     /** Print formatted debug log message
 116:/Users/ozalp/Documents/DaisyExamples/libDaisy/src/daisy_seed.h ****      */
 117:/Users/ozalp/Documents/DaisyExamples/libDaisy/src/daisy_seed.h ****     template <typename... VA>
 118:/Users/ozalp/Documents/DaisyExamples/libDaisy/src/daisy_seed.h ****     static void Print(const char* format, VA... va)
 119:/Users/ozalp/Documents/DaisyExamples/libDaisy/src/daisy_seed.h ****     {
 120:/Users/ozalp/Documents/DaisyExamples/libDaisy/src/daisy_seed.h ****         Log::Print(format, va...);
 121:/Users/ozalp/Documents/DaisyExamples/libDaisy/src/daisy_seed.h ****     }
 122:/Users/ozalp/Documents/DaisyExamples/libDaisy/src/daisy_seed.h **** 
 123:/Users/ozalp/Documents/DaisyExamples/libDaisy/src/daisy_seed.h ****     /** Print formatted debug log message with automatic line termination
 124:/Users/ozalp/Documents/DaisyExamples/libDaisy/src/daisy_seed.h ****     */
 125:/Users/ozalp/Documents/DaisyExamples/libDaisy/src/daisy_seed.h ****     template <typename... VA>
 126:/Users/ozalp/Documents/DaisyExamples/libDaisy/src/daisy_seed.h ****     static void PrintLine(const char* format, VA... va)
 127:/Users/ozalp/Documents/DaisyExamples/libDaisy/src/daisy_seed.h ****     {
 128:/Users/ozalp/Documents/DaisyExamples/libDaisy/src/daisy_seed.h ****         Log::PrintLine(format, va...);
 129:/Users/ozalp/Documents/DaisyExamples/libDaisy/src/daisy_seed.h ****     }
 130:/Users/ozalp/Documents/DaisyExamples/libDaisy/src/daisy_seed.h **** 
 131:/Users/ozalp/Documents/DaisyExamples/libDaisy/src/daisy_seed.h ****     /** Start the logging session. Optionally wait for terminal connection before proceeding.
 132:/Users/ozalp/Documents/DaisyExamples/libDaisy/src/daisy_seed.h ****     */
 133:/Users/ozalp/Documents/DaisyExamples/libDaisy/src/daisy_seed.h ****     static void StartLog(bool wait_for_pc = false)
 115              		.loc 2 133 17 view .LVU19
 116              	.LBB74:
 134:/Users/ozalp/Documents/DaisyExamples/libDaisy/src/daisy_seed.h ****     {
 135:/Users/ozalp/Documents/DaisyExamples/libDaisy/src/daisy_seed.h ****         Log::StartLog(wait_for_pc);
 117              		.loc 2 135 9 view .LVU20
 118              		.loc 2 135 22 is_stmt 0 view .LVU21
 119 000e 0120     		movs	r0, #1
ARM GAS  /var/folders/yk/qy9v9gw959gblxgjb8zzl1nw0000gn/T//cchmfQCm.s 			page 12


 120 0010 FFF7FEFF 		bl	_ZN5daisy6LoggerILNS_17LoggerDestinationE1EE8StartLogEb
 121              	.LVL2:
 122              		.loc 2 135 22 view .LVU22
 123              	.LBE74:
 124              	.LBE73:
  19:main.cpp      **** 
 125              		.loc 1 19 5 is_stmt 1 view .LVU23
 126              	.LBB75:
 127              	.LBI75:
 118:/Users/ozalp/Documents/DaisyExamples/libDaisy/src/daisy_seed.h ****     {
 128              		.loc 2 118 17 view .LVU24
 129              	.LBB76:
 120:/Users/ozalp/Documents/DaisyExamples/libDaisy/src/daisy_seed.h ****     }
 130              		.loc 2 120 19 is_stmt 0 view .LVU25
 131 0014 1948     		ldr	r0, .L10+4
 132 0016 FFF7FEFF 		bl	_ZN5daisy6LoggerILNS_17LoggerDestinationE1EE5PrintEPKcz
 133              	.LVL3:
 120:/Users/ozalp/Documents/DaisyExamples/libDaisy/src/daisy_seed.h ****     }
 134              		.loc 2 120 19 view .LVU26
 135              	.LBE76:
 136              	.LBE75:
  22:main.cpp      ****     i2c1_conf.periph = I2CHandle::Config::Peripheral::I2C_1;
 137              		.loc 1 22 5 is_stmt 1 view .LVU27
 138              	.LBB77:
 139              	.LBI77:
 140              		.file 7 "/Users/ozalp/Documents/DaisyExamples/libDaisy/src/per/i2c.h"
   1:/Users/ozalp/Documents/DaisyExamples/libDaisy/src/per/i2c.h **** #pragma once
   2:/Users/ozalp/Documents/DaisyExamples/libDaisy/src/per/i2c.h **** #include "daisy_core.h"
   3:/Users/ozalp/Documents/DaisyExamples/libDaisy/src/per/i2c.h **** 
   4:/Users/ozalp/Documents/DaisyExamples/libDaisy/src/per/i2c.h **** namespace daisy
   5:/Users/ozalp/Documents/DaisyExamples/libDaisy/src/per/i2c.h **** {
   6:/Users/ozalp/Documents/DaisyExamples/libDaisy/src/per/i2c.h **** /** A handle for interacting with an I2C peripheral. This is a dumb
   7:/Users/ozalp/Documents/DaisyExamples/libDaisy/src/per/i2c.h ****  *  gateway that internally points to one of the four I2C peripherals
   8:/Users/ozalp/Documents/DaisyExamples/libDaisy/src/per/i2c.h ****  *  after it was initialised. It can then be copied and passed around.
   9:/Users/ozalp/Documents/DaisyExamples/libDaisy/src/per/i2c.h ****  *  Use an I2CHandle like this:
  10:/Users/ozalp/Documents/DaisyExamples/libDaisy/src/per/i2c.h ****  *  
  11:/Users/ozalp/Documents/DaisyExamples/libDaisy/src/per/i2c.h ****  *      // setup the configuration
  12:/Users/ozalp/Documents/DaisyExamples/libDaisy/src/per/i2c.h ****  *      I2CHandle::Config i2c_conf;
  13:/Users/ozalp/Documents/DaisyExamples/libDaisy/src/per/i2c.h ****  *      i2c_conf.periph = I2CHandle::Config::Peripheral::I2C_1;
  14:/Users/ozalp/Documents/DaisyExamples/libDaisy/src/per/i2c.h ****  *      i2c_conf.speed  = I2CHandle::Config::Speed::I2C_400KHZ;
  15:/Users/ozalp/Documents/DaisyExamples/libDaisy/src/per/i2c.h ****  *      i2c_conf.mode   = I2CHandle::Config::Mode::Master;
  16:/Users/ozalp/Documents/DaisyExamples/libDaisy/src/per/i2c.h ****  *      i2c_conf.pin_config.scl  = {DSY_GPIOB, 8};
  17:/Users/ozalp/Documents/DaisyExamples/libDaisy/src/per/i2c.h ****  *      i2c_conf.pin_config.sda  = {DSY_GPIOB, 9};
  18:/Users/ozalp/Documents/DaisyExamples/libDaisy/src/per/i2c.h ****  *      // initialise the peripheral
  19:/Users/ozalp/Documents/DaisyExamples/libDaisy/src/per/i2c.h ****  *      I2CHandle i2c;
  20:/Users/ozalp/Documents/DaisyExamples/libDaisy/src/per/i2c.h ****  *      i2c.Init(i2c_conf);
  21:/Users/ozalp/Documents/DaisyExamples/libDaisy/src/per/i2c.h ****  *      // now i2c points to the corresponding peripheral and can be used.
  22:/Users/ozalp/Documents/DaisyExamples/libDaisy/src/per/i2c.h ****  *      i2c.TransmitBlocking( ... );
  23:/Users/ozalp/Documents/DaisyExamples/libDaisy/src/per/i2c.h ****  */
  24:/Users/ozalp/Documents/DaisyExamples/libDaisy/src/per/i2c.h **** class I2CHandle
  25:/Users/ozalp/Documents/DaisyExamples/libDaisy/src/per/i2c.h **** {
  26:/Users/ozalp/Documents/DaisyExamples/libDaisy/src/per/i2c.h ****   public:
  27:/Users/ozalp/Documents/DaisyExamples/libDaisy/src/per/i2c.h ****     /** Contains settings for initialising an I2C interface. */
  28:/Users/ozalp/Documents/DaisyExamples/libDaisy/src/per/i2c.h ****     struct Config
 141              		.loc 7 28 12 view .LVU28
 142              	.LBB78:
 143 001a 1020     		movs	r0, #16
ARM GAS  /var/folders/yk/qy9v9gw959gblxgjb8zzl1nw0000gn/T//cchmfQCm.s 			page 13


 144              	.LBE78:
 145              	.LBE77:
  23:main.cpp      ****     i2c1_conf.mode = I2CHandle::Config::Mode::I2C_MASTER;
 146              		.loc 1 23 22 is_stmt 0 view .LVU29
 147 001c 0023     		movs	r3, #0
  26:main.cpp      ****     i2c1_conf.pin_config.scl = seed::D11;
 148              		.loc 1 26 30 view .LVU30
 149 001e 184A     		ldr	r2, .L10+8
 150              	.LBB80:
 151              	.LBB79:
 152              		.loc 7 28 12 view .LVU31
 153 0020 8DF82400 		strb	r0, [sp, #36]
 154              	.LVL4:
 155              		.loc 7 28 12 view .LVU32
 156              	.LBE79:
 157              	.LBE80:
  23:main.cpp      ****     i2c1_conf.mode = I2CHandle::Config::Mode::I2C_MASTER;
 158              		.loc 1 23 5 is_stmt 1 view .LVU33
  27:main.cpp      ****     i2c1_conf.pin_config.sda = seed::D12;
  28:main.cpp      **** 
  29:main.cpp      ****     // Initialize the I2C handle
  30:main.cpp      ****     if (i2c1_handle.Init(i2c1_conf) == I2CHandle::Result::OK)
 159              		.loc 1 30 25 is_stmt 0 view .LVU34
 160 0024 05A9     		add	r1, sp, #20
 161 0026 1748     		ldr	r0, .L10+12
  23:main.cpp      ****     i2c1_conf.mode = I2CHandle::Config::Mode::I2C_MASTER;
 162              		.loc 1 23 22 view .LVU35
 163 0028 0593     		str	r3, [sp, #20]
  24:main.cpp      ****     i2c1_conf.speed = I2CHandle::Config::Speed::I2C_400KHZ;
 164              		.loc 1 24 5 is_stmt 1 view .LVU36
  24:main.cpp      ****     i2c1_conf.speed = I2CHandle::Config::Speed::I2C_400KHZ;
 165              		.loc 1 24 20 is_stmt 0 view .LVU37
 166 002a 0893     		str	r3, [sp, #32]
  25:main.cpp      ****     i2c1_conf.pin_config.scl = seed::D11;
 167              		.loc 1 25 5 is_stmt 1 view .LVU38
  26:main.cpp      ****     i2c1_conf.pin_config.sda = seed::D12;
 168              		.loc 1 26 30 is_stmt 0 view .LVU39
 169 002c CDE90624 		strd	r2, r4, [sp, #24]
 170              		.loc 1 30 5 is_stmt 1 view .LVU40
 171              		.loc 1 30 25 is_stmt 0 view .LVU41
 172 0030 FFF7FEFF 		bl	_ZN5daisy9I2CHandle4InitERKNS0_6ConfigE
 173              	.LVL5:
 174              		.loc 1 30 5 discriminator 1 view .LVU42
 175 0034 70B1     		cbz	r0, .L5
 176 0036 0DF11105 		add	r5, sp, #17
 177              	.L4:
  31:main.cpp      ****     {
  32:main.cpp      ****         // Init failed - rapid blink to indicate error
  33:main.cpp      ****         while (true)
  34:main.cpp      ****         {
  35:main.cpp      ****             hardware.SetLed(true);
  36:main.cpp      ****             hardware.DelayMs(100);
  37:main.cpp      ****             hardware.SetLed(false);
  38:main.cpp      ****             hardware.DelayMs(100);
  39:main.cpp      ****         }
  40:main.cpp      ****     }
  41:main.cpp      **** 
ARM GAS  /var/folders/yk/qy9v9gw959gblxgjb8zzl1nw0000gn/T//cchmfQCm.s 			page 14


  42:main.cpp      ****     uint8_t buffer[14];
 178              		.loc 1 42 5 is_stmt 1 view .LVU43
  43:main.cpp      **** 
  44:main.cpp      ****     while (true)
 179              		.loc 1 44 5 view .LVU44
 180              	.LBB81:
  45:main.cpp      ****     {
  46:main.cpp      ****         for(int i = 0; i < 14; i++) {
 181              		.loc 1 46 9 view .LVU45
 182              	.LVL6:
 183              	.LBB82:
 184              		.loc 1 46 26 discriminator 1 view .LVU46
 185 003a 0DF10304 		add	r4, sp, #3
 186              	.LVL7:
 187              	.L6:
  47:main.cpp      ****             hardware.Print("%x", buffer[i]);
 188              		.loc 1 47 13 view .LVU47
 189              	.LBB83:
 190              	.LBI83:
 118:/Users/ozalp/Documents/DaisyExamples/libDaisy/src/daisy_seed.h ****     {
 191              		.loc 2 118 17 view .LVU48
 192              	.LBB84:
 120:/Users/ozalp/Documents/DaisyExamples/libDaisy/src/daisy_seed.h ****     }
 193              		.loc 2 120 19 is_stmt 0 view .LVU49
 194 003e 14F8011F 		ldrb	r1, [r4, #1]!	@ zero_extendqisi2
 195              	.LVL8:
 120:/Users/ozalp/Documents/DaisyExamples/libDaisy/src/daisy_seed.h ****     }
 196              		.loc 2 120 19 view .LVU50
 197 0042 1148     		ldr	r0, .L10+16
 198 0044 FFF7FEFF 		bl	_ZN5daisy6LoggerILNS_17LoggerDestinationE1EE5PrintEPKcz
 199              	.LVL9:
 120:/Users/ozalp/Documents/DaisyExamples/libDaisy/src/daisy_seed.h ****     }
 200              		.loc 2 120 19 view .LVU51
 201              	.LBE84:
 202              	.LBE83:
  46:main.cpp      ****             hardware.Print("%x", buffer[i]);
 203              		.loc 1 46 9 is_stmt 1 discriminator 3 view .LVU52
  46:main.cpp      ****             hardware.Print("%x", buffer[i]);
 204              		.loc 1 46 26 discriminator 1 view .LVU53
 205 0048 AC42     		cmp	r4, r5
 206 004a F8D1     		bne	.L6
 207              	.LBE82:
  48:main.cpp      ****         }
  49:main.cpp      ****         hardware.Print("\n");
 208              		.loc 1 49 9 view .LVU54
 209              	.LVL10:
 210              	.LBB85:
 211              	.LBI85:
 118:/Users/ozalp/Documents/DaisyExamples/libDaisy/src/daisy_seed.h ****     {
 212              		.loc 2 118 17 view .LVU55
 213              	.LBB86:
 120:/Users/ozalp/Documents/DaisyExamples/libDaisy/src/daisy_seed.h ****     }
 214              		.loc 2 120 19 is_stmt 0 view .LVU56
 215 004c 0F48     		ldr	r0, .L10+20
 216 004e FFF7FEFF 		bl	_ZN5daisy6LoggerILNS_17LoggerDestinationE1EE5PrintEPKcz
 217              	.LVL11:
 120:/Users/ozalp/Documents/DaisyExamples/libDaisy/src/daisy_seed.h ****     }
ARM GAS  /var/folders/yk/qy9v9gw959gblxgjb8zzl1nw0000gn/T//cchmfQCm.s 			page 15


 218              		.loc 2 120 19 view .LVU57
 219              	.LBE86:
 220              	.LBE85:
 221              	.LBE81:
  44:main.cpp      ****     {
 222              		.loc 1 44 5 is_stmt 1 view .LVU58
 223              	.LBB89:
 224              	.LBB88:
 225              	.LBB87:
 121:/Users/ozalp/Documents/DaisyExamples/libDaisy/src/daisy_seed.h **** 
 226              		.loc 2 121 5 is_stmt 0 view .LVU59
 227 0052 F2E7     		b	.L4
 228              	.LVL12:
 229              	.L5:
 121:/Users/ozalp/Documents/DaisyExamples/libDaisy/src/daisy_seed.h **** 
 230              		.loc 2 121 5 view .LVU60
 231              	.LBE87:
 232              	.LBE88:
 233              	.LBE89:
  33:main.cpp      ****         {
 234              		.loc 1 33 9 is_stmt 1 view .LVU61
  35:main.cpp      ****             hardware.DelayMs(100);
 235              		.loc 1 35 13 view .LVU62
  35:main.cpp      ****             hardware.DelayMs(100);
 236              		.loc 1 35 28 is_stmt 0 view .LVU63
 237 0054 0121     		movs	r1, #1
 238 0056 0848     		ldr	r0, .L10
 239 0058 FFF7FEFF 		bl	_ZN5daisy9DaisySeed6SetLedEb
 240              	.LVL13:
  36:main.cpp      ****             hardware.SetLed(false);
 241              		.loc 1 36 13 is_stmt 1 view .LVU64
  36:main.cpp      ****             hardware.SetLed(false);
 242              		.loc 1 36 29 is_stmt 0 view .LVU65
 243 005c 6421     		movs	r1, #100
 244 005e 0648     		ldr	r0, .L10
 245 0060 FFF7FEFF 		bl	_ZN5daisy9DaisySeed7DelayMsEj
 246              	.LVL14:
  37:main.cpp      ****             hardware.DelayMs(100);
 247              		.loc 1 37 13 is_stmt 1 view .LVU66
  37:main.cpp      ****             hardware.DelayMs(100);
 248              		.loc 1 37 28 is_stmt 0 view .LVU67
 249 0064 0021     		movs	r1, #0
 250 0066 0448     		ldr	r0, .L10
 251 0068 FFF7FEFF 		bl	_ZN5daisy9DaisySeed6SetLedEb
 252              	.LVL15:
  38:main.cpp      ****         }
 253              		.loc 1 38 13 is_stmt 1 discriminator 2 view .LVU68
  38:main.cpp      ****         }
 254              		.loc 1 38 29 is_stmt 0 discriminator 2 view .LVU69
 255 006c 6421     		movs	r1, #100
 256 006e 0248     		ldr	r0, .L10
 257 0070 FFF7FEFF 		bl	_ZN5daisy9DaisySeed7DelayMsEj
 258              	.LVL16:
  33:main.cpp      ****         {
 259              		.loc 1 33 9 is_stmt 1 view .LVU70
 260 0074 EEE7     		b	.L5
 261              	.L11:
ARM GAS  /var/folders/yk/qy9v9gw959gblxgjb8zzl1nw0000gn/T//cchmfQCm.s 			page 16


 262 0076 00BF     		.align	2
 263              	.L10:
 264 0078 00000000 		.word	hardware
 265 007c 00000000 		.word	.LC2
 266 0080 01080109 		.word	151062529
 267 0084 00000000 		.word	i2c1_handle
 268 0088 0C000000 		.word	.LC3
 269 008c 10000000 		.word	.LC4
 270              		.cfi_endproc
 271              	.LFE4692:
 273              		.section	.text.startup._GLOBAL__sub_I_hardware,"ax",%progbits
 274              		.align	1
 275              		.p2align 2,,3
 276              		.syntax unified
 277              		.thumb
 278              		.thumb_func
 280              	_GLOBAL__sub_I_hardware:
 281              	.LFB5321:
  50:main.cpp      ****     }
  51:main.cpp      **** }...
 282              		.loc 1 51 1 view -0
 283              		.cfi_startproc
 284              		@ args = 0, pretend = 0, frame = 0
 285              		@ frame_needed = 0, uses_anonymous_args = 0
 286              		@ link register save eliminated.
 287              	.LBB114:
 288              	.LBI114:
 289              		.loc 1 51 1 view .LVU72
 290              	.LVL17:
 291              	.LBB115:
 292              	.LBB116:
 293              	.LBI116:
  21:/Users/ozalp/Documents/DaisyExamples/libDaisy/src/daisy_seed.h ****     ~DaisySeed() {}
 294              		.loc 2 21 5 view .LVU73
 295              	.LBB117:
 296              	.LBB118:
 297              	.LBI118:
 298              		.file 8 "/Users/ozalp/Documents/DaisyExamples/libDaisy/src/per/qspi.h"
   1:/Users/ozalp/Documents/DaisyExamples/libDaisy/src/per/qspi.h **** #ifndef DSY_QSPI
   2:/Users/ozalp/Documents/DaisyExamples/libDaisy/src/per/qspi.h **** #define DSY_QSPI /**< Macro */
   3:/Users/ozalp/Documents/DaisyExamples/libDaisy/src/per/qspi.h **** 
   4:/Users/ozalp/Documents/DaisyExamples/libDaisy/src/per/qspi.h **** #ifndef UNIT_TEST // for unit tests, a dummy implementation
   5:/Users/ozalp/Documents/DaisyExamples/libDaisy/src/per/qspi.h **** 
   6:/Users/ozalp/Documents/DaisyExamples/libDaisy/src/per/qspi.h **** #include <cstdint>
   7:/Users/ozalp/Documents/DaisyExamples/libDaisy/src/per/qspi.h **** #include "daisy_core.h" // Added for dsy_gpio_pin typedef
   8:/Users/ozalp/Documents/DaisyExamples/libDaisy/src/per/qspi.h **** 
   9:/Users/ozalp/Documents/DaisyExamples/libDaisy/src/per/qspi.h **** #define DSY_QSPI_TEXT       \
  10:/Users/ozalp/Documents/DaisyExamples/libDaisy/src/per/qspi.h ****     __attribute__((section( \
  11:/Users/ozalp/Documents/DaisyExamples/libDaisy/src/per/qspi.h ****         ".qspiflash_text"))) /**< used for reading memory in memory_mapped mode. */
  12:/Users/ozalp/Documents/DaisyExamples/libDaisy/src/per/qspi.h **** #define DSY_QSPI_DATA       \
  13:/Users/ozalp/Documents/DaisyExamples/libDaisy/src/per/qspi.h ****     __attribute__((section( \
  14:/Users/ozalp/Documents/DaisyExamples/libDaisy/src/per/qspi.h ****         ".qspiflash_data"))) /**< used for reading memory in memory_mapped mode. */
  15:/Users/ozalp/Documents/DaisyExamples/libDaisy/src/per/qspi.h **** #define DSY_QSPI_BSS        \
  16:/Users/ozalp/Documents/DaisyExamples/libDaisy/src/per/qspi.h ****     __attribute__((section( \
  17:/Users/ozalp/Documents/DaisyExamples/libDaisy/src/per/qspi.h ****         ".qspiflash_bss"))) /**< used for reading memory in memory_mapped mode. */
  18:/Users/ozalp/Documents/DaisyExamples/libDaisy/src/per/qspi.h **** 
  19:/Users/ozalp/Documents/DaisyExamples/libDaisy/src/per/qspi.h **** namespace daisy
ARM GAS  /var/folders/yk/qy9v9gw959gblxgjb8zzl1nw0000gn/T//cchmfQCm.s 			page 17


  20:/Users/ozalp/Documents/DaisyExamples/libDaisy/src/per/qspi.h **** {
  21:/Users/ozalp/Documents/DaisyExamples/libDaisy/src/per/qspi.h **** /** @addtogroup serial
  22:/Users/ozalp/Documents/DaisyExamples/libDaisy/src/per/qspi.h **** @{
  23:/Users/ozalp/Documents/DaisyExamples/libDaisy/src/per/qspi.h **** */
  24:/Users/ozalp/Documents/DaisyExamples/libDaisy/src/per/qspi.h **** 
  25:/Users/ozalp/Documents/DaisyExamples/libDaisy/src/per/qspi.h **** /** 
  26:/Users/ozalp/Documents/DaisyExamples/libDaisy/src/per/qspi.h ****  Driver for QSPI peripheral to interface with external flash memory. \n 
  27:/Users/ozalp/Documents/DaisyExamples/libDaisy/src/per/qspi.h ****     Currently supported QSPI Devices: \n 
  28:/Users/ozalp/Documents/DaisyExamples/libDaisy/src/per/qspi.h ****     * IS25LP080D
  29:/Users/ozalp/Documents/DaisyExamples/libDaisy/src/per/qspi.h **** */
  30:/Users/ozalp/Documents/DaisyExamples/libDaisy/src/per/qspi.h **** class QSPIHandle
  31:/Users/ozalp/Documents/DaisyExamples/libDaisy/src/per/qspi.h **** {
  32:/Users/ozalp/Documents/DaisyExamples/libDaisy/src/per/qspi.h ****   public:
  33:/Users/ozalp/Documents/DaisyExamples/libDaisy/src/per/qspi.h ****     enum Result
  34:/Users/ozalp/Documents/DaisyExamples/libDaisy/src/per/qspi.h ****     {
  35:/Users/ozalp/Documents/DaisyExamples/libDaisy/src/per/qspi.h ****         OK = 0,
  36:/Users/ozalp/Documents/DaisyExamples/libDaisy/src/per/qspi.h ****         ERR
  37:/Users/ozalp/Documents/DaisyExamples/libDaisy/src/per/qspi.h ****     };
  38:/Users/ozalp/Documents/DaisyExamples/libDaisy/src/per/qspi.h **** 
  39:/Users/ozalp/Documents/DaisyExamples/libDaisy/src/per/qspi.h ****     /** Indicates the current status of the module. 
  40:/Users/ozalp/Documents/DaisyExamples/libDaisy/src/per/qspi.h ****          *  Warnings are indicated by a leading W.
  41:/Users/ozalp/Documents/DaisyExamples/libDaisy/src/per/qspi.h ****          *  Errors are indicated by a leading E and cause an immediate exit.
  42:/Users/ozalp/Documents/DaisyExamples/libDaisy/src/per/qspi.h ****          * 
  43:/Users/ozalp/Documents/DaisyExamples/libDaisy/src/per/qspi.h ****          *  \param GOOD - No errors have been reported.
  44:/Users/ozalp/Documents/DaisyExamples/libDaisy/src/per/qspi.h ****          *  \param E_HAL_ERROR - HAL code did not return HAL_OK.
  45:/Users/ozalp/Documents/DaisyExamples/libDaisy/src/per/qspi.h ****          *  \param E_SWITCHING_MODES - An error was encountered while switching QSPI peripheral mod
  46:/Users/ozalp/Documents/DaisyExamples/libDaisy/src/per/qspi.h ****          *  \param E_INVALID_MODE - QSPI should not be written to while the program is executing fr
  47:/Users/ozalp/Documents/DaisyExamples/libDaisy/src/per/qspi.h ****          */
  48:/Users/ozalp/Documents/DaisyExamples/libDaisy/src/per/qspi.h ****     enum Status
  49:/Users/ozalp/Documents/DaisyExamples/libDaisy/src/per/qspi.h ****     {
  50:/Users/ozalp/Documents/DaisyExamples/libDaisy/src/per/qspi.h ****         GOOD = 0,
  51:/Users/ozalp/Documents/DaisyExamples/libDaisy/src/per/qspi.h ****         E_HAL_ERROR,
  52:/Users/ozalp/Documents/DaisyExamples/libDaisy/src/per/qspi.h ****         E_SWITCHING_MODES,
  53:/Users/ozalp/Documents/DaisyExamples/libDaisy/src/per/qspi.h ****         E_INVALID_MODE,
  54:/Users/ozalp/Documents/DaisyExamples/libDaisy/src/per/qspi.h ****     };
  55:/Users/ozalp/Documents/DaisyExamples/libDaisy/src/per/qspi.h **** 
  56:/Users/ozalp/Documents/DaisyExamples/libDaisy/src/per/qspi.h ****     /** Configuration structure for interfacing with QSPI Driver */
  57:/Users/ozalp/Documents/DaisyExamples/libDaisy/src/per/qspi.h ****     struct Config
  58:/Users/ozalp/Documents/DaisyExamples/libDaisy/src/per/qspi.h ****     {
  59:/Users/ozalp/Documents/DaisyExamples/libDaisy/src/per/qspi.h ****         /** Flash Devices supported. (Both of these are more-or-less the same, just different sizes
  60:/Users/ozalp/Documents/DaisyExamples/libDaisy/src/per/qspi.h ****         enum Device
  61:/Users/ozalp/Documents/DaisyExamples/libDaisy/src/per/qspi.h ****         {
  62:/Users/ozalp/Documents/DaisyExamples/libDaisy/src/per/qspi.h ****             IS25LP080D,  /**< & */
  63:/Users/ozalp/Documents/DaisyExamples/libDaisy/src/per/qspi.h ****             IS25LP064A,  /**< & */
  64:/Users/ozalp/Documents/DaisyExamples/libDaisy/src/per/qspi.h ****             DEVICE_LAST, /**< & */
  65:/Users/ozalp/Documents/DaisyExamples/libDaisy/src/per/qspi.h ****         };
  66:/Users/ozalp/Documents/DaisyExamples/libDaisy/src/per/qspi.h **** 
  67:/Users/ozalp/Documents/DaisyExamples/libDaisy/src/per/qspi.h ****         /** 
  68:/Users/ozalp/Documents/DaisyExamples/libDaisy/src/per/qspi.h ****         Modes of operation.
  69:/Users/ozalp/Documents/DaisyExamples/libDaisy/src/per/qspi.h ****         Memory Mapped mode: QSPI configured so that the QSPI can be
  70:/Users/ozalp/Documents/DaisyExamples/libDaisy/src/per/qspi.h ****         read from starting address 0x90000000. Writing is not
  71:/Users/ozalp/Documents/DaisyExamples/libDaisy/src/per/qspi.h ****         possible in this mode. \n 
  72:/Users/ozalp/Documents/DaisyExamples/libDaisy/src/per/qspi.h ****         Indirect Polling mode: Device driver enabled. 
  73:/Users/ozalp/Documents/DaisyExamples/libDaisy/src/per/qspi.h ****         */
  74:/Users/ozalp/Documents/DaisyExamples/libDaisy/src/per/qspi.h ****         enum Mode
  75:/Users/ozalp/Documents/DaisyExamples/libDaisy/src/per/qspi.h ****         {
  76:/Users/ozalp/Documents/DaisyExamples/libDaisy/src/per/qspi.h ****             MEMORY_MAPPED,    /**< & */
ARM GAS  /var/folders/yk/qy9v9gw959gblxgjb8zzl1nw0000gn/T//cchmfQCm.s 			page 18


  77:/Users/ozalp/Documents/DaisyExamples/libDaisy/src/per/qspi.h ****             INDIRECT_POLLING, /**< & */
  78:/Users/ozalp/Documents/DaisyExamples/libDaisy/src/per/qspi.h ****             MODE_LAST,
  79:/Users/ozalp/Documents/DaisyExamples/libDaisy/src/per/qspi.h ****         };
  80:/Users/ozalp/Documents/DaisyExamples/libDaisy/src/per/qspi.h **** 
  81:/Users/ozalp/Documents/DaisyExamples/libDaisy/src/per/qspi.h ****         //SCK,  CE# (active low)
  82:/Users/ozalp/Documents/DaisyExamples/libDaisy/src/per/qspi.h ****         struct
  83:/Users/ozalp/Documents/DaisyExamples/libDaisy/src/per/qspi.h ****         {
  84:/Users/ozalp/Documents/DaisyExamples/libDaisy/src/per/qspi.h ****             dsy_gpio_pin io0; /**< & */
  85:/Users/ozalp/Documents/DaisyExamples/libDaisy/src/per/qspi.h ****             dsy_gpio_pin io1; /**< & */
  86:/Users/ozalp/Documents/DaisyExamples/libDaisy/src/per/qspi.h ****             dsy_gpio_pin io2; /**< & */
  87:/Users/ozalp/Documents/DaisyExamples/libDaisy/src/per/qspi.h ****             dsy_gpio_pin io3; /**< & */
  88:/Users/ozalp/Documents/DaisyExamples/libDaisy/src/per/qspi.h ****             dsy_gpio_pin clk; /**< & */
  89:/Users/ozalp/Documents/DaisyExamples/libDaisy/src/per/qspi.h ****             dsy_gpio_pin ncs; /**< & */
  90:/Users/ozalp/Documents/DaisyExamples/libDaisy/src/per/qspi.h ****         } pin_config;
  91:/Users/ozalp/Documents/DaisyExamples/libDaisy/src/per/qspi.h **** 
  92:/Users/ozalp/Documents/DaisyExamples/libDaisy/src/per/qspi.h ****         Device device;
  93:/Users/ozalp/Documents/DaisyExamples/libDaisy/src/per/qspi.h ****         Mode   mode;
  94:/Users/ozalp/Documents/DaisyExamples/libDaisy/src/per/qspi.h ****     };
  95:/Users/ozalp/Documents/DaisyExamples/libDaisy/src/per/qspi.h **** 
  96:/Users/ozalp/Documents/DaisyExamples/libDaisy/src/per/qspi.h ****     /** 
  97:/Users/ozalp/Documents/DaisyExamples/libDaisy/src/per/qspi.h ****         Initializes QSPI peripheral, and Resets, and prepares memory for access.
  98:/Users/ozalp/Documents/DaisyExamples/libDaisy/src/per/qspi.h ****         \param config should be populated with the mode, device and pin_config before calling this 
  99:/Users/ozalp/Documents/DaisyExamples/libDaisy/src/per/qspi.h ****         \return Result::OK or Result::ERR
 100:/Users/ozalp/Documents/DaisyExamples/libDaisy/src/per/qspi.h ****         */
 101:/Users/ozalp/Documents/DaisyExamples/libDaisy/src/per/qspi.h ****     Result Init(const Config& config);
 102:/Users/ozalp/Documents/DaisyExamples/libDaisy/src/per/qspi.h **** 
 103:/Users/ozalp/Documents/DaisyExamples/libDaisy/src/per/qspi.h ****     /** Returns the current config. */
 104:/Users/ozalp/Documents/DaisyExamples/libDaisy/src/per/qspi.h ****     const Config& GetConfig() const;
 105:/Users/ozalp/Documents/DaisyExamples/libDaisy/src/per/qspi.h **** 
 106:/Users/ozalp/Documents/DaisyExamples/libDaisy/src/per/qspi.h ****     // Couldn't this just be called before anything else in init? That
 107:/Users/ozalp/Documents/DaisyExamples/libDaisy/src/per/qspi.h ****     // would make manually calling it unnecessary.
 108:/Users/ozalp/Documents/DaisyExamples/libDaisy/src/per/qspi.h ****     /** 
 109:/Users/ozalp/Documents/DaisyExamples/libDaisy/src/per/qspi.h ****         Deinitializes the peripheral
 110:/Users/ozalp/Documents/DaisyExamples/libDaisy/src/per/qspi.h ****         This should be called before reinitializing QSPI in a different mode.
 111:/Users/ozalp/Documents/DaisyExamples/libDaisy/src/per/qspi.h ****         \return Result::OK or Result::ERR
 112:/Users/ozalp/Documents/DaisyExamples/libDaisy/src/per/qspi.h ****         */
 113:/Users/ozalp/Documents/DaisyExamples/libDaisy/src/per/qspi.h ****     Result DeInit();
 114:/Users/ozalp/Documents/DaisyExamples/libDaisy/src/per/qspi.h **** 
 115:/Users/ozalp/Documents/DaisyExamples/libDaisy/src/per/qspi.h ****     /** 
 116:/Users/ozalp/Documents/DaisyExamples/libDaisy/src/per/qspi.h ****         Writes a single page to to the specified address on the QSPI chip.
 117:/Users/ozalp/Documents/DaisyExamples/libDaisy/src/per/qspi.h ****         For IS25LP*, page size is 256 bytes.
 118:/Users/ozalp/Documents/DaisyExamples/libDaisy/src/per/qspi.h ****         \param address Address to write to
 119:/Users/ozalp/Documents/DaisyExamples/libDaisy/src/per/qspi.h ****         \param size Buffer size
 120:/Users/ozalp/Documents/DaisyExamples/libDaisy/src/per/qspi.h ****         \param buffer Buffer to write
 121:/Users/ozalp/Documents/DaisyExamples/libDaisy/src/per/qspi.h ****         \return Result::OK or Result::ERR
 122:/Users/ozalp/Documents/DaisyExamples/libDaisy/src/per/qspi.h ****         */
 123:/Users/ozalp/Documents/DaisyExamples/libDaisy/src/per/qspi.h ****     Result WritePage(uint32_t address, uint32_t size, uint8_t* buffer);
 124:/Users/ozalp/Documents/DaisyExamples/libDaisy/src/per/qspi.h **** 
 125:/Users/ozalp/Documents/DaisyExamples/libDaisy/src/per/qspi.h ****     /** 
 126:/Users/ozalp/Documents/DaisyExamples/libDaisy/src/per/qspi.h ****         Writes data in buffer to to the QSPI. Starting at address to address+size 
 127:/Users/ozalp/Documents/DaisyExamples/libDaisy/src/per/qspi.h ****         \param address Address to write to
 128:/Users/ozalp/Documents/DaisyExamples/libDaisy/src/per/qspi.h ****         \param size Buffer size
 129:/Users/ozalp/Documents/DaisyExamples/libDaisy/src/per/qspi.h ****         \param buffer Buffer to write
 130:/Users/ozalp/Documents/DaisyExamples/libDaisy/src/per/qspi.h ****         \return Result::OK or Result::ERR
 131:/Users/ozalp/Documents/DaisyExamples/libDaisy/src/per/qspi.h ****         */
 132:/Users/ozalp/Documents/DaisyExamples/libDaisy/src/per/qspi.h ****     Result Write(uint32_t address, uint32_t size, uint8_t* buffer);
 133:/Users/ozalp/Documents/DaisyExamples/libDaisy/src/per/qspi.h **** 
ARM GAS  /var/folders/yk/qy9v9gw959gblxgjb8zzl1nw0000gn/T//cchmfQCm.s 			page 19


 134:/Users/ozalp/Documents/DaisyExamples/libDaisy/src/per/qspi.h ****     /** 
 135:/Users/ozalp/Documents/DaisyExamples/libDaisy/src/per/qspi.h ****         Erases the area specified on the chip.
 136:/Users/ozalp/Documents/DaisyExamples/libDaisy/src/per/qspi.h ****         Erasures will happen by 4K, 32K or 64K increments.
 137:/Users/ozalp/Documents/DaisyExamples/libDaisy/src/per/qspi.h ****         Smallest erase possible is 4kB at a time. (on IS25LP*)
 138:/Users/ozalp/Documents/DaisyExamples/libDaisy/src/per/qspi.h ****         \param start_addr Address to begin erasing from
 139:/Users/ozalp/Documents/DaisyExamples/libDaisy/src/per/qspi.h ****         \param end_addr  Address to stop erasing at
 140:/Users/ozalp/Documents/DaisyExamples/libDaisy/src/per/qspi.h ****         \return Result::OK or Result::ERR
 141:/Users/ozalp/Documents/DaisyExamples/libDaisy/src/per/qspi.h ****         */
 142:/Users/ozalp/Documents/DaisyExamples/libDaisy/src/per/qspi.h ****     Result Erase(uint32_t start_addr, uint32_t end_addr);
 143:/Users/ozalp/Documents/DaisyExamples/libDaisy/src/per/qspi.h **** 
 144:/Users/ozalp/Documents/DaisyExamples/libDaisy/src/per/qspi.h ****     /**  
 145:/Users/ozalp/Documents/DaisyExamples/libDaisy/src/per/qspi.h ****          Erases a single sector of the chip.  
 146:/Users/ozalp/Documents/DaisyExamples/libDaisy/src/per/qspi.h ****         TODO: Document the size of this function. 
 147:/Users/ozalp/Documents/DaisyExamples/libDaisy/src/per/qspi.h ****         \param address Address of sector to erase
 148:/Users/ozalp/Documents/DaisyExamples/libDaisy/src/per/qspi.h ****         \return Result::OK or Result::ERR
 149:/Users/ozalp/Documents/DaisyExamples/libDaisy/src/per/qspi.h ****         */
 150:/Users/ozalp/Documents/DaisyExamples/libDaisy/src/per/qspi.h ****     Result EraseSector(uint32_t address);
 151:/Users/ozalp/Documents/DaisyExamples/libDaisy/src/per/qspi.h **** 
 152:/Users/ozalp/Documents/DaisyExamples/libDaisy/src/per/qspi.h ****     /** Returns the current class status. Useful for debugging.
 153:/Users/ozalp/Documents/DaisyExamples/libDaisy/src/per/qspi.h ****      *  \returns Status
 154:/Users/ozalp/Documents/DaisyExamples/libDaisy/src/per/qspi.h ****      */
 155:/Users/ozalp/Documents/DaisyExamples/libDaisy/src/per/qspi.h ****     Status GetStatus();
 156:/Users/ozalp/Documents/DaisyExamples/libDaisy/src/per/qspi.h **** 
 157:/Users/ozalp/Documents/DaisyExamples/libDaisy/src/per/qspi.h ****     /** Returns a pointer to the actual memory used 
 158:/Users/ozalp/Documents/DaisyExamples/libDaisy/src/per/qspi.h ****      *  The memory at this address is read-only
 159:/Users/ozalp/Documents/DaisyExamples/libDaisy/src/per/qspi.h ****      *  to write to it use the Write function.
 160:/Users/ozalp/Documents/DaisyExamples/libDaisy/src/per/qspi.h ****      * 
 161:/Users/ozalp/Documents/DaisyExamples/libDaisy/src/per/qspi.h ****      *  \param offset returns the pointer starting this 
 162:/Users/ozalp/Documents/DaisyExamples/libDaisy/src/per/qspi.h ****      *                many bytes into the memory
 163:/Users/ozalp/Documents/DaisyExamples/libDaisy/src/per/qspi.h ****     */
 164:/Users/ozalp/Documents/DaisyExamples/libDaisy/src/per/qspi.h ****     void* GetData(uint32_t offset = 0);
 165:/Users/ozalp/Documents/DaisyExamples/libDaisy/src/per/qspi.h **** 
 166:/Users/ozalp/Documents/DaisyExamples/libDaisy/src/per/qspi.h ****     QSPIHandle() : pimpl_(nullptr) {}
 299              		.loc 8 166 5 view .LVU74
 300              	.LBB119:
 301              	.LBB120:
 302              		.loc 8 166 20 is_stmt 0 view .LVU75
 303 0000 0023     		movs	r3, #0
 304 0002 044A     		ldr	r2, .L13
 305              	.LBE120:
 306              	.LBE119:
 307              	.LBE118:
 308              	.LBE117:
 309              	.LBE116:
 310              	.LBB137:
 311              	.LBB138:
 312              	.LBB139:
  29:/Users/ozalp/Documents/DaisyExamples/libDaisy/src/per/i2c.h ****     {
  30:/Users/ozalp/Documents/DaisyExamples/libDaisy/src/per/i2c.h ****         /** Specifies whether the interface will operate in master or slave mode. */
  31:/Users/ozalp/Documents/DaisyExamples/libDaisy/src/per/i2c.h ****         enum class Mode
  32:/Users/ozalp/Documents/DaisyExamples/libDaisy/src/per/i2c.h ****         {
  33:/Users/ozalp/Documents/DaisyExamples/libDaisy/src/per/i2c.h ****             I2C_MASTER,
  34:/Users/ozalp/Documents/DaisyExamples/libDaisy/src/per/i2c.h ****             I2C_SLAVE,
  35:/Users/ozalp/Documents/DaisyExamples/libDaisy/src/per/i2c.h ****         };
  36:/Users/ozalp/Documents/DaisyExamples/libDaisy/src/per/i2c.h **** 
  37:/Users/ozalp/Documents/DaisyExamples/libDaisy/src/per/i2c.h ****         /** Specifices the internal peripheral to use (these are mapped to different pins on the ha
  38:/Users/ozalp/Documents/DaisyExamples/libDaisy/src/per/i2c.h ****         enum class Peripheral
ARM GAS  /var/folders/yk/qy9v9gw959gblxgjb8zzl1nw0000gn/T//cchmfQCm.s 			page 20


  39:/Users/ozalp/Documents/DaisyExamples/libDaisy/src/per/i2c.h ****         {
  40:/Users/ozalp/Documents/DaisyExamples/libDaisy/src/per/i2c.h ****             I2C_1 = 0, /**< & */
  41:/Users/ozalp/Documents/DaisyExamples/libDaisy/src/per/i2c.h ****             I2C_2,     /**< & */
  42:/Users/ozalp/Documents/DaisyExamples/libDaisy/src/per/i2c.h ****             I2C_3,     /**< & */
  43:/Users/ozalp/Documents/DaisyExamples/libDaisy/src/per/i2c.h ****             I2C_4,     /**< & */
  44:/Users/ozalp/Documents/DaisyExamples/libDaisy/src/per/i2c.h ****         };
  45:/Users/ozalp/Documents/DaisyExamples/libDaisy/src/per/i2c.h **** 
  46:/Users/ozalp/Documents/DaisyExamples/libDaisy/src/per/i2c.h ****         /** Rate at which the clock/data will be sent/received. The device being used will have max
  47:/Users/ozalp/Documents/DaisyExamples/libDaisy/src/per/i2c.h ****          *  1MHZ Mode is currently 886kHz
  48:/Users/ozalp/Documents/DaisyExamples/libDaisy/src/per/i2c.h ****          */
  49:/Users/ozalp/Documents/DaisyExamples/libDaisy/src/per/i2c.h ****         enum class Speed
  50:/Users/ozalp/Documents/DaisyExamples/libDaisy/src/per/i2c.h ****         {
  51:/Users/ozalp/Documents/DaisyExamples/libDaisy/src/per/i2c.h ****             I2C_100KHZ, /**< & */
  52:/Users/ozalp/Documents/DaisyExamples/libDaisy/src/per/i2c.h ****             I2C_400KHZ, /**< & */
  53:/Users/ozalp/Documents/DaisyExamples/libDaisy/src/per/i2c.h ****             I2C_1MHZ,   /**< & */
  54:/Users/ozalp/Documents/DaisyExamples/libDaisy/src/per/i2c.h ****         };
  55:/Users/ozalp/Documents/DaisyExamples/libDaisy/src/per/i2c.h **** 
  56:/Users/ozalp/Documents/DaisyExamples/libDaisy/src/per/i2c.h ****         Peripheral periph; /**< & */
  57:/Users/ozalp/Documents/DaisyExamples/libDaisy/src/per/i2c.h ****         struct
  58:/Users/ozalp/Documents/DaisyExamples/libDaisy/src/per/i2c.h ****         {
  59:/Users/ozalp/Documents/DaisyExamples/libDaisy/src/per/i2c.h ****             dsy_gpio_pin scl; /**< & */
  60:/Users/ozalp/Documents/DaisyExamples/libDaisy/src/per/i2c.h ****             dsy_gpio_pin sda; /**< & */
  61:/Users/ozalp/Documents/DaisyExamples/libDaisy/src/per/i2c.h ****         } pin_config;         /**< & */
  62:/Users/ozalp/Documents/DaisyExamples/libDaisy/src/per/i2c.h **** 
  63:/Users/ozalp/Documents/DaisyExamples/libDaisy/src/per/i2c.h ****         Speed speed; /**< & */
  64:/Users/ozalp/Documents/DaisyExamples/libDaisy/src/per/i2c.h ****         Mode  mode;  /**< & */
  65:/Users/ozalp/Documents/DaisyExamples/libDaisy/src/per/i2c.h ****         // 0x10 is chosen as a default to avoid conflicts with reserved addresses
  66:/Users/ozalp/Documents/DaisyExamples/libDaisy/src/per/i2c.h ****         uint8_t address = 0x10; /**< & */
  67:/Users/ozalp/Documents/DaisyExamples/libDaisy/src/per/i2c.h ****     };
  68:/Users/ozalp/Documents/DaisyExamples/libDaisy/src/per/i2c.h **** 
  69:/Users/ozalp/Documents/DaisyExamples/libDaisy/src/per/i2c.h ****     /** Return values for I2C functions. */
  70:/Users/ozalp/Documents/DaisyExamples/libDaisy/src/per/i2c.h ****     enum class Result
  71:/Users/ozalp/Documents/DaisyExamples/libDaisy/src/per/i2c.h ****     {
  72:/Users/ozalp/Documents/DaisyExamples/libDaisy/src/per/i2c.h ****         OK, /**< & */
  73:/Users/ozalp/Documents/DaisyExamples/libDaisy/src/per/i2c.h ****         ERR /**< & */
  74:/Users/ozalp/Documents/DaisyExamples/libDaisy/src/per/i2c.h ****     };
  75:/Users/ozalp/Documents/DaisyExamples/libDaisy/src/per/i2c.h **** 
  76:/Users/ozalp/Documents/DaisyExamples/libDaisy/src/per/i2c.h ****     enum class Direction
  77:/Users/ozalp/Documents/DaisyExamples/libDaisy/src/per/i2c.h ****     {
  78:/Users/ozalp/Documents/DaisyExamples/libDaisy/src/per/i2c.h ****         TRANSMIT, /**< & */
  79:/Users/ozalp/Documents/DaisyExamples/libDaisy/src/per/i2c.h ****         RECEIVE,  /**< & */
  80:/Users/ozalp/Documents/DaisyExamples/libDaisy/src/per/i2c.h ****     };
  81:/Users/ozalp/Documents/DaisyExamples/libDaisy/src/per/i2c.h **** 
  82:/Users/ozalp/Documents/DaisyExamples/libDaisy/src/per/i2c.h ****     I2CHandle() : pimpl_(nullptr) {}
 313              		.loc 7 82 19 view .LVU76
 314 0004 0449     		ldr	r1, .L13+4
 315              	.LBE139:
 316              	.LBE138:
 317              	.LBE137:
 318              	.LBB142:
 319              	.LBB136:
 320              	.LBB123:
 321              	.LBB122:
 322              	.LBB121:
 323              		.loc 8 166 20 view .LVU77
 324 0006 1360     		str	r3, [r2]
 325              	.LVL18:
ARM GAS  /var/folders/yk/qy9v9gw959gblxgjb8zzl1nw0000gn/T//cchmfQCm.s 			page 21


 326              		.loc 8 166 20 view .LVU78
 327              	.LBE121:
 328              	.LBE122:
 329              	.LBE123:
 330              	.LBB124:
 331              	.LBI124:
  95:/Users/ozalp/Documents/DaisyExamples/libDaisy/src/hid/audio.h ****     ~AudioHandle() {}
 332              		.loc 6 95 5 is_stmt 1 view .LVU79
 333              	.LBB125:
 334              	.LBB126:
  95:/Users/ozalp/Documents/DaisyExamples/libDaisy/src/hid/audio.h ****     ~AudioHandle() {}
 335              		.loc 6 95 21 is_stmt 0 view .LVU80
 336 0008 5361     		str	r3, [r2, #20]
 337              	.LVL19:
  95:/Users/ozalp/Documents/DaisyExamples/libDaisy/src/hid/audio.h ****     ~AudioHandle() {}
 338              		.loc 6 95 21 view .LVU81
 339              	.LBE126:
 340              	.LBE125:
 341              	.LBE124:
 342              	.LBB127:
 343              	.LBI127:
 109:/Users/ozalp/Documents/DaisyExamples/libDaisy/src/per/adc.h ****     ~AdcHandle() {}
 344              		.loc 5 109 5 is_stmt 1 view .LVU82
 109:/Users/ozalp/Documents/DaisyExamples/libDaisy/src/per/adc.h ****     ~AdcHandle() {}
 345              		.loc 5 109 5 is_stmt 0 view .LVU83
 346              	.LBE127:
 347              	.LBB128:
 348              	.LBI128:
 349              		.file 9 "/Users/ozalp/Documents/DaisyExamples/libDaisy/src/per/dac.h"
   1:/Users/ozalp/Documents/DaisyExamples/libDaisy/src/per/dac.h **** #pragma once
   2:/Users/ozalp/Documents/DaisyExamples/libDaisy/src/per/dac.h **** #ifndef DSY_DAC_H
   3:/Users/ozalp/Documents/DaisyExamples/libDaisy/src/per/dac.h **** #define DSY_DAC_H
   4:/Users/ozalp/Documents/DaisyExamples/libDaisy/src/per/dac.h **** 
   5:/Users/ozalp/Documents/DaisyExamples/libDaisy/src/per/dac.h **** #include "daisy_core.h"
   6:/Users/ozalp/Documents/DaisyExamples/libDaisy/src/per/dac.h **** 
   7:/Users/ozalp/Documents/DaisyExamples/libDaisy/src/per/dac.h **** namespace daisy
   8:/Users/ozalp/Documents/DaisyExamples/libDaisy/src/per/dac.h **** {
   9:/Users/ozalp/Documents/DaisyExamples/libDaisy/src/per/dac.h **** /** @brief DAC handle for Built-in DAC Peripheral 
  10:/Users/ozalp/Documents/DaisyExamples/libDaisy/src/per/dac.h ****  *  @ingroup per_analog
  11:/Users/ozalp/Documents/DaisyExamples/libDaisy/src/per/dac.h ****  ** 
  12:/Users/ozalp/Documents/DaisyExamples/libDaisy/src/per/dac.h ****  ** For now only Normal Mode is supported,
  13:/Users/ozalp/Documents/DaisyExamples/libDaisy/src/per/dac.h ****  ** Sample and hold mode provides reduced power consumption, but requires a bit more setup.
  14:/Users/ozalp/Documents/DaisyExamples/libDaisy/src/per/dac.h ****  **
  15:/Users/ozalp/Documents/DaisyExamples/libDaisy/src/per/dac.h ****  ** For now connecting the DAC through other internal peripherals is also not supported.
  16:/Users/ozalp/Documents/DaisyExamples/libDaisy/src/per/dac.h ****  **
  17:/Users/ozalp/Documents/DaisyExamples/libDaisy/src/per/dac.h ****  ** Since the DAC channels have dedicated pins we don't need to pass in a pin config like with
  18:/Users/ozalp/Documents/DaisyExamples/libDaisy/src/per/dac.h ****  ** other modules. However, it is still important to not try to use the DAC pins for anything else.
  19:/Users/ozalp/Documents/DaisyExamples/libDaisy/src/per/dac.h ****  ** DAC Channel 1 is on PA4, and DAC Channel 2 is on PA5
  20:/Users/ozalp/Documents/DaisyExamples/libDaisy/src/per/dac.h ****  ***/
  21:/Users/ozalp/Documents/DaisyExamples/libDaisy/src/per/dac.h **** class DacHandle
  22:/Users/ozalp/Documents/DaisyExamples/libDaisy/src/per/dac.h **** {
  23:/Users/ozalp/Documents/DaisyExamples/libDaisy/src/per/dac.h ****   public:
  24:/Users/ozalp/Documents/DaisyExamples/libDaisy/src/per/dac.h ****     /** Return Values for the DacHandle class */
  25:/Users/ozalp/Documents/DaisyExamples/libDaisy/src/per/dac.h ****     enum class Result
  26:/Users/ozalp/Documents/DaisyExamples/libDaisy/src/per/dac.h ****     {
  27:/Users/ozalp/Documents/DaisyExamples/libDaisy/src/per/dac.h ****         OK,
  28:/Users/ozalp/Documents/DaisyExamples/libDaisy/src/per/dac.h ****         ERR,
ARM GAS  /var/folders/yk/qy9v9gw959gblxgjb8zzl1nw0000gn/T//cchmfQCm.s 			page 22


  29:/Users/ozalp/Documents/DaisyExamples/libDaisy/src/per/dac.h ****     };
  30:/Users/ozalp/Documents/DaisyExamples/libDaisy/src/per/dac.h **** 
  31:/Users/ozalp/Documents/DaisyExamples/libDaisy/src/per/dac.h ****     /** Selects which channel(s) will be configured for use. */
  32:/Users/ozalp/Documents/DaisyExamples/libDaisy/src/per/dac.h ****     enum class Channel
  33:/Users/ozalp/Documents/DaisyExamples/libDaisy/src/per/dac.h ****     {
  34:/Users/ozalp/Documents/DaisyExamples/libDaisy/src/per/dac.h ****         ONE,
  35:/Users/ozalp/Documents/DaisyExamples/libDaisy/src/per/dac.h ****         TWO,
  36:/Users/ozalp/Documents/DaisyExamples/libDaisy/src/per/dac.h ****         BOTH,
  37:/Users/ozalp/Documents/DaisyExamples/libDaisy/src/per/dac.h ****     };
  38:/Users/ozalp/Documents/DaisyExamples/libDaisy/src/per/dac.h **** 
  39:/Users/ozalp/Documents/DaisyExamples/libDaisy/src/per/dac.h ****     /** Sets the Mode for the DAC channels.
  40:/Users/ozalp/Documents/DaisyExamples/libDaisy/src/per/dac.h ****      **
  41:/Users/ozalp/Documents/DaisyExamples/libDaisy/src/per/dac.h ****      ** Polling mode uses the blocking mode to transmit a single value at a time.
  42:/Users/ozalp/Documents/DaisyExamples/libDaisy/src/per/dac.h ****      **
  43:/Users/ozalp/Documents/DaisyExamples/libDaisy/src/per/dac.h ****      ** DMA mode uses a buffer, and periodically transmits it triggering a 
  44:/Users/ozalp/Documents/DaisyExamples/libDaisy/src/per/dac.h ****      ** callback to fill the buffer when it is ready for more samples.
  45:/Users/ozalp/Documents/DaisyExamples/libDaisy/src/per/dac.h ****      ***/
  46:/Users/ozalp/Documents/DaisyExamples/libDaisy/src/per/dac.h ****     enum class Mode
  47:/Users/ozalp/Documents/DaisyExamples/libDaisy/src/per/dac.h ****     {
  48:/Users/ozalp/Documents/DaisyExamples/libDaisy/src/per/dac.h ****         POLLING,
  49:/Users/ozalp/Documents/DaisyExamples/libDaisy/src/per/dac.h ****         DMA,
  50:/Users/ozalp/Documents/DaisyExamples/libDaisy/src/per/dac.h ****     };
  51:/Users/ozalp/Documents/DaisyExamples/libDaisy/src/per/dac.h **** 
  52:/Users/ozalp/Documents/DaisyExamples/libDaisy/src/per/dac.h ****     /** Sets the number of bits per sample transmitted out of the DAC.
  53:/Users/ozalp/Documents/DaisyExamples/libDaisy/src/per/dac.h ****      ** The output range will be: 0V - VDDA
  54:/Users/ozalp/Documents/DaisyExamples/libDaisy/src/per/dac.h ****      ** The resolution will be roughly: bitdepth / (VDDA - 0V) 
  55:/Users/ozalp/Documents/DaisyExamples/libDaisy/src/per/dac.h ****      ***/
  56:/Users/ozalp/Documents/DaisyExamples/libDaisy/src/per/dac.h ****     enum class BitDepth
  57:/Users/ozalp/Documents/DaisyExamples/libDaisy/src/per/dac.h ****     {
  58:/Users/ozalp/Documents/DaisyExamples/libDaisy/src/per/dac.h ****         BITS_8,
  59:/Users/ozalp/Documents/DaisyExamples/libDaisy/src/per/dac.h ****         BITS_12
  60:/Users/ozalp/Documents/DaisyExamples/libDaisy/src/per/dac.h ****     };
  61:/Users/ozalp/Documents/DaisyExamples/libDaisy/src/per/dac.h **** 
  62:/Users/ozalp/Documents/DaisyExamples/libDaisy/src/per/dac.h ****     /** Sets whether the DAC output is buffered for higher drive ability. */
  63:/Users/ozalp/Documents/DaisyExamples/libDaisy/src/per/dac.h ****     enum class BufferState
  64:/Users/ozalp/Documents/DaisyExamples/libDaisy/src/per/dac.h ****     {
  65:/Users/ozalp/Documents/DaisyExamples/libDaisy/src/per/dac.h ****         ENABLED,
  66:/Users/ozalp/Documents/DaisyExamples/libDaisy/src/per/dac.h ****         DISABLED,
  67:/Users/ozalp/Documents/DaisyExamples/libDaisy/src/per/dac.h ****     };
  68:/Users/ozalp/Documents/DaisyExamples/libDaisy/src/per/dac.h **** 
  69:/Users/ozalp/Documents/DaisyExamples/libDaisy/src/per/dac.h ****     /** Configuration structure for initializing the DAC structure. */
  70:/Users/ozalp/Documents/DaisyExamples/libDaisy/src/per/dac.h ****     struct Config
  71:/Users/ozalp/Documents/DaisyExamples/libDaisy/src/per/dac.h ****     {
  72:/Users/ozalp/Documents/DaisyExamples/libDaisy/src/per/dac.h ****         /** Target Samplerate in Hz used to configure the internal 
  73:/Users/ozalp/Documents/DaisyExamples/libDaisy/src/per/dac.h ****          ** timebase for DMA mode. Does nothing in POLLING mode.
  74:/Users/ozalp/Documents/DaisyExamples/libDaisy/src/per/dac.h ****          ** If the value is 0 at Init time this will default to 48000Hz 
  75:/Users/ozalp/Documents/DaisyExamples/libDaisy/src/per/dac.h ****          ** otherwise the driver will attempt meet the target.*/
  76:/Users/ozalp/Documents/DaisyExamples/libDaisy/src/per/dac.h ****         uint32_t target_samplerate;
  77:/Users/ozalp/Documents/DaisyExamples/libDaisy/src/per/dac.h **** 
  78:/Users/ozalp/Documents/DaisyExamples/libDaisy/src/per/dac.h ****         Channel     chn;
  79:/Users/ozalp/Documents/DaisyExamples/libDaisy/src/per/dac.h ****         Mode        mode;
  80:/Users/ozalp/Documents/DaisyExamples/libDaisy/src/per/dac.h ****         BitDepth    bitdepth;
  81:/Users/ozalp/Documents/DaisyExamples/libDaisy/src/per/dac.h ****         BufferState buff_state;
  82:/Users/ozalp/Documents/DaisyExamples/libDaisy/src/per/dac.h ****     };
  83:/Users/ozalp/Documents/DaisyExamples/libDaisy/src/per/dac.h **** 
  84:/Users/ozalp/Documents/DaisyExamples/libDaisy/src/per/dac.h ****     DacHandle() : pimpl_(nullptr) {}
 350              		.loc 9 84 5 is_stmt 1 view .LVU84
ARM GAS  /var/folders/yk/qy9v9gw959gblxgjb8zzl1nw0000gn/T//cchmfQCm.s 			page 23


 351              	.LBB129:
 352              	.LBB130:
 353              		.loc 9 84 19 is_stmt 0 view .LVU85
 354 000a 1362     		str	r3, [r2, #32]
 355              	.LVL20:
 356              		.loc 9 84 19 view .LVU86
 357              	.LBE130:
 358              	.LBE129:
 359              	.LBE128:
 360              	.LBB131:
 361              	.LBI131:
  40:/Users/ozalp/Documents/DaisyExamples/libDaisy/src/hid/usb.h **** 
 362              		.loc 4 40 5 is_stmt 1 view .LVU87
  40:/Users/ozalp/Documents/DaisyExamples/libDaisy/src/hid/usb.h **** 
 363              		.loc 4 40 5 is_stmt 0 view .LVU88
 364              	.LBE131:
 365              	.LBB132:
 366              	.LBI132:
  96:/Users/ozalp/Documents/DaisyExamples/libDaisy/src/sys/system.h ****     ~System() {}
 367              		.loc 3 96 5 is_stmt 1 view .LVU89
  96:/Users/ozalp/Documents/DaisyExamples/libDaisy/src/sys/system.h ****     ~System() {}
 368              		.loc 3 96 5 is_stmt 0 view .LVU90
 369              	.LBE132:
 370              	.LBB133:
 371              	.LBI133:
 372              		.file 10 "/Users/ozalp/Documents/DaisyExamples/libDaisy/src/per/sai.h"
   1:/Users/ozalp/Documents/DaisyExamples/libDaisy/src/per/sai.h **** #pragma once
   2:/Users/ozalp/Documents/DaisyExamples/libDaisy/src/per/sai.h **** #ifndef DSY_SAI_H
   3:/Users/ozalp/Documents/DaisyExamples/libDaisy/src/per/sai.h **** #define DSY_SAI_H
   4:/Users/ozalp/Documents/DaisyExamples/libDaisy/src/per/sai.h **** 
   5:/Users/ozalp/Documents/DaisyExamples/libDaisy/src/per/sai.h **** #include "daisy_core.h"
   6:/Users/ozalp/Documents/DaisyExamples/libDaisy/src/per/sai.h **** 
   7:/Users/ozalp/Documents/DaisyExamples/libDaisy/src/per/sai.h **** namespace daisy
   8:/Users/ozalp/Documents/DaisyExamples/libDaisy/src/per/sai.h **** {
   9:/Users/ozalp/Documents/DaisyExamples/libDaisy/src/per/sai.h **** /** 
  10:/Users/ozalp/Documents/DaisyExamples/libDaisy/src/per/sai.h ****  * Support for I2S Audio Protocol with different bit-depth, samplerate options
  11:/Users/ozalp/Documents/DaisyExamples/libDaisy/src/per/sai.h ****  * Allows for master or slave, as well as freedom of selecting direction, 
  12:/Users/ozalp/Documents/DaisyExamples/libDaisy/src/per/sai.h ****  * and other behavior for each peripheral, and block.
  13:/Users/ozalp/Documents/DaisyExamples/libDaisy/src/per/sai.h ****  * 
  14:/Users/ozalp/Documents/DaisyExamples/libDaisy/src/per/sai.h ****  * DMA Transfer commands must use buffers located within non-cached memory or use cache maintenance
  15:/Users/ozalp/Documents/DaisyExamples/libDaisy/src/per/sai.h ****  * To declare an unitialized global element in the DMA memory section:
  16:/Users/ozalp/Documents/DaisyExamples/libDaisy/src/per/sai.h ****  *    int32_t DSY_DMA_BUFFER_SECTOR my_buffer[96];
  17:/Users/ozalp/Documents/DaisyExamples/libDaisy/src/per/sai.h ****  *
  18:/Users/ozalp/Documents/DaisyExamples/libDaisy/src/per/sai.h ****  * Callback functions will be called once per half of the buffer. In the above example, 
  19:/Users/ozalp/Documents/DaisyExamples/libDaisy/src/per/sai.h ****  * the callback function would be called once for every 48 samples.
  20:/Users/ozalp/Documents/DaisyExamples/libDaisy/src/per/sai.h ****  * 
  21:/Users/ozalp/Documents/DaisyExamples/libDaisy/src/per/sai.h ****  * Use SAI Handle like this:
  22:/Users/ozalp/Documents/DaisyExamples/libDaisy/src/per/sai.h ****  * 
  23:/Users/ozalp/Documents/DaisyExamples/libDaisy/src/per/sai.h ****  *  SaiHandle::Config sai_config;
  24:/Users/ozalp/Documents/DaisyExamples/libDaisy/src/per/sai.h ****  *  sai_config.periph          = SaiHandle::Config::Peripheral::SAI_1;
  25:/Users/ozalp/Documents/DaisyExamples/libDaisy/src/per/sai.h ****  *  sai_config.sr              = SaiHandle::Config::SampleRate::SAI_48KHZ;
  26:/Users/ozalp/Documents/DaisyExamples/libDaisy/src/per/sai.h ****  *  sai_config.bit_depth       = SaiHandle::Config::BitDepth::SAI_24BIT;
  27:/Users/ozalp/Documents/DaisyExamples/libDaisy/src/per/sai.h ****  *  sai_config.a_sync          = SaiHandle::Config::Sync::MASTER;
  28:/Users/ozalp/Documents/DaisyExamples/libDaisy/src/per/sai.h ****  *  sai_config.b_sync          = SaiHandle::Config::Sync::SLAVE;
  29:/Users/ozalp/Documents/DaisyExamples/libDaisy/src/per/sai.h ****  *  sai_config.a_dir           = SaiHandle::Config::Direction::RECEIVE;
  30:/Users/ozalp/Documents/DaisyExamples/libDaisy/src/per/sai.h ****  *  sai_config.b_dir           = SaiHandle::Config::Direction::TRANSMIT;
  31:/Users/ozalp/Documents/DaisyExamples/libDaisy/src/per/sai.h ****  *  sai_config.pin_config.fs   = {DSY_GPIOE, 4};
ARM GAS  /var/folders/yk/qy9v9gw959gblxgjb8zzl1nw0000gn/T//cchmfQCm.s 			page 24


  32:/Users/ozalp/Documents/DaisyExamples/libDaisy/src/per/sai.h ****  *  sai_config.pin_config.mclk = {DSY_GPIOE, 2};
  33:/Users/ozalp/Documents/DaisyExamples/libDaisy/src/per/sai.h ****  *  sai_config.pin_config.sck  = {DSY_GPIOE, 5};
  34:/Users/ozalp/Documents/DaisyExamples/libDaisy/src/per/sai.h ****  *  sai_config.pin_config.sa   = {DSY_GPIOE, 6};
  35:/Users/ozalp/Documents/DaisyExamples/libDaisy/src/per/sai.h ****  *  sai_config.pin_config.sb   = {DSY_GPIOE, 3};
  36:/Users/ozalp/Documents/DaisyExamples/libDaisy/src/per/sai.h ****  *  // Then Initialize
  37:/Users/ozalp/Documents/DaisyExamples/libDaisy/src/per/sai.h ****  *  SaiHandle sai;
  38:/Users/ozalp/Documents/DaisyExamples/libDaisy/src/per/sai.h ****  *  sai.Init(sai_config);
  39:/Users/ozalp/Documents/DaisyExamples/libDaisy/src/per/sai.h ****  *  // Now you can use it:
  40:/Users/ozalp/Documents/DaisyExamples/libDaisy/src/per/sai.h ****  *  sai.StartDma(. . .);
  41:/Users/ozalp/Documents/DaisyExamples/libDaisy/src/per/sai.h ****  */
  42:/Users/ozalp/Documents/DaisyExamples/libDaisy/src/per/sai.h **** class SaiHandle
  43:/Users/ozalp/Documents/DaisyExamples/libDaisy/src/per/sai.h **** {
  44:/Users/ozalp/Documents/DaisyExamples/libDaisy/src/per/sai.h ****   public:
  45:/Users/ozalp/Documents/DaisyExamples/libDaisy/src/per/sai.h ****     /** Contains settings for initialising an SAI Interface */
  46:/Users/ozalp/Documents/DaisyExamples/libDaisy/src/per/sai.h ****     struct Config
  47:/Users/ozalp/Documents/DaisyExamples/libDaisy/src/per/sai.h ****     {
  48:/Users/ozalp/Documents/DaisyExamples/libDaisy/src/per/sai.h ****         /** Specifies the internal peripheral to use (mapped to different hardware pins) */
  49:/Users/ozalp/Documents/DaisyExamples/libDaisy/src/per/sai.h ****         enum class Peripheral
  50:/Users/ozalp/Documents/DaisyExamples/libDaisy/src/per/sai.h ****         {
  51:/Users/ozalp/Documents/DaisyExamples/libDaisy/src/per/sai.h ****             SAI_1,
  52:/Users/ozalp/Documents/DaisyExamples/libDaisy/src/per/sai.h ****             SAI_2,
  53:/Users/ozalp/Documents/DaisyExamples/libDaisy/src/per/sai.h ****         };
  54:/Users/ozalp/Documents/DaisyExamples/libDaisy/src/per/sai.h **** 
  55:/Users/ozalp/Documents/DaisyExamples/libDaisy/src/per/sai.h ****         /** Rate at which samples will be streaming to/from the device. */
  56:/Users/ozalp/Documents/DaisyExamples/libDaisy/src/per/sai.h ****         enum class SampleRate
  57:/Users/ozalp/Documents/DaisyExamples/libDaisy/src/per/sai.h ****         {
  58:/Users/ozalp/Documents/DaisyExamples/libDaisy/src/per/sai.h ****             SAI_8KHZ,
  59:/Users/ozalp/Documents/DaisyExamples/libDaisy/src/per/sai.h ****             SAI_16KHZ,
  60:/Users/ozalp/Documents/DaisyExamples/libDaisy/src/per/sai.h ****             SAI_32KHZ,
  61:/Users/ozalp/Documents/DaisyExamples/libDaisy/src/per/sai.h ****             SAI_48KHZ,
  62:/Users/ozalp/Documents/DaisyExamples/libDaisy/src/per/sai.h ****             SAI_96KHZ,
  63:/Users/ozalp/Documents/DaisyExamples/libDaisy/src/per/sai.h ****         };
  64:/Users/ozalp/Documents/DaisyExamples/libDaisy/src/per/sai.h **** 
  65:/Users/ozalp/Documents/DaisyExamples/libDaisy/src/per/sai.h ****         /** Bit Depth that the hardware expects to be transferred to/from the device. */
  66:/Users/ozalp/Documents/DaisyExamples/libDaisy/src/per/sai.h ****         enum class BitDepth
  67:/Users/ozalp/Documents/DaisyExamples/libDaisy/src/per/sai.h ****         {
  68:/Users/ozalp/Documents/DaisyExamples/libDaisy/src/per/sai.h ****             SAI_16BIT,
  69:/Users/ozalp/Documents/DaisyExamples/libDaisy/src/per/sai.h ****             SAI_24BIT,
  70:/Users/ozalp/Documents/DaisyExamples/libDaisy/src/per/sai.h ****             SAI_32BIT,
  71:/Users/ozalp/Documents/DaisyExamples/libDaisy/src/per/sai.h ****         };
  72:/Users/ozalp/Documents/DaisyExamples/libDaisy/src/per/sai.h **** 
  73:/Users/ozalp/Documents/DaisyExamples/libDaisy/src/per/sai.h ****         /** Specifies whether a particular block is the master or the slave 
  74:/Users/ozalp/Documents/DaisyExamples/libDaisy/src/per/sai.h ****          ** If both are set to slave, no MCLK signal will be used, and it is
  75:/Users/ozalp/Documents/DaisyExamples/libDaisy/src/per/sai.h ****          ** expected that the codec will have its own xtal.
  76:/Users/ozalp/Documents/DaisyExamples/libDaisy/src/per/sai.h ****          */
  77:/Users/ozalp/Documents/DaisyExamples/libDaisy/src/per/sai.h ****         enum class Sync
  78:/Users/ozalp/Documents/DaisyExamples/libDaisy/src/per/sai.h ****         {
  79:/Users/ozalp/Documents/DaisyExamples/libDaisy/src/per/sai.h ****             MASTER,
  80:/Users/ozalp/Documents/DaisyExamples/libDaisy/src/per/sai.h ****             SLAVE,
  81:/Users/ozalp/Documents/DaisyExamples/libDaisy/src/per/sai.h ****         };
  82:/Users/ozalp/Documents/DaisyExamples/libDaisy/src/per/sai.h **** 
  83:/Users/ozalp/Documents/DaisyExamples/libDaisy/src/per/sai.h ****         /** Specifies the direction for each peripheral block. */
  84:/Users/ozalp/Documents/DaisyExamples/libDaisy/src/per/sai.h ****         enum class Direction
  85:/Users/ozalp/Documents/DaisyExamples/libDaisy/src/per/sai.h ****         {
  86:/Users/ozalp/Documents/DaisyExamples/libDaisy/src/per/sai.h ****             TRANSMIT,
  87:/Users/ozalp/Documents/DaisyExamples/libDaisy/src/per/sai.h ****             RECEIVE,
  88:/Users/ozalp/Documents/DaisyExamples/libDaisy/src/per/sai.h ****         };
ARM GAS  /var/folders/yk/qy9v9gw959gblxgjb8zzl1nw0000gn/T//cchmfQCm.s 			page 25


  89:/Users/ozalp/Documents/DaisyExamples/libDaisy/src/per/sai.h **** 
  90:/Users/ozalp/Documents/DaisyExamples/libDaisy/src/per/sai.h ****         Peripheral periph;
  91:/Users/ozalp/Documents/DaisyExamples/libDaisy/src/per/sai.h ****         struct
  92:/Users/ozalp/Documents/DaisyExamples/libDaisy/src/per/sai.h ****         {
  93:/Users/ozalp/Documents/DaisyExamples/libDaisy/src/per/sai.h ****             dsy_gpio_pin mclk, fs, sck, sa, sb;
  94:/Users/ozalp/Documents/DaisyExamples/libDaisy/src/per/sai.h ****         } pin_config;
  95:/Users/ozalp/Documents/DaisyExamples/libDaisy/src/per/sai.h ****         SampleRate sr;
  96:/Users/ozalp/Documents/DaisyExamples/libDaisy/src/per/sai.h ****         BitDepth   bit_depth;
  97:/Users/ozalp/Documents/DaisyExamples/libDaisy/src/per/sai.h ****         Sync       a_sync, b_sync;
  98:/Users/ozalp/Documents/DaisyExamples/libDaisy/src/per/sai.h ****         Direction  a_dir, b_dir;
  99:/Users/ozalp/Documents/DaisyExamples/libDaisy/src/per/sai.h ****     };
 100:/Users/ozalp/Documents/DaisyExamples/libDaisy/src/per/sai.h **** 
 101:/Users/ozalp/Documents/DaisyExamples/libDaisy/src/per/sai.h ****     /** Return values for SAI functions */
 102:/Users/ozalp/Documents/DaisyExamples/libDaisy/src/per/sai.h ****     enum class Result
 103:/Users/ozalp/Documents/DaisyExamples/libDaisy/src/per/sai.h ****     {
 104:/Users/ozalp/Documents/DaisyExamples/libDaisy/src/per/sai.h ****         OK,
 105:/Users/ozalp/Documents/DaisyExamples/libDaisy/src/per/sai.h ****         ERR,
 106:/Users/ozalp/Documents/DaisyExamples/libDaisy/src/per/sai.h ****     };
 107:/Users/ozalp/Documents/DaisyExamples/libDaisy/src/per/sai.h **** 
 108:/Users/ozalp/Documents/DaisyExamples/libDaisy/src/per/sai.h ****     SaiHandle() : pimpl_(nullptr) {}
 373              		.loc 10 108 5 is_stmt 1 view .LVU91
 374              	.LBB134:
 375              	.LBB135:
 376              		.loc 10 108 19 is_stmt 0 view .LVU92
 377 000c D363     		str	r3, [r2, #60]
 378              	.LVL21:
 379              		.loc 10 108 19 view .LVU93
 380              	.LBE135:
 381              	.LBE134:
 382              	.LBE133:
 383              	.LBE136:
 384              	.LBE142:
 385              	.LBB143:
 386              	.LBI137:
 387              		.loc 7 82 5 is_stmt 1 view .LVU94
 388              	.LBB141:
 389              	.LBB140:
 390              		.loc 7 82 19 is_stmt 0 view .LVU95
 391 000e 0B60     		str	r3, [r1]
 392              	.LVL22:
 393              		.loc 7 82 19 view .LVU96
 394              	.LBE140:
 395              	.LBE141:
 396              	.LBE143:
 397              	.LBE115:
 398              	.LBE114:
 399              		.loc 1 51 1 view .LVU97
 400 0010 7047     		bx	lr
 401              	.L14:
 402 0012 00BF     		.align	2
 403              	.L13:
 404 0014 00000000 		.word	hardware
 405 0018 00000000 		.word	i2c1_handle
 406              		.cfi_endproc
 407              	.LFE5321:
 409              		.section	.init_array,"aw",%init_array
 410              		.align	2
ARM GAS  /var/folders/yk/qy9v9gw959gblxgjb8zzl1nw0000gn/T//cchmfQCm.s 			page 26


 411 0000 00000000 		.word	_GLOBAL__sub_I_hardware(target1)
 412              		.global	buffer
 413              		.section	.bss.buffer,"aw",%nobits
 414              		.align	2
 417              	buffer:
 418 0000 00000000 		.space	14
 418      00000000 
 418      00000000 
 418      0000
 419              		.global	i2c1_handle
 420              		.section	.bss.i2c1_handle,"aw",%nobits
 421              		.align	2
 424              	i2c1_handle:
 425 0000 00000000 		.space	4
 426              		.global	hardware
 427              		.section	.bss.hardware,"aw",%nobits
 428              		.align	2
 431              	hardware:
 432 0000 00000000 		.space	64
 432      00000000 
 432      00000000 
 432      00000000 
 432      00000000 
 433              		.text
 434              	.Letext0:
 435              		.file 11 "/Applications/ArmGNUToolchain/15.2.rel1/arm-none-eabi/arm-none-eabi/include/machine/_def
 436              		.file 12 "/Applications/ArmGNUToolchain/15.2.rel1/arm-none-eabi/arm-none-eabi/include/sys/_stdint.
 437              		.file 13 "/Applications/ArmGNUToolchain/15.2.rel1/arm-none-eabi/arm-none-eabi/include/stdint.h"
 438              		.file 14 "/Applications/ArmGNUToolchain/15.2.rel1/arm-none-eabi/lib/gcc/arm-none-eabi/15.2.1/inclu
 439              		.file 15 "/Applications/ArmGNUToolchain/15.2.rel1/arm-none-eabi/arm-none-eabi/include/c++/15.2.1/c
 440              		.file 16 "/Applications/ArmGNUToolchain/15.2.rel1/arm-none-eabi/arm-none-eabi/include/c++/15.2.1/b
 441              		.file 17 "/Applications/ArmGNUToolchain/15.2.rel1/arm-none-eabi/arm-none-eabi/include/c++/15.2.1/c
 442              		.file 18 "/Applications/ArmGNUToolchain/15.2.rel1/arm-none-eabi/arm-none-eabi/include/c++/15.2.1/c
 443              		.file 19 "/Applications/ArmGNUToolchain/15.2.rel1/arm-none-eabi/arm-none-eabi/include/c++/15.2.1/t
 444              		.file 20 "/Applications/ArmGNUToolchain/15.2.rel1/arm-none-eabi/arm-none-eabi/include/c++/15.2.1/b
 445              		.file 21 "/Applications/ArmGNUToolchain/15.2.rel1/arm-none-eabi/arm-none-eabi/include/c++/15.2.1/b
 446              		.file 22 "/Applications/ArmGNUToolchain/15.2.rel1/arm-none-eabi/arm-none-eabi/include/c++/15.2.1/d
 447              		.file 23 "/Applications/ArmGNUToolchain/15.2.rel1/arm-none-eabi/arm-none-eabi/include/c++/15.2.1/c
 448              		.file 24 "/Applications/ArmGNUToolchain/15.2.rel1/arm-none-eabi/arm-none-eabi/include/c++/15.2.1/c
 449              		.file 25 "/Applications/ArmGNUToolchain/15.2.rel1/arm-none-eabi/arm-none-eabi/include/c++/15.2.1/c
 450              		.file 26 "/Applications/ArmGNUToolchain/15.2.rel1/arm-none-eabi/arm-none-eabi/include/c++/15.2.1/c
 451              		.file 27 "/Applications/ArmGNUToolchain/15.2.rel1/arm-none-eabi/arm-none-eabi/include/c++/15.2.1/c
 452              		.file 28 "/Applications/ArmGNUToolchain/15.2.rel1/arm-none-eabi/arm-none-eabi/include/c++/15.2.1/b
 453              		.file 29 "/Applications/ArmGNUToolchain/15.2.rel1/arm-none-eabi/arm-none-eabi/include/sys/_types.h
 454              		.file 30 "/Applications/ArmGNUToolchain/15.2.rel1/arm-none-eabi/arm-none-eabi/include/sys/reent.h"
 455              		.file 31 "/Applications/ArmGNUToolchain/15.2.rel1/arm-none-eabi/arm-none-eabi/include/sys/lock.h"
 456              		.file 32 "/Applications/ArmGNUToolchain/15.2.rel1/arm-none-eabi/arm-none-eabi/include/math.h"
 457              		.file 33 "/Applications/ArmGNUToolchain/15.2.rel1/arm-none-eabi/arm-none-eabi/include/stdlib.h"
 458              		.file 34 "/Applications/ArmGNUToolchain/15.2.rel1/arm-none-eabi/arm-none-eabi/include/c++/15.2.1/m
 459              		.file 35 "/Applications/ArmGNUToolchain/15.2.rel1/arm-none-eabi/arm-none-eabi/include/c++/15.2.1/s
 460              		.file 36 "/Users/ozalp/Documents/DaisyExamples/libDaisy/src/daisy_core.h"
 461              		.file 37 "/Applications/ArmGNUToolchain/15.2.rel1/arm-none-eabi/arm-none-eabi/include/c++/15.2.1/a
 462              		.file 38 "/Users/ozalp/Documents/DaisyExamples/libDaisy/src/hid/logger_impl.h"
 463              		.file 39 "/Users/ozalp/Documents/DaisyExamples/libDaisy/src/util/wav_format.h"
 464              		.file 40 "/Users/ozalp/Documents/DaisyExamples/libDaisy/src/dev/max11300.h"
 465              		.file 41 "/Users/ozalp/Documents/DaisyExamples/libDaisy/src/hid/logger.h"
 466              		.file 42 "/Users/ozalp/Documents/DaisyExamples/libDaisy/src/per/gpio.h"
ARM GAS  /var/folders/yk/qy9v9gw959gblxgjb8zzl1nw0000gn/T//cchmfQCm.s 			page 27


 467              		.file 43 "/Users/ozalp/Documents/DaisyExamples/libDaisy/src/dev/sdram.h"
 468              		.file 44 "/Applications/ArmGNUToolchain/15.2.rel1/arm-none-eabi/arm-none-eabi/include/c++/15.2.1/b
 469              		.file 45 "/Applications/ArmGNUToolchain/15.2.rel1/arm-none-eabi/lib/gcc/arm-none-eabi/15.2.1/inclu
 470              		.file 46 "/Applications/ArmGNUToolchain/15.2.rel1/arm-none-eabi/arm-none-eabi/include/stdio.h"
 471              		.file 47 "/Applications/ArmGNUToolchain/15.2.rel1/arm-none-eabi/arm-none-eabi/include/string.h"
 472              		.file 48 "/Users/ozalp/Documents/DaisyExamples/DaisySP/Source/Control/adenv.h"
 473              		.file 49 "/Users/ozalp/Documents/DaisyExamples/DaisySP/Source/Utility/dsp.h"
 474              		.file 50 "/Applications/ArmGNUToolchain/15.2.rel1/arm-none-eabi/arm-none-eabi/include/wchar.h"
 475              		.file 51 "/Applications/ArmGNUToolchain/15.2.rel1/arm-none-eabi/arm-none-eabi/include/locale.h"
 476              		.file 52 "/Users/ozalp/Documents/DaisyExamples/libDaisy/src/dev/sr_595.h"
 477              		.file 53 "<built-in>"
ARM GAS  /var/folders/yk/qy9v9gw959gblxgjb8zzl1nw0000gn/T//cchmfQCm.s 			page 28

