ARM GAS  /tmp/ccyyZOVG.s 			page 1


   1              		.cpu cortex-m7
   2              		.eabi_attribute 28, 1
   3              		.eabi_attribute 20, 1
   4              		.eabi_attribute 21, 1
   5              		.eabi_attribute 23, 3
   6              		.eabi_attribute 24, 1
   7              		.eabi_attribute 25, 1
   8              		.eabi_attribute 26, 1
   9              		.eabi_attribute 30, 2
  10              		.eabi_attribute 34, 1
  11              		.eabi_attribute 18, 4
  12              		.file	"main.cpp"
  13              		.text
  14              	.Ltext0:
  15              		.cfi_sections	.debug_frame
  16              		.section	.text._ZN5daisy9DaisySeedD2Ev,"axG",%progbits,_ZN5daisy9DaisySeedD5Ev,comdat
  17              		.align	1
  18              		.p2align 2,,3
  19              		.weak	_ZN5daisy9DaisySeedD2Ev
  20              		.arch armv7e-m
  21              		.syntax unified
  22              		.thumb
  23              		.thumb_func
  24              		.fpu fpv5-d16
  26              	_ZN5daisy9DaisySeedD2Ev:
  27              	.LVL0:
  28              	.LFB2555:
  29              		.file 1 "/home/nahomts/Documents/DaisyExamples/libDaisy/src/daisy_seed.h"
   1:/home/nahomts/Documents/DaisyExamples/libDaisy/src/daisy_seed.h **** #pragma once
   2:/home/nahomts/Documents/DaisyExamples/libDaisy/src/daisy_seed.h **** #ifndef DSY_SEED_H
   3:/home/nahomts/Documents/DaisyExamples/libDaisy/src/daisy_seed.h **** #define DSY_SEED_H
   4:/home/nahomts/Documents/DaisyExamples/libDaisy/src/daisy_seed.h **** 
   5:/home/nahomts/Documents/DaisyExamples/libDaisy/src/daisy_seed.h **** #include "daisy.h"
   6:/home/nahomts/Documents/DaisyExamples/libDaisy/src/daisy_seed.h **** 
   7:/home/nahomts/Documents/DaisyExamples/libDaisy/src/daisy_seed.h **** //Uncomment this out if you're still using the rev2 hardware
   8:/home/nahomts/Documents/DaisyExamples/libDaisy/src/daisy_seed.h **** //#define SEED_REV2
   9:/home/nahomts/Documents/DaisyExamples/libDaisy/src/daisy_seed.h **** 
  10:/home/nahomts/Documents/DaisyExamples/libDaisy/src/daisy_seed.h **** namespace daisy
  11:/home/nahomts/Documents/DaisyExamples/libDaisy/src/daisy_seed.h **** {
  12:/home/nahomts/Documents/DaisyExamples/libDaisy/src/daisy_seed.h **** /**
  13:/home/nahomts/Documents/DaisyExamples/libDaisy/src/daisy_seed.h ****    @brief This is the higher-level interface for the Daisy board. \n 
  14:/home/nahomts/Documents/DaisyExamples/libDaisy/src/daisy_seed.h ****     All basic peripheral configuration/initialization is setup here. \n
  15:/home/nahomts/Documents/DaisyExamples/libDaisy/src/daisy_seed.h **** 
  16:/home/nahomts/Documents/DaisyExamples/libDaisy/src/daisy_seed.h ****    @ingroup boards
  17:/home/nahomts/Documents/DaisyExamples/libDaisy/src/daisy_seed.h **** */
  18:/home/nahomts/Documents/DaisyExamples/libDaisy/src/daisy_seed.h **** class DaisySeed
  19:/home/nahomts/Documents/DaisyExamples/libDaisy/src/daisy_seed.h **** {
  20:/home/nahomts/Documents/DaisyExamples/libDaisy/src/daisy_seed.h ****   public:
  21:/home/nahomts/Documents/DaisyExamples/libDaisy/src/daisy_seed.h ****     DaisySeed() {}
  22:/home/nahomts/Documents/DaisyExamples/libDaisy/src/daisy_seed.h ****     ~DaisySeed() {}
  30              		.loc 1 22 5 view -0
  31              		.cfi_startproc
  32              		@ args = 0, pretend = 0, frame = 0
  33              		@ frame_needed = 0, uses_anonymous_args = 0
  34              		@ link register save eliminated.
  35              	.LBB96:
  36              	.LBI96:
ARM GAS  /tmp/ccyyZOVG.s 			page 2


  37              		.file 2 "/home/nahomts/Documents/DaisyExamples/libDaisy/src/sys/system.h"
   1:/home/nahomts/Documents/DaisyExamples/libDaisy/src/sys/system.h **** #ifndef DSY_SYSTEM_H
   2:/home/nahomts/Documents/DaisyExamples/libDaisy/src/sys/system.h **** #define DSY_SYSTEM_H
   3:/home/nahomts/Documents/DaisyExamples/libDaisy/src/sys/system.h **** 
   4:/home/nahomts/Documents/DaisyExamples/libDaisy/src/sys/system.h **** #ifndef UNIT_TEST // for unit tests, a dummy implementation is provided below
   5:/home/nahomts/Documents/DaisyExamples/libDaisy/src/sys/system.h **** 
   6:/home/nahomts/Documents/DaisyExamples/libDaisy/src/sys/system.h **** #include <cstdint>
   7:/home/nahomts/Documents/DaisyExamples/libDaisy/src/sys/system.h **** #include "per/tim.h"
   8:/home/nahomts/Documents/DaisyExamples/libDaisy/src/sys/system.h **** 
   9:/home/nahomts/Documents/DaisyExamples/libDaisy/src/sys/system.h **** namespace daisy
  10:/home/nahomts/Documents/DaisyExamples/libDaisy/src/sys/system.h **** {
  11:/home/nahomts/Documents/DaisyExamples/libDaisy/src/sys/system.h **** /** A handle for interacting with the Core System.
  12:/home/nahomts/Documents/DaisyExamples/libDaisy/src/sys/system.h ****  ** This includes the Clock tree, MPU, global DMA initialization,
  13:/home/nahomts/Documents/DaisyExamples/libDaisy/src/sys/system.h ****  ** cache handling, and any other necessary global initiailzation
  14:/home/nahomts/Documents/DaisyExamples/libDaisy/src/sys/system.h ****  **
  15:/home/nahomts/Documents/DaisyExamples/libDaisy/src/sys/system.h ****  ** @author shensley
  16:/home/nahomts/Documents/DaisyExamples/libDaisy/src/sys/system.h ****  ** @ingroup system
  17:/home/nahomts/Documents/DaisyExamples/libDaisy/src/sys/system.h ****  */
  18:/home/nahomts/Documents/DaisyExamples/libDaisy/src/sys/system.h **** class System
  19:/home/nahomts/Documents/DaisyExamples/libDaisy/src/sys/system.h **** {
  20:/home/nahomts/Documents/DaisyExamples/libDaisy/src/sys/system.h ****   public:
  21:/home/nahomts/Documents/DaisyExamples/libDaisy/src/sys/system.h ****     /** Contains settings for initializing the System */
  22:/home/nahomts/Documents/DaisyExamples/libDaisy/src/sys/system.h ****     struct Config
  23:/home/nahomts/Documents/DaisyExamples/libDaisy/src/sys/system.h ****     {
  24:/home/nahomts/Documents/DaisyExamples/libDaisy/src/sys/system.h ****         /** Specifies the system clock frequency that feeds APB/AHB clocks, etc. */
  25:/home/nahomts/Documents/DaisyExamples/libDaisy/src/sys/system.h ****         enum class SysClkFreq
  26:/home/nahomts/Documents/DaisyExamples/libDaisy/src/sys/system.h ****         {
  27:/home/nahomts/Documents/DaisyExamples/libDaisy/src/sys/system.h ****             FREQ_400MHZ,
  28:/home/nahomts/Documents/DaisyExamples/libDaisy/src/sys/system.h ****             FREQ_480MHZ,
  29:/home/nahomts/Documents/DaisyExamples/libDaisy/src/sys/system.h ****         };
  30:/home/nahomts/Documents/DaisyExamples/libDaisy/src/sys/system.h **** 
  31:/home/nahomts/Documents/DaisyExamples/libDaisy/src/sys/system.h ****         /** Method to call on the struct to set to defaults
  32:/home/nahomts/Documents/DaisyExamples/libDaisy/src/sys/system.h ****          ** CPU Freq set to 400MHz
  33:/home/nahomts/Documents/DaisyExamples/libDaisy/src/sys/system.h ****          ** Cache Enabled
  34:/home/nahomts/Documents/DaisyExamples/libDaisy/src/sys/system.h ****          ** */
  35:/home/nahomts/Documents/DaisyExamples/libDaisy/src/sys/system.h ****         void Defaults()
  36:/home/nahomts/Documents/DaisyExamples/libDaisy/src/sys/system.h ****         {
  37:/home/nahomts/Documents/DaisyExamples/libDaisy/src/sys/system.h ****             cpu_freq    = SysClkFreq::FREQ_400MHZ;
  38:/home/nahomts/Documents/DaisyExamples/libDaisy/src/sys/system.h ****             use_dcache  = true;
  39:/home/nahomts/Documents/DaisyExamples/libDaisy/src/sys/system.h ****             use_icache  = true;
  40:/home/nahomts/Documents/DaisyExamples/libDaisy/src/sys/system.h ****             skip_clocks = false;
  41:/home/nahomts/Documents/DaisyExamples/libDaisy/src/sys/system.h ****         }
  42:/home/nahomts/Documents/DaisyExamples/libDaisy/src/sys/system.h **** 
  43:/home/nahomts/Documents/DaisyExamples/libDaisy/src/sys/system.h ****         /** Method to call on the struct to set to boost mode:
  44:/home/nahomts/Documents/DaisyExamples/libDaisy/src/sys/system.h ****          ** CPU Freq set to 480MHz
  45:/home/nahomts/Documents/DaisyExamples/libDaisy/src/sys/system.h ****          ** Cache Enabled
  46:/home/nahomts/Documents/DaisyExamples/libDaisy/src/sys/system.h ****          ** */
  47:/home/nahomts/Documents/DaisyExamples/libDaisy/src/sys/system.h ****         void Boost()
  48:/home/nahomts/Documents/DaisyExamples/libDaisy/src/sys/system.h ****         {
  49:/home/nahomts/Documents/DaisyExamples/libDaisy/src/sys/system.h ****             cpu_freq    = SysClkFreq::FREQ_480MHZ;
  50:/home/nahomts/Documents/DaisyExamples/libDaisy/src/sys/system.h ****             use_dcache  = true;
  51:/home/nahomts/Documents/DaisyExamples/libDaisy/src/sys/system.h ****             use_icache  = true;
  52:/home/nahomts/Documents/DaisyExamples/libDaisy/src/sys/system.h ****             skip_clocks = false;
  53:/home/nahomts/Documents/DaisyExamples/libDaisy/src/sys/system.h ****         }
  54:/home/nahomts/Documents/DaisyExamples/libDaisy/src/sys/system.h **** 
  55:/home/nahomts/Documents/DaisyExamples/libDaisy/src/sys/system.h ****         SysClkFreq cpu_freq;
  56:/home/nahomts/Documents/DaisyExamples/libDaisy/src/sys/system.h ****         bool       use_dcache;
ARM GAS  /tmp/ccyyZOVG.s 			page 3


  57:/home/nahomts/Documents/DaisyExamples/libDaisy/src/sys/system.h ****         bool       use_icache;
  58:/home/nahomts/Documents/DaisyExamples/libDaisy/src/sys/system.h ****         bool       skip_clocks;
  59:/home/nahomts/Documents/DaisyExamples/libDaisy/src/sys/system.h ****     };
  60:/home/nahomts/Documents/DaisyExamples/libDaisy/src/sys/system.h **** 
  61:/home/nahomts/Documents/DaisyExamples/libDaisy/src/sys/system.h ****     /** Describes the different regions of memory available to the Daisy */
  62:/home/nahomts/Documents/DaisyExamples/libDaisy/src/sys/system.h ****     enum MemoryRegion
  63:/home/nahomts/Documents/DaisyExamples/libDaisy/src/sys/system.h ****     {
  64:/home/nahomts/Documents/DaisyExamples/libDaisy/src/sys/system.h ****         INTERNAL_FLASH = 0,
  65:/home/nahomts/Documents/DaisyExamples/libDaisy/src/sys/system.h ****         ITCMRAM,
  66:/home/nahomts/Documents/DaisyExamples/libDaisy/src/sys/system.h ****         DTCMRAM,
  67:/home/nahomts/Documents/DaisyExamples/libDaisy/src/sys/system.h ****         SRAM_D1,
  68:/home/nahomts/Documents/DaisyExamples/libDaisy/src/sys/system.h ****         SRAM_D2,
  69:/home/nahomts/Documents/DaisyExamples/libDaisy/src/sys/system.h ****         SRAM_D3,
  70:/home/nahomts/Documents/DaisyExamples/libDaisy/src/sys/system.h ****         SDRAM,
  71:/home/nahomts/Documents/DaisyExamples/libDaisy/src/sys/system.h ****         QSPI,
  72:/home/nahomts/Documents/DaisyExamples/libDaisy/src/sys/system.h ****         INVALID_ADDRESS,
  73:/home/nahomts/Documents/DaisyExamples/libDaisy/src/sys/system.h ****     };
  74:/home/nahomts/Documents/DaisyExamples/libDaisy/src/sys/system.h **** 
  75:/home/nahomts/Documents/DaisyExamples/libDaisy/src/sys/system.h ****     /** Bootloader struct for controlling bootloading parameters */
  76:/home/nahomts/Documents/DaisyExamples/libDaisy/src/sys/system.h ****     struct BootInfo
  77:/home/nahomts/Documents/DaisyExamples/libDaisy/src/sys/system.h ****     {
  78:/home/nahomts/Documents/DaisyExamples/libDaisy/src/sys/system.h ****         enum class Type : uint32_t
  79:/home/nahomts/Documents/DaisyExamples/libDaisy/src/sys/system.h ****         {
  80:/home/nahomts/Documents/DaisyExamples/libDaisy/src/sys/system.h ****             INVALID      = 0x00000000,
  81:/home/nahomts/Documents/DaisyExamples/libDaisy/src/sys/system.h ****             JUMP         = 0xDEADBEEF,
  82:/home/nahomts/Documents/DaisyExamples/libDaisy/src/sys/system.h ****             SKIP_TIMEOUT = 0x5AFEB007,
  83:/home/nahomts/Documents/DaisyExamples/libDaisy/src/sys/system.h ****             INF_TIMEOUT  = 0xB0074EFA,
  84:/home/nahomts/Documents/DaisyExamples/libDaisy/src/sys/system.h ****         } status;
  85:/home/nahomts/Documents/DaisyExamples/libDaisy/src/sys/system.h ****         uint32_t data;
  86:/home/nahomts/Documents/DaisyExamples/libDaisy/src/sys/system.h ****         enum class Version : uint32_t
  87:/home/nahomts/Documents/DaisyExamples/libDaisy/src/sys/system.h ****         {
  88:/home/nahomts/Documents/DaisyExamples/libDaisy/src/sys/system.h ****             LT_v6_0 = 0, // Less than v6.0
  89:/home/nahomts/Documents/DaisyExamples/libDaisy/src/sys/system.h ****             NONE,        // No bootloader present
  90:/home/nahomts/Documents/DaisyExamples/libDaisy/src/sys/system.h ****             v6_0,        // v6.0
  91:/home/nahomts/Documents/DaisyExamples/libDaisy/src/sys/system.h ****             v6_1,        // v6.1 or greater
  92:/home/nahomts/Documents/DaisyExamples/libDaisy/src/sys/system.h ****             LAST
  93:/home/nahomts/Documents/DaisyExamples/libDaisy/src/sys/system.h ****         } version;
  94:/home/nahomts/Documents/DaisyExamples/libDaisy/src/sys/system.h ****     };
  95:/home/nahomts/Documents/DaisyExamples/libDaisy/src/sys/system.h **** 
  96:/home/nahomts/Documents/DaisyExamples/libDaisy/src/sys/system.h ****     System() {}
  97:/home/nahomts/Documents/DaisyExamples/libDaisy/src/sys/system.h ****     ~System() {}
  38              		.loc 2 97 5 view .LVU1
  39              		.loc 2 97 5 is_stmt 0 view .LVU2
  40              	.LBE96:
  41              	.LBB97:
  42              	.LBI97:
  43              		.file 3 "/home/nahomts/Documents/DaisyExamples/libDaisy/src/hid/usb.h"
   1:/home/nahomts/Documents/DaisyExamples/libDaisy/src/hid/usb.h **** #pragma once
   2:/home/nahomts/Documents/DaisyExamples/libDaisy/src/hid/usb.h **** #ifndef DSY_HID_USB_H
   3:/home/nahomts/Documents/DaisyExamples/libDaisy/src/hid/usb.h **** #define DSY_HID_USB_H
   4:/home/nahomts/Documents/DaisyExamples/libDaisy/src/hid/usb.h **** #include <stdint.h>
   5:/home/nahomts/Documents/DaisyExamples/libDaisy/src/hid/usb.h **** #include <stdlib.h>
   6:/home/nahomts/Documents/DaisyExamples/libDaisy/src/hid/usb.h **** 
   7:/home/nahomts/Documents/DaisyExamples/libDaisy/src/hid/usb.h **** namespace daisy
   8:/home/nahomts/Documents/DaisyExamples/libDaisy/src/hid/usb.h **** /** @addtogroup human_interface
   9:/home/nahomts/Documents/DaisyExamples/libDaisy/src/hid/usb.h ****     @{
  10:/home/nahomts/Documents/DaisyExamples/libDaisy/src/hid/usb.h **** */
ARM GAS  /tmp/ccyyZOVG.s 			page 4


  11:/home/nahomts/Documents/DaisyExamples/libDaisy/src/hid/usb.h **** 
  12:/home/nahomts/Documents/DaisyExamples/libDaisy/src/hid/usb.h **** {
  13:/home/nahomts/Documents/DaisyExamples/libDaisy/src/hid/usb.h **** /** 
  14:/home/nahomts/Documents/DaisyExamples/libDaisy/src/hid/usb.h ****     @brief Interface for initializing and using the USB Peripherals on the daisy
  15:/home/nahomts/Documents/DaisyExamples/libDaisy/src/hid/usb.h ****     @author Stephen Hensley
  16:/home/nahomts/Documents/DaisyExamples/libDaisy/src/hid/usb.h ****     @date December 2019
  17:/home/nahomts/Documents/DaisyExamples/libDaisy/src/hid/usb.h **** */
  18:/home/nahomts/Documents/DaisyExamples/libDaisy/src/hid/usb.h **** class UsbHandle
  19:/home/nahomts/Documents/DaisyExamples/libDaisy/src/hid/usb.h **** {
  20:/home/nahomts/Documents/DaisyExamples/libDaisy/src/hid/usb.h ****   public:
  21:/home/nahomts/Documents/DaisyExamples/libDaisy/src/hid/usb.h ****     /** Return values for USBHandle Functions */
  22:/home/nahomts/Documents/DaisyExamples/libDaisy/src/hid/usb.h ****     enum class Result
  23:/home/nahomts/Documents/DaisyExamples/libDaisy/src/hid/usb.h ****     {
  24:/home/nahomts/Documents/DaisyExamples/libDaisy/src/hid/usb.h ****         OK,
  25:/home/nahomts/Documents/DaisyExamples/libDaisy/src/hid/usb.h ****         ERR,
  26:/home/nahomts/Documents/DaisyExamples/libDaisy/src/hid/usb.h ****     };
  27:/home/nahomts/Documents/DaisyExamples/libDaisy/src/hid/usb.h **** 
  28:/home/nahomts/Documents/DaisyExamples/libDaisy/src/hid/usb.h ****     /** Specified which of the two USB Peripherals to initialize. */
  29:/home/nahomts/Documents/DaisyExamples/libDaisy/src/hid/usb.h ****     enum UsbPeriph
  30:/home/nahomts/Documents/DaisyExamples/libDaisy/src/hid/usb.h ****     {
  31:/home/nahomts/Documents/DaisyExamples/libDaisy/src/hid/usb.h ****         FS_INTERNAL, /**< Internal pin */
  32:/home/nahomts/Documents/DaisyExamples/libDaisy/src/hid/usb.h ****         FS_EXTERNAL, /**< FS External D+ pin is Pin 38 (GPIO32). FS External D- pin is Pin 37 (GPIO
  33:/home/nahomts/Documents/DaisyExamples/libDaisy/src/hid/usb.h ****         FS_BOTH,     /**< Both */
  34:/home/nahomts/Documents/DaisyExamples/libDaisy/src/hid/usb.h ****     };
  35:/home/nahomts/Documents/DaisyExamples/libDaisy/src/hid/usb.h **** 
  36:/home/nahomts/Documents/DaisyExamples/libDaisy/src/hid/usb.h **** 
  37:/home/nahomts/Documents/DaisyExamples/libDaisy/src/hid/usb.h ****     /** Function called upon reception of a buffer */
  38:/home/nahomts/Documents/DaisyExamples/libDaisy/src/hid/usb.h ****     typedef void (*ReceiveCallback)(uint8_t* buff, uint32_t* len);
  39:/home/nahomts/Documents/DaisyExamples/libDaisy/src/hid/usb.h **** 
  40:/home/nahomts/Documents/DaisyExamples/libDaisy/src/hid/usb.h ****     UsbHandle() {}
  41:/home/nahomts/Documents/DaisyExamples/libDaisy/src/hid/usb.h **** 
  42:/home/nahomts/Documents/DaisyExamples/libDaisy/src/hid/usb.h ****     ~UsbHandle() {}
  44              		.loc 3 42 5 is_stmt 1 view .LVU3
  45              		.loc 3 42 5 is_stmt 0 view .LVU4
  46              	.LBE97:
  47              	.LBB98:
  48              	.LBI98:
  49              		.file 4 "/home/nahomts/Documents/DaisyExamples/libDaisy/src/per/adc.h"
   1:/home/nahomts/Documents/DaisyExamples/libDaisy/src/per/adc.h **** #pragma once
   2:/home/nahomts/Documents/DaisyExamples/libDaisy/src/per/adc.h **** #ifndef DSY_ADC_H
   3:/home/nahomts/Documents/DaisyExamples/libDaisy/src/per/adc.h **** #define DSY_ADC_H /**< Macro */
   4:/home/nahomts/Documents/DaisyExamples/libDaisy/src/per/adc.h **** #include <stdint.h>
   5:/home/nahomts/Documents/DaisyExamples/libDaisy/src/per/adc.h **** #include <stdlib.h>
   6:/home/nahomts/Documents/DaisyExamples/libDaisy/src/per/adc.h **** #include "daisy_core.h"
   7:/home/nahomts/Documents/DaisyExamples/libDaisy/src/per/adc.h **** #include "per/gpio.h"
   8:/home/nahomts/Documents/DaisyExamples/libDaisy/src/per/adc.h **** 
   9:/home/nahomts/Documents/DaisyExamples/libDaisy/src/per/adc.h **** #define DSY_ADC_MAX_CHANNELS 16 /**< Maximum number of ADC channels */
  10:/home/nahomts/Documents/DaisyExamples/libDaisy/src/per/adc.h **** 
  11:/home/nahomts/Documents/DaisyExamples/libDaisy/src/per/adc.h **** namespace daisy
  12:/home/nahomts/Documents/DaisyExamples/libDaisy/src/per/adc.h **** {
  13:/home/nahomts/Documents/DaisyExamples/libDaisy/src/per/adc.h **** /** @addtogroup per_analog
  14:/home/nahomts/Documents/DaisyExamples/libDaisy/src/per/adc.h ****     @{
  15:/home/nahomts/Documents/DaisyExamples/libDaisy/src/per/adc.h **** */
  16:/home/nahomts/Documents/DaisyExamples/libDaisy/src/per/adc.h **** 
  17:/home/nahomts/Documents/DaisyExamples/libDaisy/src/per/adc.h **** /* While there may not be many configuration options here,
  18:/home/nahomts/Documents/DaisyExamples/libDaisy/src/per/adc.h **** using a struct like this allows us to add more configuration
  19:/home/nahomts/Documents/DaisyExamples/libDaisy/src/per/adc.h **** later without breaking existing functionality.
ARM GAS  /tmp/ccyyZOVG.s 			page 5


  20:/home/nahomts/Documents/DaisyExamples/libDaisy/src/per/adc.h **** */
  21:/home/nahomts/Documents/DaisyExamples/libDaisy/src/per/adc.h **** 
  22:/home/nahomts/Documents/DaisyExamples/libDaisy/src/per/adc.h **** /** @brief   Configuration Structure for an ADC Channel 
  23:/home/nahomts/Documents/DaisyExamples/libDaisy/src/per/adc.h ****  *  @details This can be used to configure a a single input, 
  24:/home/nahomts/Documents/DaisyExamples/libDaisy/src/per/adc.h ****  *           or a multiplexed input, allowing up to 8 inputs on 
  25:/home/nahomts/Documents/DaisyExamples/libDaisy/src/per/adc.h ****  *           one channel.
  26:/home/nahomts/Documents/DaisyExamples/libDaisy/src/per/adc.h ****  *  @note    Sharing data lines to multiple muxes _is_ possible, but
  27:/home/nahomts/Documents/DaisyExamples/libDaisy/src/per/adc.h ****  *           each channel sharing data lines must be set to the maximum
  28:/home/nahomts/Documents/DaisyExamples/libDaisy/src/per/adc.h ****  *           number of channels, even if some multiplexers have fewer
  29:/home/nahomts/Documents/DaisyExamples/libDaisy/src/per/adc.h ****  *           inputs connected.
  30:/home/nahomts/Documents/DaisyExamples/libDaisy/src/per/adc.h **** */
  31:/home/nahomts/Documents/DaisyExamples/libDaisy/src/per/adc.h **** struct AdcChannelConfig
  32:/home/nahomts/Documents/DaisyExamples/libDaisy/src/per/adc.h **** {
  33:/home/nahomts/Documents/DaisyExamples/libDaisy/src/per/adc.h ****     /** Which pin to use for multiplexing */
  34:/home/nahomts/Documents/DaisyExamples/libDaisy/src/per/adc.h ****     enum MuxPin
  35:/home/nahomts/Documents/DaisyExamples/libDaisy/src/per/adc.h ****     {
  36:/home/nahomts/Documents/DaisyExamples/libDaisy/src/per/adc.h ****         MUX_SEL_0,    /**< & */
  37:/home/nahomts/Documents/DaisyExamples/libDaisy/src/per/adc.h ****         MUX_SEL_1,    /**< & */
  38:/home/nahomts/Documents/DaisyExamples/libDaisy/src/per/adc.h ****         MUX_SEL_2,    /**< & */
  39:/home/nahomts/Documents/DaisyExamples/libDaisy/src/per/adc.h ****         MUX_SEL_LAST, /**< & */
  40:/home/nahomts/Documents/DaisyExamples/libDaisy/src/per/adc.h ****     };
  41:/home/nahomts/Documents/DaisyExamples/libDaisy/src/per/adc.h **** 
  42:/home/nahomts/Documents/DaisyExamples/libDaisy/src/per/adc.h ****     /** \brief per channel conversion speed added to fixed time based on bitdepth, etc. */
  43:/home/nahomts/Documents/DaisyExamples/libDaisy/src/per/adc.h ****     enum ConversionSpeed
  44:/home/nahomts/Documents/DaisyExamples/libDaisy/src/per/adc.h ****     {
  45:/home/nahomts/Documents/DaisyExamples/libDaisy/src/per/adc.h ****         SPEED_1CYCLES_5,
  46:/home/nahomts/Documents/DaisyExamples/libDaisy/src/per/adc.h ****         SPEED_2CYCLES_5,
  47:/home/nahomts/Documents/DaisyExamples/libDaisy/src/per/adc.h ****         SPEED_8CYCLES_5,
  48:/home/nahomts/Documents/DaisyExamples/libDaisy/src/per/adc.h ****         SPEED_16CYCLES_5,
  49:/home/nahomts/Documents/DaisyExamples/libDaisy/src/per/adc.h ****         SPEED_32CYCLES_5,
  50:/home/nahomts/Documents/DaisyExamples/libDaisy/src/per/adc.h ****         SPEED_64CYCLES_5,
  51:/home/nahomts/Documents/DaisyExamples/libDaisy/src/per/adc.h ****         SPEED_387CYCLES_5,
  52:/home/nahomts/Documents/DaisyExamples/libDaisy/src/per/adc.h ****         SPEED_810CYCLES_5,
  53:/home/nahomts/Documents/DaisyExamples/libDaisy/src/per/adc.h ****     };
  54:/home/nahomts/Documents/DaisyExamples/libDaisy/src/per/adc.h **** 
  55:/home/nahomts/Documents/DaisyExamples/libDaisy/src/per/adc.h ****     /** Initializes a single ADC pin as an ADC. 
  56:/home/nahomts/Documents/DaisyExamples/libDaisy/src/per/adc.h ****     \param pin Pin to init.
  57:/home/nahomts/Documents/DaisyExamples/libDaisy/src/per/adc.h ****     \param speed conversion speed for this pin defaults to 8.5 cycles
  58:/home/nahomts/Documents/DaisyExamples/libDaisy/src/per/adc.h ****      */
  59:/home/nahomts/Documents/DaisyExamples/libDaisy/src/per/adc.h ****     void InitSingle(dsy_gpio_pin pin, ConversionSpeed speed = SPEED_8CYCLES_5);
  60:/home/nahomts/Documents/DaisyExamples/libDaisy/src/per/adc.h **** 
  61:/home/nahomts/Documents/DaisyExamples/libDaisy/src/per/adc.h ****     /** 
  62:/home/nahomts/Documents/DaisyExamples/libDaisy/src/per/adc.h ****     Initializes a single ADC pin as a Multiplexed ADC.
  63:/home/nahomts/Documents/DaisyExamples/libDaisy/src/per/adc.h ****     Requires a CD405X Multiplexer connected to the pin.
  64:/home/nahomts/Documents/DaisyExamples/libDaisy/src/per/adc.h ****     You only need to supply the mux pins that are required,
  65:/home/nahomts/Documents/DaisyExamples/libDaisy/src/per/adc.h ****     e.g. a 4052 mux would only require mux_0 and mux_1.
  66:/home/nahomts/Documents/DaisyExamples/libDaisy/src/per/adc.h ****     Internal Callbacks handle the pin addressing.
  67:/home/nahomts/Documents/DaisyExamples/libDaisy/src/per/adc.h ****     \param adc_pin &
  68:/home/nahomts/Documents/DaisyExamples/libDaisy/src/per/adc.h ****     \param mux_channels must be 1-8
  69:/home/nahomts/Documents/DaisyExamples/libDaisy/src/per/adc.h ****     \param mux_0 First mux pin
  70:/home/nahomts/Documents/DaisyExamples/libDaisy/src/per/adc.h ****     \param mux_1 Second mux pin
  71:/home/nahomts/Documents/DaisyExamples/libDaisy/src/per/adc.h ****     \param mux_2 Third mux pin
  72:/home/nahomts/Documents/DaisyExamples/libDaisy/src/per/adc.h ****     \param speed conversion speed for this pin defaults to 8.5 cycles
  73:/home/nahomts/Documents/DaisyExamples/libDaisy/src/per/adc.h ****     */
  74:/home/nahomts/Documents/DaisyExamples/libDaisy/src/per/adc.h ****     void InitMux(dsy_gpio_pin    adc_pin,
  75:/home/nahomts/Documents/DaisyExamples/libDaisy/src/per/adc.h ****                  size_t          mux_channels,
  76:/home/nahomts/Documents/DaisyExamples/libDaisy/src/per/adc.h ****                  dsy_gpio_pin    mux_0,
ARM GAS  /tmp/ccyyZOVG.s 			page 6


  77:/home/nahomts/Documents/DaisyExamples/libDaisy/src/per/adc.h ****                  dsy_gpio_pin    mux_1 = {DSY_GPIOX, 0},
  78:/home/nahomts/Documents/DaisyExamples/libDaisy/src/per/adc.h ****                  dsy_gpio_pin    mux_2 = {DSY_GPIOX, 0},
  79:/home/nahomts/Documents/DaisyExamples/libDaisy/src/per/adc.h ****                  ConversionSpeed speed = SPEED_8CYCLES_5);
  80:/home/nahomts/Documents/DaisyExamples/libDaisy/src/per/adc.h **** 
  81:/home/nahomts/Documents/DaisyExamples/libDaisy/src/per/adc.h ****     dsy_gpio        pin_;                   /**< & */
  82:/home/nahomts/Documents/DaisyExamples/libDaisy/src/per/adc.h ****     dsy_gpio        mux_pin_[MUX_SEL_LAST]; /**< & */
  83:/home/nahomts/Documents/DaisyExamples/libDaisy/src/per/adc.h ****     uint8_t         mux_channels_;          /**< & */
  84:/home/nahomts/Documents/DaisyExamples/libDaisy/src/per/adc.h ****     ConversionSpeed speed_;
  85:/home/nahomts/Documents/DaisyExamples/libDaisy/src/per/adc.h **** };
  86:/home/nahomts/Documents/DaisyExamples/libDaisy/src/per/adc.h **** 
  87:/home/nahomts/Documents/DaisyExamples/libDaisy/src/per/adc.h **** /**
  88:/home/nahomts/Documents/DaisyExamples/libDaisy/src/per/adc.h ****    @brief Handler for analog to digital conversion
  89:/home/nahomts/Documents/DaisyExamples/libDaisy/src/per/adc.h **** */
  90:/home/nahomts/Documents/DaisyExamples/libDaisy/src/per/adc.h **** class AdcHandle
  91:/home/nahomts/Documents/DaisyExamples/libDaisy/src/per/adc.h **** {
  92:/home/nahomts/Documents/DaisyExamples/libDaisy/src/per/adc.h ****   public:
  93:/home/nahomts/Documents/DaisyExamples/libDaisy/src/per/adc.h ****     /** Supported oversampling amounts */
  94:/home/nahomts/Documents/DaisyExamples/libDaisy/src/per/adc.h ****     enum OverSampling
  95:/home/nahomts/Documents/DaisyExamples/libDaisy/src/per/adc.h ****     {
  96:/home/nahomts/Documents/DaisyExamples/libDaisy/src/per/adc.h ****         OVS_NONE, /**< & */
  97:/home/nahomts/Documents/DaisyExamples/libDaisy/src/per/adc.h ****         OVS_4,    /**< & */
  98:/home/nahomts/Documents/DaisyExamples/libDaisy/src/per/adc.h ****         OVS_8,    /**< & */
  99:/home/nahomts/Documents/DaisyExamples/libDaisy/src/per/adc.h ****         OVS_16,   /**< & */
 100:/home/nahomts/Documents/DaisyExamples/libDaisy/src/per/adc.h ****         OVS_32,   /**< & */
 101:/home/nahomts/Documents/DaisyExamples/libDaisy/src/per/adc.h ****         OVS_64,   /**< & */
 102:/home/nahomts/Documents/DaisyExamples/libDaisy/src/per/adc.h ****         OVS_128,  /**< & */
 103:/home/nahomts/Documents/DaisyExamples/libDaisy/src/per/adc.h ****         OVS_256,  /**< & */
 104:/home/nahomts/Documents/DaisyExamples/libDaisy/src/per/adc.h ****         OVS_512,  /**< & */
 105:/home/nahomts/Documents/DaisyExamples/libDaisy/src/per/adc.h ****         OVS_1024, /**< & */
 106:/home/nahomts/Documents/DaisyExamples/libDaisy/src/per/adc.h ****         OVS_LAST, /**< & */
 107:/home/nahomts/Documents/DaisyExamples/libDaisy/src/per/adc.h ****     };
 108:/home/nahomts/Documents/DaisyExamples/libDaisy/src/per/adc.h **** 
 109:/home/nahomts/Documents/DaisyExamples/libDaisy/src/per/adc.h ****     AdcHandle() {}
 110:/home/nahomts/Documents/DaisyExamples/libDaisy/src/per/adc.h ****     ~AdcHandle() {}
  50              		.loc 4 110 5 is_stmt 1 view .LVU5
  51              		.loc 4 110 5 is_stmt 0 view .LVU6
  52              	.LBE98:
  53              	.LBB99:
  54              	.LBI99:
  55              		.file 5 "/home/nahomts/Documents/DaisyExamples/libDaisy/src/hid/audio.h"
   1:/home/nahomts/Documents/DaisyExamples/libDaisy/src/hid/audio.h **** #ifndef DSY_AUDIO_H
   2:/home/nahomts/Documents/DaisyExamples/libDaisy/src/hid/audio.h **** #define DSY_AUDIO_H /**< & */
   3:/home/nahomts/Documents/DaisyExamples/libDaisy/src/hid/audio.h **** 
   4:/home/nahomts/Documents/DaisyExamples/libDaisy/src/hid/audio.h **** #include "per/sai.h"
   5:/home/nahomts/Documents/DaisyExamples/libDaisy/src/hid/audio.h **** 
   6:/home/nahomts/Documents/DaisyExamples/libDaisy/src/hid/audio.h **** namespace daisy
   7:/home/nahomts/Documents/DaisyExamples/libDaisy/src/hid/audio.h **** {
   8:/home/nahomts/Documents/DaisyExamples/libDaisy/src/hid/audio.h **** /** @brief Audio Engine Handle
   9:/home/nahomts/Documents/DaisyExamples/libDaisy/src/hid/audio.h ****  *  @ingroup audio 
  10:/home/nahomts/Documents/DaisyExamples/libDaisy/src/hid/audio.h ****  *  @details This class allows for higher level access to an audio engine.
  11:/home/nahomts/Documents/DaisyExamples/libDaisy/src/hid/audio.h ****  *           If you're using a SOM like the DaisySeed or DaisyPatchSM (or any 
  12:/home/nahomts/Documents/DaisyExamples/libDaisy/src/hid/audio.h ****  *            board that includes one of those objects) then the intialization
  13:/home/nahomts/Documents/DaisyExamples/libDaisy/src/hid/audio.h ****  *            is already taken  care of.
  14:/home/nahomts/Documents/DaisyExamples/libDaisy/src/hid/audio.h ****  *           If you're setting up your own custom hardware, or need to make changes
  15:/home/nahomts/Documents/DaisyExamples/libDaisy/src/hid/audio.h ****  *           you will have to take the following steps:
  16:/home/nahomts/Documents/DaisyExamples/libDaisy/src/hid/audio.h ****  *             1. Create and Initialize an SaiHandle or two depending on your requirements
  17:/home/nahomts/Documents/DaisyExamples/libDaisy/src/hid/audio.h ****  *             2. Initialize the Audio Handle with the desired settings and the Initialized SaiHand
ARM GAS  /tmp/ccyyZOVG.s 			page 7


  18:/home/nahomts/Documents/DaisyExamples/libDaisy/src/hid/audio.h ****  *             3. If the connected codec requires special configuration or initialization, do so
  19:/home/nahomts/Documents/DaisyExamples/libDaisy/src/hid/audio.h ****  *             4. Write a callback method using either the AudioCallback or the InterleavingAudioCa
  20:/home/nahomts/Documents/DaisyExamples/libDaisy/src/hid/audio.h ****  *             5. Start the Audio using one of the StartAudio function
  21:/home/nahomts/Documents/DaisyExamples/libDaisy/src/hid/audio.h ****  */
  22:/home/nahomts/Documents/DaisyExamples/libDaisy/src/hid/audio.h **** class AudioHandle
  23:/home/nahomts/Documents/DaisyExamples/libDaisy/src/hid/audio.h **** {
  24:/home/nahomts/Documents/DaisyExamples/libDaisy/src/hid/audio.h ****   public:
  25:/home/nahomts/Documents/DaisyExamples/libDaisy/src/hid/audio.h ****     /** Manually configurable details about the Audio Engine */
  26:/home/nahomts/Documents/DaisyExamples/libDaisy/src/hid/audio.h ****     /** TODO: Figure out how to get samplerate in here. */
  27:/home/nahomts/Documents/DaisyExamples/libDaisy/src/hid/audio.h ****     struct Config
  28:/home/nahomts/Documents/DaisyExamples/libDaisy/src/hid/audio.h ****     {
  29:/home/nahomts/Documents/DaisyExamples/libDaisy/src/hid/audio.h ****         /** number of samples to process per callback */
  30:/home/nahomts/Documents/DaisyExamples/libDaisy/src/hid/audio.h ****         size_t blocksize;
  31:/home/nahomts/Documents/DaisyExamples/libDaisy/src/hid/audio.h **** 
  32:/home/nahomts/Documents/DaisyExamples/libDaisy/src/hid/audio.h ****         /**< Sample rate of audio */
  33:/home/nahomts/Documents/DaisyExamples/libDaisy/src/hid/audio.h ****         SaiHandle::Config::SampleRate samplerate;
  34:/home/nahomts/Documents/DaisyExamples/libDaisy/src/hid/audio.h **** 
  35:/home/nahomts/Documents/DaisyExamples/libDaisy/src/hid/audio.h ****         /** factor for adjustment before and after callback for hardware that may have extra headro
  36:/home/nahomts/Documents/DaisyExamples/libDaisy/src/hid/audio.h ****         float postgain;
  37:/home/nahomts/Documents/DaisyExamples/libDaisy/src/hid/audio.h **** 
  38:/home/nahomts/Documents/DaisyExamples/libDaisy/src/hid/audio.h ****         /** factor for additional one-sided compensation to audio path for hardware that may
  39:/home/nahomts/Documents/DaisyExamples/libDaisy/src/hid/audio.h ****          *  have unequal input/output ranges
  40:/home/nahomts/Documents/DaisyExamples/libDaisy/src/hid/audio.h ****          */
  41:/home/nahomts/Documents/DaisyExamples/libDaisy/src/hid/audio.h ****         float output_compensation;
  42:/home/nahomts/Documents/DaisyExamples/libDaisy/src/hid/audio.h **** 
  43:/home/nahomts/Documents/DaisyExamples/libDaisy/src/hid/audio.h ****         /** Sets default values for config struct */
  44:/home/nahomts/Documents/DaisyExamples/libDaisy/src/hid/audio.h ****         Config()
  45:/home/nahomts/Documents/DaisyExamples/libDaisy/src/hid/audio.h ****         : blocksize(48),
  46:/home/nahomts/Documents/DaisyExamples/libDaisy/src/hid/audio.h ****           samplerate(SaiHandle::Config::SampleRate::SAI_48KHZ),
  47:/home/nahomts/Documents/DaisyExamples/libDaisy/src/hid/audio.h ****           postgain(1.f),
  48:/home/nahomts/Documents/DaisyExamples/libDaisy/src/hid/audio.h ****           output_compensation(1.f)
  49:/home/nahomts/Documents/DaisyExamples/libDaisy/src/hid/audio.h ****         {
  50:/home/nahomts/Documents/DaisyExamples/libDaisy/src/hid/audio.h ****         }
  51:/home/nahomts/Documents/DaisyExamples/libDaisy/src/hid/audio.h ****     };
  52:/home/nahomts/Documents/DaisyExamples/libDaisy/src/hid/audio.h **** 
  53:/home/nahomts/Documents/DaisyExamples/libDaisy/src/hid/audio.h ****     enum class Result
  54:/home/nahomts/Documents/DaisyExamples/libDaisy/src/hid/audio.h ****     {
  55:/home/nahomts/Documents/DaisyExamples/libDaisy/src/hid/audio.h ****         OK,
  56:/home/nahomts/Documents/DaisyExamples/libDaisy/src/hid/audio.h ****         ERR,
  57:/home/nahomts/Documents/DaisyExamples/libDaisy/src/hid/audio.h ****     };
  58:/home/nahomts/Documents/DaisyExamples/libDaisy/src/hid/audio.h **** 
  59:/home/nahomts/Documents/DaisyExamples/libDaisy/src/hid/audio.h ****     /** Non-Interleaving input buffer
  60:/home/nahomts/Documents/DaisyExamples/libDaisy/src/hid/audio.h ****      * Buffer arranged by float[chn][sample] 
  61:/home/nahomts/Documents/DaisyExamples/libDaisy/src/hid/audio.h ****      * const so that the user can't modify the input
  62:/home/nahomts/Documents/DaisyExamples/libDaisy/src/hid/audio.h ****      */
  63:/home/nahomts/Documents/DaisyExamples/libDaisy/src/hid/audio.h ****     typedef const float* const* InputBuffer;
  64:/home/nahomts/Documents/DaisyExamples/libDaisy/src/hid/audio.h **** 
  65:/home/nahomts/Documents/DaisyExamples/libDaisy/src/hid/audio.h ****     /** Non-Interleaving output buffer
  66:/home/nahomts/Documents/DaisyExamples/libDaisy/src/hid/audio.h ****      * Arranged by float[chn][sample] 
  67:/home/nahomts/Documents/DaisyExamples/libDaisy/src/hid/audio.h ****      */
  68:/home/nahomts/Documents/DaisyExamples/libDaisy/src/hid/audio.h ****     typedef float** OutputBuffer;
  69:/home/nahomts/Documents/DaisyExamples/libDaisy/src/hid/audio.h **** 
  70:/home/nahomts/Documents/DaisyExamples/libDaisy/src/hid/audio.h ****     /** Type for a Non-Interleaving audio callback 
  71:/home/nahomts/Documents/DaisyExamples/libDaisy/src/hid/audio.h ****      * Non-Interleaving audio callbacks in daisy will be of this type
  72:/home/nahomts/Documents/DaisyExamples/libDaisy/src/hid/audio.h ****      */
  73:/home/nahomts/Documents/DaisyExamples/libDaisy/src/hid/audio.h ****     typedef void (*AudioCallback)(InputBuffer  in,
  74:/home/nahomts/Documents/DaisyExamples/libDaisy/src/hid/audio.h ****                                   OutputBuffer out,
ARM GAS  /tmp/ccyyZOVG.s 			page 8


  75:/home/nahomts/Documents/DaisyExamples/libDaisy/src/hid/audio.h ****                                   size_t       size);
  76:/home/nahomts/Documents/DaisyExamples/libDaisy/src/hid/audio.h **** 
  77:/home/nahomts/Documents/DaisyExamples/libDaisy/src/hid/audio.h ****     /** Interleaving Input buffer
  78:/home/nahomts/Documents/DaisyExamples/libDaisy/src/hid/audio.h ****      ** audio is prepared as { L0, R0, L1, R1, . . . LN, RN }]
  79:/home/nahomts/Documents/DaisyExamples/libDaisy/src/hid/audio.h ****      ** this is const, as the user shouldn't modify it
  80:/home/nahomts/Documents/DaisyExamples/libDaisy/src/hid/audio.h ****     */
  81:/home/nahomts/Documents/DaisyExamples/libDaisy/src/hid/audio.h ****     typedef const float* InterleavingInputBuffer;
  82:/home/nahomts/Documents/DaisyExamples/libDaisy/src/hid/audio.h **** 
  83:/home/nahomts/Documents/DaisyExamples/libDaisy/src/hid/audio.h ****     /** Interleaving Output buffer 
  84:/home/nahomts/Documents/DaisyExamples/libDaisy/src/hid/audio.h ****      ** audio is prepared as { L0, R0, L1, R1, . . . LN, RN }
  85:/home/nahomts/Documents/DaisyExamples/libDaisy/src/hid/audio.h ****     */
  86:/home/nahomts/Documents/DaisyExamples/libDaisy/src/hid/audio.h ****     typedef float* InterleavingOutputBuffer;
  87:/home/nahomts/Documents/DaisyExamples/libDaisy/src/hid/audio.h **** 
  88:/home/nahomts/Documents/DaisyExamples/libDaisy/src/hid/audio.h ****     /** Interleaving Audio Callback 
  89:/home/nahomts/Documents/DaisyExamples/libDaisy/src/hid/audio.h ****      * Interleaving audio callbacks in daisy must be of this type
  90:/home/nahomts/Documents/DaisyExamples/libDaisy/src/hid/audio.h ****      */
  91:/home/nahomts/Documents/DaisyExamples/libDaisy/src/hid/audio.h ****     typedef void (*InterleavingAudioCallback)(InterleavingInputBuffer  in,
  92:/home/nahomts/Documents/DaisyExamples/libDaisy/src/hid/audio.h ****                                               InterleavingOutputBuffer out,
  93:/home/nahomts/Documents/DaisyExamples/libDaisy/src/hid/audio.h ****                                               size_t                   size);
  94:/home/nahomts/Documents/DaisyExamples/libDaisy/src/hid/audio.h **** 
  95:/home/nahomts/Documents/DaisyExamples/libDaisy/src/hid/audio.h ****     AudioHandle() : pimpl_(nullptr) {}
  96:/home/nahomts/Documents/DaisyExamples/libDaisy/src/hid/audio.h ****     ~AudioHandle() {}
  56              		.loc 5 96 5 is_stmt 1 view .LVU7
  57              		.loc 5 96 5 is_stmt 0 view .LVU8
  58              	.LBE99:
  59              		.loc 1 22 19 view .LVU9
  60 0000 7047     		bx	lr
  61              		.cfi_endproc
  62              	.LFE2555:
  64              		.weak	_ZN5daisy9DaisySeedD1Ev
  65              		.thumb_set _ZN5daisy9DaisySeedD1Ev,_ZN5daisy9DaisySeedD2Ev
  66 0002 00BF     		.section	.rodata.main.str1.4,"aMS",%progbits,1
  67              		.align	2
  68              	.LC2:
  69 0000 48656C6C 		.ascii	"Hello World\012\000"
  69      6F20576F 
  69      726C640A 
  69      00
  70 000d 000000   		.align	2
  71              	.LC3:
  72 0010 49324320 		.ascii	"I2C Init Failed!\012\000"
  72      496E6974 
  72      20466169 
  72      6C656421 
  72      0A00
  73 0022 0000     		.align	2
  74              	.LC4:
  75 0024 49324320 		.ascii	"I2C Init OK\012\000"
  75      496E6974 
  75      204F4B0A 
  75      00
  76 0031 000000   		.align	2
  77              	.LC5:
  78 0034 25303278 		.ascii	"%02x \000"
  78      2000
  79 003a 0000     		.align	2
  80              	.LC6:
ARM GAS  /tmp/ccyyZOVG.s 			page 9


  81 003c 0A00     		.ascii	"\012\000"
  82              		.section	.text.startup.main,"ax",%progbits
  83              		.align	1
  84              		.p2align 2,,3
  85              		.global	main
  86              		.syntax unified
  87              		.thumb
  88              		.thumb_func
  89              		.fpu fpv5-d16
  91              	main:
  92              	.LFB4681:
  93              		.file 6 "main.cpp"
   1:main.cpp      **** #include "daisy_seed.h"
   2:main.cpp      **** #include "daisysp.h"
   3:main.cpp      **** #include "i2c.h"
   4:main.cpp      **** 
   5:main.cpp      **** using namespace daisy;
   6:main.cpp      **** using namespace daisysp;
   7:main.cpp      **** 
   8:main.cpp      **** DaisySeed hardware;
   9:main.cpp      **** I2CHandle i2c1_handle;     // Single declaration
  10:main.cpp      **** uint8_t buffer[14];        // 14-byte buffer
  11:main.cpp      **** 
  12:main.cpp      **** int main() {
  94              		.loc 6 12 12 is_stmt 1 view -0
  95              		.cfi_startproc
  96              		@ args = 0, pretend = 0, frame = 24
  97              		@ frame_needed = 0, uses_anonymous_args = 0
  13:main.cpp      ****     hardware.Init();
  98              		.loc 6 13 5 view .LVU11
  12:main.cpp      ****     hardware.Init();
  99              		.loc 6 12 12 is_stmt 0 view .LVU12
 100 0000 30B5     		push	{r4, r5, lr}
 101              		.cfi_def_cfa_offset 12
 102              		.cfi_offset 4, -12
 103              		.cfi_offset 5, -8
 104              		.cfi_offset 14, -4
 105              		.loc 6 13 18 view .LVU13
 106 0002 0021     		movs	r1, #0
  12:main.cpp      ****     hardware.Init();
 107              		.loc 6 12 12 view .LVU14
 108 0004 89B0     		sub	sp, sp, #36
 109              		.cfi_def_cfa_offset 48
 110              		.loc 6 13 18 view .LVU15
 111 0006 1E48     		ldr	r0, .L12
  14:main.cpp      ****     hardware.StartLog(true);
  15:main.cpp      ****     hardware.Print("Hello World\n");
  16:main.cpp      **** 
  17:main.cpp      ****     I2CHandle::Config i2c1_conf;
  18:main.cpp      ****     i2c1_conf.periph             = I2CHandle::Config::Peripheral::I2C_1;
  19:main.cpp      ****     i2c1_conf.mode               = I2CHandle::Config::Mode::I2C_SLAVE;
 112              		.loc 6 19 34 view .LVU16
 113 0008 0124     		movs	r4, #1
  13:main.cpp      ****     hardware.StartLog(true);
 114              		.loc 6 13 18 view .LVU17
 115 000a FFF7FEFF 		bl	_ZN5daisy9DaisySeed4InitEb
 116              	.LVL1:
ARM GAS  /tmp/ccyyZOVG.s 			page 10


  14:main.cpp      ****     hardware.StartLog(true);
 117              		.loc 6 14 5 is_stmt 1 view .LVU18
 118              	.LBB100:
 119              	.LBI100:
  23:/home/nahomts/Documents/DaisyExamples/libDaisy/src/daisy_seed.h **** 
  24:/home/nahomts/Documents/DaisyExamples/libDaisy/src/daisy_seed.h ****     /** This function used to provide a pre-initialization configuraiton 
  25:/home/nahomts/Documents/DaisyExamples/libDaisy/src/daisy_seed.h ****      *  it has since been deprecated, and does nothing.
  26:/home/nahomts/Documents/DaisyExamples/libDaisy/src/daisy_seed.h ****      */
  27:/home/nahomts/Documents/DaisyExamples/libDaisy/src/daisy_seed.h ****     void Configure();
  28:/home/nahomts/Documents/DaisyExamples/libDaisy/src/daisy_seed.h **** 
  29:/home/nahomts/Documents/DaisyExamples/libDaisy/src/daisy_seed.h ****     /** 
  30:/home/nahomts/Documents/DaisyExamples/libDaisy/src/daisy_seed.h ****     Initializes the Daisy Seed and the following peripherals:
  31:/home/nahomts/Documents/DaisyExamples/libDaisy/src/daisy_seed.h ****     SDRAM, QSPI, 24-bit 48kHz Audio via AK4556, Internal USB,
  32:/home/nahomts/Documents/DaisyExamples/libDaisy/src/daisy_seed.h ****     as well as the built-in LED and Testpoint.
  33:/home/nahomts/Documents/DaisyExamples/libDaisy/src/daisy_seed.h **** 
  34:/home/nahomts/Documents/DaisyExamples/libDaisy/src/daisy_seed.h ****     ADCs, DACs, and other special peripherals (such as I2C, SPI, etc.)
  35:/home/nahomts/Documents/DaisyExamples/libDaisy/src/daisy_seed.h ****     can be initialized using their specific initializers within libdaisy
  36:/home/nahomts/Documents/DaisyExamples/libDaisy/src/daisy_seed.h ****     for a specific application.
  37:/home/nahomts/Documents/DaisyExamples/libDaisy/src/daisy_seed.h ****     */
  38:/home/nahomts/Documents/DaisyExamples/libDaisy/src/daisy_seed.h ****     void Init(bool boost = false);
  39:/home/nahomts/Documents/DaisyExamples/libDaisy/src/daisy_seed.h **** 
  40:/home/nahomts/Documents/DaisyExamples/libDaisy/src/daisy_seed.h ****     /** 
  41:/home/nahomts/Documents/DaisyExamples/libDaisy/src/daisy_seed.h ****     Deinitializes all peripherals automatically handled by `Init`.
  42:/home/nahomts/Documents/DaisyExamples/libDaisy/src/daisy_seed.h ****     */
  43:/home/nahomts/Documents/DaisyExamples/libDaisy/src/daisy_seed.h ****     void DeInit();
  44:/home/nahomts/Documents/DaisyExamples/libDaisy/src/daisy_seed.h **** 
  45:/home/nahomts/Documents/DaisyExamples/libDaisy/src/daisy_seed.h ****     /** 
  46:/home/nahomts/Documents/DaisyExamples/libDaisy/src/daisy_seed.h ****     Wait some ms before going on.
  47:/home/nahomts/Documents/DaisyExamples/libDaisy/src/daisy_seed.h ****     \param del Delay time in ms.
  48:/home/nahomts/Documents/DaisyExamples/libDaisy/src/daisy_seed.h ****     */
  49:/home/nahomts/Documents/DaisyExamples/libDaisy/src/daisy_seed.h ****     void DelayMs(size_t del);
  50:/home/nahomts/Documents/DaisyExamples/libDaisy/src/daisy_seed.h **** 
  51:/home/nahomts/Documents/DaisyExamples/libDaisy/src/daisy_seed.h ****     /** 
  52:/home/nahomts/Documents/DaisyExamples/libDaisy/src/daisy_seed.h ****     Returns the gpio_pin corresponding to the index 0-31.
  53:/home/nahomts/Documents/DaisyExamples/libDaisy/src/daisy_seed.h ****     For the given GPIO on the Daisy Seed (labeled 1-32 in docs).
  54:/home/nahomts/Documents/DaisyExamples/libDaisy/src/daisy_seed.h ****     */
  55:/home/nahomts/Documents/DaisyExamples/libDaisy/src/daisy_seed.h ****     static dsy_gpio_pin GetPin(uint8_t pin_idx);
  56:/home/nahomts/Documents/DaisyExamples/libDaisy/src/daisy_seed.h **** 
  57:/home/nahomts/Documents/DaisyExamples/libDaisy/src/daisy_seed.h ****     /** Begins the audio for the seeds builtin audio.
  58:/home/nahomts/Documents/DaisyExamples/libDaisy/src/daisy_seed.h ****     the specified callback will get called whenever
  59:/home/nahomts/Documents/DaisyExamples/libDaisy/src/daisy_seed.h ****     new data is ready to be prepared.
  60:/home/nahomts/Documents/DaisyExamples/libDaisy/src/daisy_seed.h ****     */
  61:/home/nahomts/Documents/DaisyExamples/libDaisy/src/daisy_seed.h ****     void StartAudio(AudioHandle::InterleavingAudioCallback cb);
  62:/home/nahomts/Documents/DaisyExamples/libDaisy/src/daisy_seed.h **** 
  63:/home/nahomts/Documents/DaisyExamples/libDaisy/src/daisy_seed.h ****     /** Begins the audio for the seeds builtin audio.
  64:/home/nahomts/Documents/DaisyExamples/libDaisy/src/daisy_seed.h ****     the specified callback will get called whenever
  65:/home/nahomts/Documents/DaisyExamples/libDaisy/src/daisy_seed.h ****     new data is ready to be prepared.
  66:/home/nahomts/Documents/DaisyExamples/libDaisy/src/daisy_seed.h ****     This will use the newer non-interleaved callback.
  67:/home/nahomts/Documents/DaisyExamples/libDaisy/src/daisy_seed.h ****     */
  68:/home/nahomts/Documents/DaisyExamples/libDaisy/src/daisy_seed.h ****     void StartAudio(AudioHandle::AudioCallback cb);
  69:/home/nahomts/Documents/DaisyExamples/libDaisy/src/daisy_seed.h **** 
  70:/home/nahomts/Documents/DaisyExamples/libDaisy/src/daisy_seed.h ****     /** Changes to a new interleaved callback
  71:/home/nahomts/Documents/DaisyExamples/libDaisy/src/daisy_seed.h ****      */
  72:/home/nahomts/Documents/DaisyExamples/libDaisy/src/daisy_seed.h ****     void ChangeAudioCallback(AudioHandle::InterleavingAudioCallback cb);
  73:/home/nahomts/Documents/DaisyExamples/libDaisy/src/daisy_seed.h **** 
  74:/home/nahomts/Documents/DaisyExamples/libDaisy/src/daisy_seed.h ****     /** Changes to a new multichannel callback
  75:/home/nahomts/Documents/DaisyExamples/libDaisy/src/daisy_seed.h ****      */
ARM GAS  /tmp/ccyyZOVG.s 			page 11


  76:/home/nahomts/Documents/DaisyExamples/libDaisy/src/daisy_seed.h ****     void ChangeAudioCallback(AudioHandle::AudioCallback cb);
  77:/home/nahomts/Documents/DaisyExamples/libDaisy/src/daisy_seed.h **** 
  78:/home/nahomts/Documents/DaisyExamples/libDaisy/src/daisy_seed.h ****     /** Stops the audio if it is running. */
  79:/home/nahomts/Documents/DaisyExamples/libDaisy/src/daisy_seed.h ****     void StopAudio();
  80:/home/nahomts/Documents/DaisyExamples/libDaisy/src/daisy_seed.h **** 
  81:/home/nahomts/Documents/DaisyExamples/libDaisy/src/daisy_seed.h ****     /** Updates the Audio Sample Rate, and reinitializes.
  82:/home/nahomts/Documents/DaisyExamples/libDaisy/src/daisy_seed.h ****      ** Audio must be stopped for this to work.
  83:/home/nahomts/Documents/DaisyExamples/libDaisy/src/daisy_seed.h ****      */
  84:/home/nahomts/Documents/DaisyExamples/libDaisy/src/daisy_seed.h ****     void SetAudioSampleRate(SaiHandle::Config::SampleRate samplerate);
  85:/home/nahomts/Documents/DaisyExamples/libDaisy/src/daisy_seed.h **** 
  86:/home/nahomts/Documents/DaisyExamples/libDaisy/src/daisy_seed.h ****     /** Returns the audio sample rate in Hz as a floating point number.
  87:/home/nahomts/Documents/DaisyExamples/libDaisy/src/daisy_seed.h ****      */
  88:/home/nahomts/Documents/DaisyExamples/libDaisy/src/daisy_seed.h ****     float AudioSampleRate();
  89:/home/nahomts/Documents/DaisyExamples/libDaisy/src/daisy_seed.h **** 
  90:/home/nahomts/Documents/DaisyExamples/libDaisy/src/daisy_seed.h ****     /** Sets the number of samples processed per channel by the audio callback.
  91:/home/nahomts/Documents/DaisyExamples/libDaisy/src/daisy_seed.h ****      */
  92:/home/nahomts/Documents/DaisyExamples/libDaisy/src/daisy_seed.h ****     void SetAudioBlockSize(size_t blocksize);
  93:/home/nahomts/Documents/DaisyExamples/libDaisy/src/daisy_seed.h **** 
  94:/home/nahomts/Documents/DaisyExamples/libDaisy/src/daisy_seed.h ****     /** Returns the number of samples per channel in a block of audio. */
  95:/home/nahomts/Documents/DaisyExamples/libDaisy/src/daisy_seed.h ****     size_t AudioBlockSize();
  96:/home/nahomts/Documents/DaisyExamples/libDaisy/src/daisy_seed.h **** 
  97:/home/nahomts/Documents/DaisyExamples/libDaisy/src/daisy_seed.h ****     /** Returns the rate in Hz that the Audio callback is called */
  98:/home/nahomts/Documents/DaisyExamples/libDaisy/src/daisy_seed.h ****     float AudioCallbackRate() const;
  99:/home/nahomts/Documents/DaisyExamples/libDaisy/src/daisy_seed.h **** 
 100:/home/nahomts/Documents/DaisyExamples/libDaisy/src/daisy_seed.h ****     /** Returns the SAI Handle for the Daisy Seed 
 101:/home/nahomts/Documents/DaisyExamples/libDaisy/src/daisy_seed.h ****      *  This can be useful when adding a secondary codec,
 102:/home/nahomts/Documents/DaisyExamples/libDaisy/src/daisy_seed.h ****      *  the result of this function can be passed to the audio reinit 
 103:/home/nahomts/Documents/DaisyExamples/libDaisy/src/daisy_seed.h ****      *  with an SAI2 configuration
 104:/home/nahomts/Documents/DaisyExamples/libDaisy/src/daisy_seed.h ****      */
 105:/home/nahomts/Documents/DaisyExamples/libDaisy/src/daisy_seed.h ****     const SaiHandle& AudioSaiHandle() const;
 106:/home/nahomts/Documents/DaisyExamples/libDaisy/src/daisy_seed.h **** 
 107:/home/nahomts/Documents/DaisyExamples/libDaisy/src/daisy_seed.h ****     /** Sets the state of the built in LED
 108:/home/nahomts/Documents/DaisyExamples/libDaisy/src/daisy_seed.h ****      */
 109:/home/nahomts/Documents/DaisyExamples/libDaisy/src/daisy_seed.h ****     void SetLed(bool state);
 110:/home/nahomts/Documents/DaisyExamples/libDaisy/src/daisy_seed.h **** 
 111:/home/nahomts/Documents/DaisyExamples/libDaisy/src/daisy_seed.h ****     /** Sets the state of the test point near pin 10
 112:/home/nahomts/Documents/DaisyExamples/libDaisy/src/daisy_seed.h ****      */
 113:/home/nahomts/Documents/DaisyExamples/libDaisy/src/daisy_seed.h ****     void SetTestPoint(bool state);
 114:/home/nahomts/Documents/DaisyExamples/libDaisy/src/daisy_seed.h **** 
 115:/home/nahomts/Documents/DaisyExamples/libDaisy/src/daisy_seed.h ****     /** Print formatted debug log message
 116:/home/nahomts/Documents/DaisyExamples/libDaisy/src/daisy_seed.h ****      */
 117:/home/nahomts/Documents/DaisyExamples/libDaisy/src/daisy_seed.h ****     template <typename... VA>
 118:/home/nahomts/Documents/DaisyExamples/libDaisy/src/daisy_seed.h ****     static void Print(const char* format, VA... va)
 119:/home/nahomts/Documents/DaisyExamples/libDaisy/src/daisy_seed.h ****     {
 120:/home/nahomts/Documents/DaisyExamples/libDaisy/src/daisy_seed.h ****         Log::Print(format, va...);
 121:/home/nahomts/Documents/DaisyExamples/libDaisy/src/daisy_seed.h ****     }
 122:/home/nahomts/Documents/DaisyExamples/libDaisy/src/daisy_seed.h **** 
 123:/home/nahomts/Documents/DaisyExamples/libDaisy/src/daisy_seed.h ****     /** Print formatted debug log message with automatic line termination
 124:/home/nahomts/Documents/DaisyExamples/libDaisy/src/daisy_seed.h ****     */
 125:/home/nahomts/Documents/DaisyExamples/libDaisy/src/daisy_seed.h ****     template <typename... VA>
 126:/home/nahomts/Documents/DaisyExamples/libDaisy/src/daisy_seed.h ****     static void PrintLine(const char* format, VA... va)
 127:/home/nahomts/Documents/DaisyExamples/libDaisy/src/daisy_seed.h ****     {
 128:/home/nahomts/Documents/DaisyExamples/libDaisy/src/daisy_seed.h ****         Log::PrintLine(format, va...);
 129:/home/nahomts/Documents/DaisyExamples/libDaisy/src/daisy_seed.h ****     }
 130:/home/nahomts/Documents/DaisyExamples/libDaisy/src/daisy_seed.h **** 
 131:/home/nahomts/Documents/DaisyExamples/libDaisy/src/daisy_seed.h ****     /** Start the logging session. Optionally wait for terminal connection before proceeding.
 132:/home/nahomts/Documents/DaisyExamples/libDaisy/src/daisy_seed.h ****     */
ARM GAS  /tmp/ccyyZOVG.s 			page 12


 133:/home/nahomts/Documents/DaisyExamples/libDaisy/src/daisy_seed.h ****     static void StartLog(bool wait_for_pc = false)
 120              		.loc 1 133 17 view .LVU19
 121              	.LBB101:
 134:/home/nahomts/Documents/DaisyExamples/libDaisy/src/daisy_seed.h ****     {
 135:/home/nahomts/Documents/DaisyExamples/libDaisy/src/daisy_seed.h ****         Log::StartLog(wait_for_pc);
 122              		.loc 1 135 9 view .LVU20
 123              		.loc 1 135 22 is_stmt 0 view .LVU21
 124 000e 0120     		movs	r0, #1
 125 0010 FFF7FEFF 		bl	_ZN5daisy6LoggerILNS_17LoggerDestinationE1EE8StartLogEb
 126              	.LVL2:
 127              		.loc 1 135 22 view .LVU22
 128              	.LBE101:
 129              	.LBE100:
  15:main.cpp      **** 
 130              		.loc 6 15 5 is_stmt 1 view .LVU23
 131              	.LBB102:
 132              	.LBI102:
 118:/home/nahomts/Documents/DaisyExamples/libDaisy/src/daisy_seed.h ****     {
 133              		.loc 1 118 17 view .LVU24
 134              	.LBB103:
 120:/home/nahomts/Documents/DaisyExamples/libDaisy/src/daisy_seed.h ****     }
 135              		.loc 1 120 19 is_stmt 0 view .LVU25
 136 0014 1B48     		ldr	r0, .L12+4
 137 0016 FFF7FEFF 		bl	_ZN5daisy6LoggerILNS_17LoggerDestinationE1EE5PrintEPKcz
 138              	.LVL3:
 120:/home/nahomts/Documents/DaisyExamples/libDaisy/src/daisy_seed.h ****     }
 139              		.loc 1 120 19 view .LVU26
 140              	.LBE103:
 141              	.LBE102:
  17:main.cpp      ****     i2c1_conf.periph             = I2CHandle::Config::Peripheral::I2C_1;
 142              		.loc 6 17 5 is_stmt 1 view .LVU27
 143              	.LBB104:
 144              	.LBI104:
 145              		.file 7 "/home/nahomts/Documents/DaisyExamples/libDaisy/src/per/i2c.h"
   1:/home/nahomts/Documents/DaisyExamples/libDaisy/src/per/i2c.h **** #pragma once
   2:/home/nahomts/Documents/DaisyExamples/libDaisy/src/per/i2c.h **** #include "daisy_core.h"
   3:/home/nahomts/Documents/DaisyExamples/libDaisy/src/per/i2c.h **** 
   4:/home/nahomts/Documents/DaisyExamples/libDaisy/src/per/i2c.h **** namespace daisy
   5:/home/nahomts/Documents/DaisyExamples/libDaisy/src/per/i2c.h **** {
   6:/home/nahomts/Documents/DaisyExamples/libDaisy/src/per/i2c.h **** /** A handle for interacting with an I2C peripheral. This is a dumb
   7:/home/nahomts/Documents/DaisyExamples/libDaisy/src/per/i2c.h ****  *  gateway that internally points to one of the four I2C peripherals
   8:/home/nahomts/Documents/DaisyExamples/libDaisy/src/per/i2c.h ****  *  after it was initialised. It can then be copied and passed around.
   9:/home/nahomts/Documents/DaisyExamples/libDaisy/src/per/i2c.h ****  *  Use an I2CHandle like this:
  10:/home/nahomts/Documents/DaisyExamples/libDaisy/src/per/i2c.h ****  *  
  11:/home/nahomts/Documents/DaisyExamples/libDaisy/src/per/i2c.h ****  *      // setup the configuration
  12:/home/nahomts/Documents/DaisyExamples/libDaisy/src/per/i2c.h ****  *      I2CHandle::Config i2c_conf;
  13:/home/nahomts/Documents/DaisyExamples/libDaisy/src/per/i2c.h ****  *      i2c_conf.periph = I2CHandle::Config::Peripheral::I2C_1;
  14:/home/nahomts/Documents/DaisyExamples/libDaisy/src/per/i2c.h ****  *      i2c_conf.speed  = I2CHandle::Config::Speed::I2C_400KHZ;
  15:/home/nahomts/Documents/DaisyExamples/libDaisy/src/per/i2c.h ****  *      i2c_conf.mode   = I2CHandle::Config::Mode::Master;
  16:/home/nahomts/Documents/DaisyExamples/libDaisy/src/per/i2c.h ****  *      i2c_conf.pin_config.scl  = {DSY_GPIOB, 8};
  17:/home/nahomts/Documents/DaisyExamples/libDaisy/src/per/i2c.h ****  *      i2c_conf.pin_config.sda  = {DSY_GPIOB, 9};
  18:/home/nahomts/Documents/DaisyExamples/libDaisy/src/per/i2c.h ****  *      // initialise the peripheral
  19:/home/nahomts/Documents/DaisyExamples/libDaisy/src/per/i2c.h ****  *      I2CHandle i2c;
  20:/home/nahomts/Documents/DaisyExamples/libDaisy/src/per/i2c.h ****  *      i2c.Init(i2c_conf);
  21:/home/nahomts/Documents/DaisyExamples/libDaisy/src/per/i2c.h ****  *      // now i2c points to the corresponding peripheral and can be used.
  22:/home/nahomts/Documents/DaisyExamples/libDaisy/src/per/i2c.h ****  *      i2c.TransmitBlocking( ... );
  23:/home/nahomts/Documents/DaisyExamples/libDaisy/src/per/i2c.h ****  */
ARM GAS  /tmp/ccyyZOVG.s 			page 13


  24:/home/nahomts/Documents/DaisyExamples/libDaisy/src/per/i2c.h **** class I2CHandle
  25:/home/nahomts/Documents/DaisyExamples/libDaisy/src/per/i2c.h **** {
  26:/home/nahomts/Documents/DaisyExamples/libDaisy/src/per/i2c.h ****   public:
  27:/home/nahomts/Documents/DaisyExamples/libDaisy/src/per/i2c.h ****     /** Contains settings for initialising an I2C interface. */
  28:/home/nahomts/Documents/DaisyExamples/libDaisy/src/per/i2c.h ****     struct Config
 146              		.loc 7 28 12 view .LVU28
 147              	.LBE104:
  20:main.cpp      ****     i2c1_conf.speed              = I2CHandle::Config::Speed::I2C_100KHZ;
  21:main.cpp      ****     i2c1_conf.pin_config.scl     = seed::D13; // PB8 - correct I2C1 SCL
 148              		.loc 6 21 34 is_stmt 0 view .LVU29
 149 001a 1B4A     		ldr	r2, .L12+8
 150              	.LBB107:
 151              	.LBB105:
 152              		.loc 7 28 12 view .LVU30
 153 001c 1021     		movs	r1, #16
 154              	.LBE105:
 155              	.LBE107:
  18:main.cpp      ****     i2c1_conf.mode               = I2CHandle::Config::Mode::I2C_SLAVE;
 156              		.loc 6 18 34 view .LVU31
 157 001e 0023     		movs	r3, #0
 158              		.loc 6 21 34 view .LVU32
 159 0020 1088     		ldrh	r0, [r2]
  22:main.cpp      ****     i2c1_conf.pin_config.sda     = seed::D14; // PB9 - correct I2C1 SDA
 160              		.loc 6 22 34 view .LVU33
 161 0022 9288     		ldrh	r2, [r2, #4]
 162              	.LBB108:
 163              	.LBB106:
 164              		.loc 7 28 12 view .LVU34
 165 0024 8DF81C10 		strb	r1, [sp, #28]
 166              	.LVL4:
 167              		.loc 7 28 12 view .LVU35
 168              	.LBE106:
 169              	.LBE108:
  18:main.cpp      ****     i2c1_conf.mode               = I2CHandle::Config::Mode::I2C_SLAVE;
 170              		.loc 6 18 5 is_stmt 1 view .LVU36
  23:main.cpp      ****     i2c1_conf.address            = 0x10;
  24:main.cpp      **** 
  25:main.cpp      ****     if (i2c1_handle.Init(i2c1_conf) != I2CHandle::Result::OK) {
 171              		.loc 6 25 25 is_stmt 0 view .LVU37
 172 0028 03A9     		add	r1, sp, #12
  21:main.cpp      ****     i2c1_conf.pin_config.sda     = seed::D14; // PB9 - correct I2C1 SDA
 173              		.loc 6 21 34 view .LVU38
 174 002a ADF81000 		strh	r0, [sp, #16]	@ movhi
 175              		.loc 6 25 25 view .LVU39
 176 002e 1748     		ldr	r0, .L12+12
  18:main.cpp      ****     i2c1_conf.mode               = I2CHandle::Config::Mode::I2C_SLAVE;
 177              		.loc 6 18 34 view .LVU40
 178 0030 0393     		str	r3, [sp, #12]
  19:main.cpp      ****     i2c1_conf.speed              = I2CHandle::Config::Speed::I2C_100KHZ;
 179              		.loc 6 19 5 is_stmt 1 view .LVU41
  22:main.cpp      ****     i2c1_conf.address            = 0x10;
 180              		.loc 6 22 34 is_stmt 0 view .LVU42
 181 0032 ADF81220 		strh	r2, [sp, #18]	@ movhi
  20:main.cpp      ****     i2c1_conf.pin_config.scl     = seed::D13; // PB8 - correct I2C1 SCL
 182              		.loc 6 20 34 view .LVU43
 183 0036 CDE90534 		strd	r3, r4, [sp, #20]
  21:main.cpp      ****     i2c1_conf.pin_config.sda     = seed::D14; // PB9 - correct I2C1 SDA
ARM GAS  /tmp/ccyyZOVG.s 			page 14


 184              		.loc 6 21 5 is_stmt 1 view .LVU44
  22:main.cpp      ****     i2c1_conf.address            = 0x10;
 185              		.loc 6 22 5 view .LVU45
  23:main.cpp      **** 
 186              		.loc 6 23 5 view .LVU46
 187              		.loc 6 25 5 view .LVU47
 188              		.loc 6 25 25 is_stmt 0 view .LVU48
 189 003a FFF7FEFF 		bl	_ZN5daisy9I2CHandle4InitERKNS0_6ConfigE
 190              	.LVL5:
 191              		.loc 6 25 5 view .LVU49
 192 003e D0B1     		cbz	r0, .L4
  26:main.cpp      ****         hardware.Print("I2C Init Failed!\n");
 193              		.loc 6 26 9 is_stmt 1 view .LVU50
 194              	.LVL6:
 195              	.LBB109:
 196              	.LBI109:
 118:/home/nahomts/Documents/DaisyExamples/libDaisy/src/daisy_seed.h ****     {
 197              		.loc 1 118 17 view .LVU51
 198              	.LBB110:
 120:/home/nahomts/Documents/DaisyExamples/libDaisy/src/daisy_seed.h ****     }
 199              		.loc 1 120 19 is_stmt 0 view .LVU52
 200 0040 1348     		ldr	r0, .L12+16
 201 0042 FFF7FEFF 		bl	_ZN5daisy6LoggerILNS_17LoggerDestinationE1EE5PrintEPKcz
 202              	.LVL7:
 203              	.L6:
 120:/home/nahomts/Documents/DaisyExamples/libDaisy/src/daisy_seed.h ****     }
 204              		.loc 1 120 19 view .LVU53
 205 0046 134D     		ldr	r5, .L12+20
 206              	.L7:
 207              	.LBE110:
 208              	.LBE109:
  27:main.cpp      ****     } else {
  28:main.cpp      ****         hardware.Print("I2C Init OK\n");
  29:main.cpp      ****     }
  30:main.cpp      **** 
  31:main.cpp      ****     while (true) {
 209              		.loc 6 31 5 is_stmt 1 view .LVU54
 210              	.LBB111:
  32:main.cpp      ****         I2CHandle::Result res = i2c1_handle.ReceiveBlocking(
 211              		.loc 6 32 9 view .LVU55
 212              		.loc 6 32 60 is_stmt 0 view .LVU56
 213 0048 4FF47A74 		mov	r4, #1000
 214 004c 0E23     		movs	r3, #14
 215 004e 124A     		ldr	r2, .L12+24
 216 0050 0021     		movs	r1, #0
 217 0052 0E48     		ldr	r0, .L12+12
 218 0054 0094     		str	r4, [sp]
 219 0056 FFF7FEFF 		bl	_ZN5daisy9I2CHandle15ReceiveBlockingEtPhtm
 220              	.LVL8:
  33:main.cpp      ****             0x00,    // Unused in slave mode
  34:main.cpp      ****             buffer,  // Use the 14-byte global buffer
  35:main.cpp      ****             14,      // Receive 14 bytes
  36:main.cpp      ****             1000
  37:main.cpp      ****         );
  38:main.cpp      **** 
  39:main.cpp      **** 
  40:main.cpp      ****         if (res == I2CHandle::Result::OK) {
ARM GAS  /tmp/ccyyZOVG.s 			page 15


 221              		.loc 6 40 9 is_stmt 1 view .LVU57
 222              	.LBB112:
 223 005a 0028     		cmp	r0, #0
 224 005c F4D1     		bne	.L7
 225 005e 0F4C     		ldr	r4, .L12+28
 226              	.LVL9:
 227              	.L8:
 228              	.LBB113:
 229              	.LBB114:
  41:main.cpp      ****             for (int i = 0; i < 14; i++) {
  42:main.cpp      ****                 hardware.Print("%02x ", buffer[i]);
 230              		.loc 6 42 17 discriminator 2 view .LVU58
 231              	.LBB115:
 232              	.LBI115:
 118:/home/nahomts/Documents/DaisyExamples/libDaisy/src/daisy_seed.h ****     {
 233              		.loc 1 118 17 discriminator 2 view .LVU59
 234              	.LBB116:
 120:/home/nahomts/Documents/DaisyExamples/libDaisy/src/daisy_seed.h ****     }
 235              		.loc 1 120 19 is_stmt 0 discriminator 2 view .LVU60
 236 0060 14F8011F 		ldrb	r1, [r4, #1]!	@ zero_extendqisi2
 237              	.LVL10:
 120:/home/nahomts/Documents/DaisyExamples/libDaisy/src/daisy_seed.h ****     }
 238              		.loc 1 120 19 discriminator 2 view .LVU61
 239 0064 0E48     		ldr	r0, .L12+32
 240 0066 FFF7FEFF 		bl	_ZN5daisy6LoggerILNS_17LoggerDestinationE1EE5PrintEPKcz
 241              	.LVL11:
 120:/home/nahomts/Documents/DaisyExamples/libDaisy/src/daisy_seed.h ****     }
 242              		.loc 1 120 19 discriminator 2 view .LVU62
 243              	.LBE116:
 244              	.LBE115:
  41:main.cpp      ****             for (int i = 0; i < 14; i++) {
 245              		.loc 6 41 13 is_stmt 1 discriminator 2 view .LVU63
  41:main.cpp      ****             for (int i = 0; i < 14; i++) {
 246              		.loc 6 41 31 discriminator 2 view .LVU64
 247 006a AC42     		cmp	r4, r5
 248 006c F8D1     		bne	.L8
 249              	.LBE114:
  43:main.cpp      ****             }
  44:main.cpp      ****             hardware.Print("\n");
 250              		.loc 6 44 13 view .LVU65
 251              	.LVL12:
 252              	.LBB117:
 253              	.LBI117:
 118:/home/nahomts/Documents/DaisyExamples/libDaisy/src/daisy_seed.h ****     {
 254              		.loc 1 118 17 view .LVU66
 255              	.LBB118:
 120:/home/nahomts/Documents/DaisyExamples/libDaisy/src/daisy_seed.h ****     }
 256              		.loc 1 120 19 is_stmt 0 view .LVU67
 257 006e 0D48     		ldr	r0, .L12+36
 258 0070 FFF7FEFF 		bl	_ZN5daisy6LoggerILNS_17LoggerDestinationE1EE5PrintEPKcz
 259              	.LVL13:
 121:/home/nahomts/Documents/DaisyExamples/libDaisy/src/daisy_seed.h **** 
 260              		.loc 1 121 5 view .LVU68
 261 0074 E8E7     		b	.L7
 262              	.LVL14:
 263              	.L4:
 121:/home/nahomts/Documents/DaisyExamples/libDaisy/src/daisy_seed.h **** 
ARM GAS  /tmp/ccyyZOVG.s 			page 16


 264              		.loc 1 121 5 view .LVU69
 265              	.LBE118:
 266              	.LBE117:
 267              	.LBE113:
 268              	.LBE112:
 269              	.LBE111:
  28:main.cpp      ****     }
 270              		.loc 6 28 9 is_stmt 1 view .LVU70
 271              	.LBB119:
 272              	.LBI119:
 118:/home/nahomts/Documents/DaisyExamples/libDaisy/src/daisy_seed.h ****     {
 273              		.loc 1 118 17 view .LVU71
 274              	.LBB120:
 120:/home/nahomts/Documents/DaisyExamples/libDaisy/src/daisy_seed.h ****     }
 275              		.loc 1 120 19 is_stmt 0 view .LVU72
 276 0076 0C48     		ldr	r0, .L12+40
 277 0078 FFF7FEFF 		bl	_ZN5daisy6LoggerILNS_17LoggerDestinationE1EE5PrintEPKcz
 278              	.LVL15:
 121:/home/nahomts/Documents/DaisyExamples/libDaisy/src/daisy_seed.h **** 
 279              		.loc 1 121 5 view .LVU73
 280 007c E3E7     		b	.L6
 281              	.L13:
 282 007e 00BF     		.align	2
 283              	.L12:
 284 0080 00000000 		.word	.LANCHOR0
 285 0084 00000000 		.word	.LC2
 286 0088 00000000 		.word	.LANCHOR1
 287 008c 00000000 		.word	.LANCHOR2
 288 0090 10000000 		.word	.LC3
 289 0094 0D000000 		.word	.LANCHOR3+13
 290 0098 00000000 		.word	.LANCHOR3
 291 009c FFFFFFFF 		.word	.LANCHOR3-1
 292 00a0 34000000 		.word	.LC5
 293 00a4 3C000000 		.word	.LC6
 294 00a8 24000000 		.word	.LC4
 295              	.LBE120:
 296              	.LBE119:
 297              		.cfi_endproc
 298              	.LFE4681:
 300              		.section	.text.startup._GLOBAL__sub_I_hardware,"ax",%progbits
 301              		.align	1
 302              		.p2align 2,,3
 303              		.syntax unified
 304              		.thumb
 305              		.thumb_func
 306              		.fpu fpv5-d16
 308              	_GLOBAL__sub_I_hardware:
 309              	.LFB5246:
  45:main.cpp      ****         }
  46:main.cpp      ****     }
  47:main.cpp      **** }...
 310              		.loc 6 47 1 is_stmt 1 view -0
 311              		.cfi_startproc
 312              		@ args = 0, pretend = 0, frame = 0
 313              		@ frame_needed = 0, uses_anonymous_args = 0
 314              	.LBB145:
 315              	.LBI145:
ARM GAS  /tmp/ccyyZOVG.s 			page 17


 316              		.loc 6 47 1 view .LVU75
 317              	.LVL16:
 318              	.LBB146:
 319              	.LBB147:
 320              	.LBI147:
  21:/home/nahomts/Documents/DaisyExamples/libDaisy/src/daisy_seed.h ****     ~DaisySeed() {}
 321              		.loc 1 21 5 view .LVU76
 322              	.LBB148:
 323              	.LBB149:
 324              	.LBI149:
 325              		.file 8 "/home/nahomts/Documents/DaisyExamples/libDaisy/src/per/qspi.h"
   1:/home/nahomts/Documents/DaisyExamples/libDaisy/src/per/qspi.h **** #ifndef DSY_QSPI
   2:/home/nahomts/Documents/DaisyExamples/libDaisy/src/per/qspi.h **** #define DSY_QSPI /**< Macro */
   3:/home/nahomts/Documents/DaisyExamples/libDaisy/src/per/qspi.h **** 
   4:/home/nahomts/Documents/DaisyExamples/libDaisy/src/per/qspi.h **** #ifndef UNIT_TEST // for unit tests, a dummy implementation
   5:/home/nahomts/Documents/DaisyExamples/libDaisy/src/per/qspi.h **** 
   6:/home/nahomts/Documents/DaisyExamples/libDaisy/src/per/qspi.h **** #include <cstdint>
   7:/home/nahomts/Documents/DaisyExamples/libDaisy/src/per/qspi.h **** #include "daisy_core.h" // Added for dsy_gpio_pin typedef
   8:/home/nahomts/Documents/DaisyExamples/libDaisy/src/per/qspi.h **** 
   9:/home/nahomts/Documents/DaisyExamples/libDaisy/src/per/qspi.h **** #define DSY_QSPI_TEXT       \
  10:/home/nahomts/Documents/DaisyExamples/libDaisy/src/per/qspi.h ****     __attribute__((section( \
  11:/home/nahomts/Documents/DaisyExamples/libDaisy/src/per/qspi.h ****         ".qspiflash_text"))) /**< used for reading memory in memory_mapped mode. */
  12:/home/nahomts/Documents/DaisyExamples/libDaisy/src/per/qspi.h **** #define DSY_QSPI_DATA       \
  13:/home/nahomts/Documents/DaisyExamples/libDaisy/src/per/qspi.h ****     __attribute__((section( \
  14:/home/nahomts/Documents/DaisyExamples/libDaisy/src/per/qspi.h ****         ".qspiflash_data"))) /**< used for reading memory in memory_mapped mode. */
  15:/home/nahomts/Documents/DaisyExamples/libDaisy/src/per/qspi.h **** #define DSY_QSPI_BSS        \
  16:/home/nahomts/Documents/DaisyExamples/libDaisy/src/per/qspi.h ****     __attribute__((section( \
  17:/home/nahomts/Documents/DaisyExamples/libDaisy/src/per/qspi.h ****         ".qspiflash_bss"))) /**< used for reading memory in memory_mapped mode. */
  18:/home/nahomts/Documents/DaisyExamples/libDaisy/src/per/qspi.h **** 
  19:/home/nahomts/Documents/DaisyExamples/libDaisy/src/per/qspi.h **** namespace daisy
  20:/home/nahomts/Documents/DaisyExamples/libDaisy/src/per/qspi.h **** {
  21:/home/nahomts/Documents/DaisyExamples/libDaisy/src/per/qspi.h **** /** @addtogroup serial
  22:/home/nahomts/Documents/DaisyExamples/libDaisy/src/per/qspi.h **** @{
  23:/home/nahomts/Documents/DaisyExamples/libDaisy/src/per/qspi.h **** */
  24:/home/nahomts/Documents/DaisyExamples/libDaisy/src/per/qspi.h **** 
  25:/home/nahomts/Documents/DaisyExamples/libDaisy/src/per/qspi.h **** /** 
  26:/home/nahomts/Documents/DaisyExamples/libDaisy/src/per/qspi.h ****  Driver for QSPI peripheral to interface with external flash memory. \n 
  27:/home/nahomts/Documents/DaisyExamples/libDaisy/src/per/qspi.h ****     Currently supported QSPI Devices: \n 
  28:/home/nahomts/Documents/DaisyExamples/libDaisy/src/per/qspi.h ****     * IS25LP080D
  29:/home/nahomts/Documents/DaisyExamples/libDaisy/src/per/qspi.h **** */
  30:/home/nahomts/Documents/DaisyExamples/libDaisy/src/per/qspi.h **** class QSPIHandle
  31:/home/nahomts/Documents/DaisyExamples/libDaisy/src/per/qspi.h **** {
  32:/home/nahomts/Documents/DaisyExamples/libDaisy/src/per/qspi.h ****   public:
  33:/home/nahomts/Documents/DaisyExamples/libDaisy/src/per/qspi.h ****     enum Result
  34:/home/nahomts/Documents/DaisyExamples/libDaisy/src/per/qspi.h ****     {
  35:/home/nahomts/Documents/DaisyExamples/libDaisy/src/per/qspi.h ****         OK = 0,
  36:/home/nahomts/Documents/DaisyExamples/libDaisy/src/per/qspi.h ****         ERR
  37:/home/nahomts/Documents/DaisyExamples/libDaisy/src/per/qspi.h ****     };
  38:/home/nahomts/Documents/DaisyExamples/libDaisy/src/per/qspi.h **** 
  39:/home/nahomts/Documents/DaisyExamples/libDaisy/src/per/qspi.h ****     /** Indicates the current status of the module. 
  40:/home/nahomts/Documents/DaisyExamples/libDaisy/src/per/qspi.h ****          *  Warnings are indicated by a leading W.
  41:/home/nahomts/Documents/DaisyExamples/libDaisy/src/per/qspi.h ****          *  Errors are indicated by a leading E and cause an immediate exit.
  42:/home/nahomts/Documents/DaisyExamples/libDaisy/src/per/qspi.h ****          * 
  43:/home/nahomts/Documents/DaisyExamples/libDaisy/src/per/qspi.h ****          *  \param GOOD - No errors have been reported.
  44:/home/nahomts/Documents/DaisyExamples/libDaisy/src/per/qspi.h ****          *  \param E_HAL_ERROR - HAL code did not return HAL_OK.
  45:/home/nahomts/Documents/DaisyExamples/libDaisy/src/per/qspi.h ****          *  \param E_SWITCHING_MODES - An error was encountered while switching QSPI peripheral mod
  46:/home/nahomts/Documents/DaisyExamples/libDaisy/src/per/qspi.h ****          *  \param E_INVALID_MODE - QSPI should not be written to while the program is executing fr
ARM GAS  /tmp/ccyyZOVG.s 			page 18


  47:/home/nahomts/Documents/DaisyExamples/libDaisy/src/per/qspi.h ****          */
  48:/home/nahomts/Documents/DaisyExamples/libDaisy/src/per/qspi.h ****     enum Status
  49:/home/nahomts/Documents/DaisyExamples/libDaisy/src/per/qspi.h ****     {
  50:/home/nahomts/Documents/DaisyExamples/libDaisy/src/per/qspi.h ****         GOOD = 0,
  51:/home/nahomts/Documents/DaisyExamples/libDaisy/src/per/qspi.h ****         E_HAL_ERROR,
  52:/home/nahomts/Documents/DaisyExamples/libDaisy/src/per/qspi.h ****         E_SWITCHING_MODES,
  53:/home/nahomts/Documents/DaisyExamples/libDaisy/src/per/qspi.h ****         E_INVALID_MODE,
  54:/home/nahomts/Documents/DaisyExamples/libDaisy/src/per/qspi.h ****     };
  55:/home/nahomts/Documents/DaisyExamples/libDaisy/src/per/qspi.h **** 
  56:/home/nahomts/Documents/DaisyExamples/libDaisy/src/per/qspi.h ****     /** Configuration structure for interfacing with QSPI Driver */
  57:/home/nahomts/Documents/DaisyExamples/libDaisy/src/per/qspi.h ****     struct Config
  58:/home/nahomts/Documents/DaisyExamples/libDaisy/src/per/qspi.h ****     {
  59:/home/nahomts/Documents/DaisyExamples/libDaisy/src/per/qspi.h ****         /** Flash Devices supported. (Both of these are more-or-less the same, just different sizes
  60:/home/nahomts/Documents/DaisyExamples/libDaisy/src/per/qspi.h ****         enum Device
  61:/home/nahomts/Documents/DaisyExamples/libDaisy/src/per/qspi.h ****         {
  62:/home/nahomts/Documents/DaisyExamples/libDaisy/src/per/qspi.h ****             IS25LP080D,  /**< & */
  63:/home/nahomts/Documents/DaisyExamples/libDaisy/src/per/qspi.h ****             IS25LP064A,  /**< & */
  64:/home/nahomts/Documents/DaisyExamples/libDaisy/src/per/qspi.h ****             DEVICE_LAST, /**< & */
  65:/home/nahomts/Documents/DaisyExamples/libDaisy/src/per/qspi.h ****         };
  66:/home/nahomts/Documents/DaisyExamples/libDaisy/src/per/qspi.h **** 
  67:/home/nahomts/Documents/DaisyExamples/libDaisy/src/per/qspi.h ****         /** 
  68:/home/nahomts/Documents/DaisyExamples/libDaisy/src/per/qspi.h ****         Modes of operation.
  69:/home/nahomts/Documents/DaisyExamples/libDaisy/src/per/qspi.h ****         Memory Mapped mode: QSPI configured so that the QSPI can be
  70:/home/nahomts/Documents/DaisyExamples/libDaisy/src/per/qspi.h ****         read from starting address 0x90000000. Writing is not
  71:/home/nahomts/Documents/DaisyExamples/libDaisy/src/per/qspi.h ****         possible in this mode. \n 
  72:/home/nahomts/Documents/DaisyExamples/libDaisy/src/per/qspi.h ****         Indirect Polling mode: Device driver enabled. 
  73:/home/nahomts/Documents/DaisyExamples/libDaisy/src/per/qspi.h ****         */
  74:/home/nahomts/Documents/DaisyExamples/libDaisy/src/per/qspi.h ****         enum Mode
  75:/home/nahomts/Documents/DaisyExamples/libDaisy/src/per/qspi.h ****         {
  76:/home/nahomts/Documents/DaisyExamples/libDaisy/src/per/qspi.h ****             MEMORY_MAPPED,    /**< & */
  77:/home/nahomts/Documents/DaisyExamples/libDaisy/src/per/qspi.h ****             INDIRECT_POLLING, /**< & */
  78:/home/nahomts/Documents/DaisyExamples/libDaisy/src/per/qspi.h ****             MODE_LAST,
  79:/home/nahomts/Documents/DaisyExamples/libDaisy/src/per/qspi.h ****         };
  80:/home/nahomts/Documents/DaisyExamples/libDaisy/src/per/qspi.h **** 
  81:/home/nahomts/Documents/DaisyExamples/libDaisy/src/per/qspi.h ****         //SCK,  CE# (active low)
  82:/home/nahomts/Documents/DaisyExamples/libDaisy/src/per/qspi.h ****         struct
  83:/home/nahomts/Documents/DaisyExamples/libDaisy/src/per/qspi.h ****         {
  84:/home/nahomts/Documents/DaisyExamples/libDaisy/src/per/qspi.h ****             dsy_gpio_pin io0; /**< & */
  85:/home/nahomts/Documents/DaisyExamples/libDaisy/src/per/qspi.h ****             dsy_gpio_pin io1; /**< & */
  86:/home/nahomts/Documents/DaisyExamples/libDaisy/src/per/qspi.h ****             dsy_gpio_pin io2; /**< & */
  87:/home/nahomts/Documents/DaisyExamples/libDaisy/src/per/qspi.h ****             dsy_gpio_pin io3; /**< & */
  88:/home/nahomts/Documents/DaisyExamples/libDaisy/src/per/qspi.h ****             dsy_gpio_pin clk; /**< & */
  89:/home/nahomts/Documents/DaisyExamples/libDaisy/src/per/qspi.h ****             dsy_gpio_pin ncs; /**< & */
  90:/home/nahomts/Documents/DaisyExamples/libDaisy/src/per/qspi.h ****         } pin_config;
  91:/home/nahomts/Documents/DaisyExamples/libDaisy/src/per/qspi.h **** 
  92:/home/nahomts/Documents/DaisyExamples/libDaisy/src/per/qspi.h ****         Device device;
  93:/home/nahomts/Documents/DaisyExamples/libDaisy/src/per/qspi.h ****         Mode   mode;
  94:/home/nahomts/Documents/DaisyExamples/libDaisy/src/per/qspi.h ****     };
  95:/home/nahomts/Documents/DaisyExamples/libDaisy/src/per/qspi.h **** 
  96:/home/nahomts/Documents/DaisyExamples/libDaisy/src/per/qspi.h ****     /** 
  97:/home/nahomts/Documents/DaisyExamples/libDaisy/src/per/qspi.h ****         Initializes QSPI peripheral, and Resets, and prepares memory for access.
  98:/home/nahomts/Documents/DaisyExamples/libDaisy/src/per/qspi.h ****         \param config should be populated with the mode, device and pin_config before calling this 
  99:/home/nahomts/Documents/DaisyExamples/libDaisy/src/per/qspi.h ****         \return Result::OK or Result::ERR
 100:/home/nahomts/Documents/DaisyExamples/libDaisy/src/per/qspi.h ****         */
 101:/home/nahomts/Documents/DaisyExamples/libDaisy/src/per/qspi.h ****     Result Init(const Config& config);
 102:/home/nahomts/Documents/DaisyExamples/libDaisy/src/per/qspi.h **** 
 103:/home/nahomts/Documents/DaisyExamples/libDaisy/src/per/qspi.h ****     /** Returns the current config. */
ARM GAS  /tmp/ccyyZOVG.s 			page 19


 104:/home/nahomts/Documents/DaisyExamples/libDaisy/src/per/qspi.h ****     const Config& GetConfig() const;
 105:/home/nahomts/Documents/DaisyExamples/libDaisy/src/per/qspi.h **** 
 106:/home/nahomts/Documents/DaisyExamples/libDaisy/src/per/qspi.h ****     // Couldn't this just be called before anything else in init? That
 107:/home/nahomts/Documents/DaisyExamples/libDaisy/src/per/qspi.h ****     // would make manually calling it unnecessary.
 108:/home/nahomts/Documents/DaisyExamples/libDaisy/src/per/qspi.h ****     /** 
 109:/home/nahomts/Documents/DaisyExamples/libDaisy/src/per/qspi.h ****         Deinitializes the peripheral
 110:/home/nahomts/Documents/DaisyExamples/libDaisy/src/per/qspi.h ****         This should be called before reinitializing QSPI in a different mode.
 111:/home/nahomts/Documents/DaisyExamples/libDaisy/src/per/qspi.h ****         \return Result::OK or Result::ERR
 112:/home/nahomts/Documents/DaisyExamples/libDaisy/src/per/qspi.h ****         */
 113:/home/nahomts/Documents/DaisyExamples/libDaisy/src/per/qspi.h ****     Result DeInit();
 114:/home/nahomts/Documents/DaisyExamples/libDaisy/src/per/qspi.h **** 
 115:/home/nahomts/Documents/DaisyExamples/libDaisy/src/per/qspi.h ****     /** 
 116:/home/nahomts/Documents/DaisyExamples/libDaisy/src/per/qspi.h ****         Writes a single page to to the specified address on the QSPI chip.
 117:/home/nahomts/Documents/DaisyExamples/libDaisy/src/per/qspi.h ****         For IS25LP*, page size is 256 bytes.
 118:/home/nahomts/Documents/DaisyExamples/libDaisy/src/per/qspi.h ****         \param address Address to write to
 119:/home/nahomts/Documents/DaisyExamples/libDaisy/src/per/qspi.h ****         \param size Buffer size
 120:/home/nahomts/Documents/DaisyExamples/libDaisy/src/per/qspi.h ****         \param buffer Buffer to write
 121:/home/nahomts/Documents/DaisyExamples/libDaisy/src/per/qspi.h ****         \return Result::OK or Result::ERR
 122:/home/nahomts/Documents/DaisyExamples/libDaisy/src/per/qspi.h ****         */
 123:/home/nahomts/Documents/DaisyExamples/libDaisy/src/per/qspi.h ****     Result WritePage(uint32_t address, uint32_t size, uint8_t* buffer);
 124:/home/nahomts/Documents/DaisyExamples/libDaisy/src/per/qspi.h **** 
 125:/home/nahomts/Documents/DaisyExamples/libDaisy/src/per/qspi.h ****     /** 
 126:/home/nahomts/Documents/DaisyExamples/libDaisy/src/per/qspi.h ****         Writes data in buffer to to the QSPI. Starting at address to address+size 
 127:/home/nahomts/Documents/DaisyExamples/libDaisy/src/per/qspi.h ****         \param address Address to write to
 128:/home/nahomts/Documents/DaisyExamples/libDaisy/src/per/qspi.h ****         \param size Buffer size
 129:/home/nahomts/Documents/DaisyExamples/libDaisy/src/per/qspi.h ****         \param buffer Buffer to write
 130:/home/nahomts/Documents/DaisyExamples/libDaisy/src/per/qspi.h ****         \return Result::OK or Result::ERR
 131:/home/nahomts/Documents/DaisyExamples/libDaisy/src/per/qspi.h ****         */
 132:/home/nahomts/Documents/DaisyExamples/libDaisy/src/per/qspi.h ****     Result Write(uint32_t address, uint32_t size, uint8_t* buffer);
 133:/home/nahomts/Documents/DaisyExamples/libDaisy/src/per/qspi.h **** 
 134:/home/nahomts/Documents/DaisyExamples/libDaisy/src/per/qspi.h ****     /** 
 135:/home/nahomts/Documents/DaisyExamples/libDaisy/src/per/qspi.h ****         Erases the area specified on the chip.
 136:/home/nahomts/Documents/DaisyExamples/libDaisy/src/per/qspi.h ****         Erasures will happen by 4K, 32K or 64K increments.
 137:/home/nahomts/Documents/DaisyExamples/libDaisy/src/per/qspi.h ****         Smallest erase possible is 4kB at a time. (on IS25LP*)
 138:/home/nahomts/Documents/DaisyExamples/libDaisy/src/per/qspi.h ****         \param start_addr Address to begin erasing from
 139:/home/nahomts/Documents/DaisyExamples/libDaisy/src/per/qspi.h ****         \param end_addr  Address to stop erasing at
 140:/home/nahomts/Documents/DaisyExamples/libDaisy/src/per/qspi.h ****         \return Result::OK or Result::ERR
 141:/home/nahomts/Documents/DaisyExamples/libDaisy/src/per/qspi.h ****         */
 142:/home/nahomts/Documents/DaisyExamples/libDaisy/src/per/qspi.h ****     Result Erase(uint32_t start_addr, uint32_t end_addr);
 143:/home/nahomts/Documents/DaisyExamples/libDaisy/src/per/qspi.h **** 
 144:/home/nahomts/Documents/DaisyExamples/libDaisy/src/per/qspi.h ****     /**  
 145:/home/nahomts/Documents/DaisyExamples/libDaisy/src/per/qspi.h ****          Erases a single sector of the chip.  
 146:/home/nahomts/Documents/DaisyExamples/libDaisy/src/per/qspi.h ****         TODO: Document the size of this function. 
 147:/home/nahomts/Documents/DaisyExamples/libDaisy/src/per/qspi.h ****         \param address Address of sector to erase
 148:/home/nahomts/Documents/DaisyExamples/libDaisy/src/per/qspi.h ****         \return Result::OK or Result::ERR
 149:/home/nahomts/Documents/DaisyExamples/libDaisy/src/per/qspi.h ****         */
 150:/home/nahomts/Documents/DaisyExamples/libDaisy/src/per/qspi.h ****     Result EraseSector(uint32_t address);
 151:/home/nahomts/Documents/DaisyExamples/libDaisy/src/per/qspi.h **** 
 152:/home/nahomts/Documents/DaisyExamples/libDaisy/src/per/qspi.h ****     /** Returns the current class status. Useful for debugging.
 153:/home/nahomts/Documents/DaisyExamples/libDaisy/src/per/qspi.h ****      *  \returns Status
 154:/home/nahomts/Documents/DaisyExamples/libDaisy/src/per/qspi.h ****      */
 155:/home/nahomts/Documents/DaisyExamples/libDaisy/src/per/qspi.h ****     Status GetStatus();
 156:/home/nahomts/Documents/DaisyExamples/libDaisy/src/per/qspi.h **** 
 157:/home/nahomts/Documents/DaisyExamples/libDaisy/src/per/qspi.h ****     /** Returns a pointer to the actual memory used 
 158:/home/nahomts/Documents/DaisyExamples/libDaisy/src/per/qspi.h ****      *  The memory at this address is read-only
 159:/home/nahomts/Documents/DaisyExamples/libDaisy/src/per/qspi.h ****      *  to write to it use the Write function.
 160:/home/nahomts/Documents/DaisyExamples/libDaisy/src/per/qspi.h ****      * 
ARM GAS  /tmp/ccyyZOVG.s 			page 20


 161:/home/nahomts/Documents/DaisyExamples/libDaisy/src/per/qspi.h ****      *  \param offset returns the pointer starting this 
 162:/home/nahomts/Documents/DaisyExamples/libDaisy/src/per/qspi.h ****      *                many bytes into the memory
 163:/home/nahomts/Documents/DaisyExamples/libDaisy/src/per/qspi.h ****     */
 164:/home/nahomts/Documents/DaisyExamples/libDaisy/src/per/qspi.h ****     void* GetData(uint32_t offset = 0);
 165:/home/nahomts/Documents/DaisyExamples/libDaisy/src/per/qspi.h **** 
 166:/home/nahomts/Documents/DaisyExamples/libDaisy/src/per/qspi.h ****     QSPIHandle() : pimpl_(nullptr) {}
 326              		.loc 8 166 5 view .LVU77
 327              	.LBE149:
 328              	.LBE148:
 329              	.LBE147:
 330              	.LBE146:
 331              	.LBE145:
 332              		.loc 6 47 1 is_stmt 0 view .LVU78
 333 0000 10B5     		push	{r4, lr}
 334              		.cfi_def_cfa_offset 8
 335              		.cfi_offset 4, -8
 336              		.cfi_offset 14, -4
 337              	.LBB176:
 338              	.LBB175:
 339              	.LBB170:
 340              	.LBB168:
 341              	.LBB154:
 342              	.LBB150:
 343              	.LBB151:
 344              		.loc 8 166 34 view .LVU79
 345 0002 0648     		ldr	r0, .L16
 346 0004 0024     		movs	r4, #0
 347              	.LBE151:
 348              	.LBE150:
 349              	.LBE154:
 350              	.LBE168:
 351              	.LBE170:
   8:main.cpp      **** DaisySeed hardware;
 352              		.loc 6 8 11 view .LVU80
 353 0006 064A     		ldr	r2, .L16+4
 354 0008 0649     		ldr	r1, .L16+8
 355              	.LBB171:
 356              	.LBB169:
 357              	.LBB155:
 358              	.LBB153:
 359              	.LBB152:
 360              		.loc 8 166 34 view .LVU81
 361 000a 0460     		str	r4, [r0]
 362              	.LVL17:
 363              		.loc 8 166 34 view .LVU82
 364              	.LBE152:
 365              	.LBE153:
 366              	.LBE155:
 367              	.LBB156:
 368              	.LBI156:
  95:/home/nahomts/Documents/DaisyExamples/libDaisy/src/hid/audio.h ****     ~AudioHandle() {}
 369              		.loc 5 95 5 is_stmt 1 view .LVU83
 370              	.LBB157:
 371              	.LBB158:
  95:/home/nahomts/Documents/DaisyExamples/libDaisy/src/hid/audio.h ****     ~AudioHandle() {}
 372              		.loc 5 95 35 is_stmt 0 view .LVU84
 373 000c 4461     		str	r4, [r0, #20]
ARM GAS  /tmp/ccyyZOVG.s 			page 21


 374              	.LVL18:
  95:/home/nahomts/Documents/DaisyExamples/libDaisy/src/hid/audio.h ****     ~AudioHandle() {}
 375              		.loc 5 95 35 view .LVU85
 376              	.LBE158:
 377              	.LBE157:
 378              	.LBE156:
 379              	.LBB159:
 380              	.LBI159:
 109:/home/nahomts/Documents/DaisyExamples/libDaisy/src/per/adc.h ****     ~AdcHandle() {}
 381              		.loc 4 109 5 is_stmt 1 view .LVU86
 109:/home/nahomts/Documents/DaisyExamples/libDaisy/src/per/adc.h ****     ~AdcHandle() {}
 382              		.loc 4 109 5 is_stmt 0 view .LVU87
 383              	.LBE159:
 384              	.LBB160:
 385              	.LBI160:
 386              		.file 9 "/home/nahomts/Documents/DaisyExamples/libDaisy/src/per/dac.h"
   1:/home/nahomts/Documents/DaisyExamples/libDaisy/src/per/dac.h **** #pragma once
   2:/home/nahomts/Documents/DaisyExamples/libDaisy/src/per/dac.h **** #ifndef DSY_DAC_H
   3:/home/nahomts/Documents/DaisyExamples/libDaisy/src/per/dac.h **** #define DSY_DAC_H
   4:/home/nahomts/Documents/DaisyExamples/libDaisy/src/per/dac.h **** 
   5:/home/nahomts/Documents/DaisyExamples/libDaisy/src/per/dac.h **** #include "daisy_core.h"
   6:/home/nahomts/Documents/DaisyExamples/libDaisy/src/per/dac.h **** 
   7:/home/nahomts/Documents/DaisyExamples/libDaisy/src/per/dac.h **** namespace daisy
   8:/home/nahomts/Documents/DaisyExamples/libDaisy/src/per/dac.h **** {
   9:/home/nahomts/Documents/DaisyExamples/libDaisy/src/per/dac.h **** /** @brief DAC handle for Built-in DAC Peripheral 
  10:/home/nahomts/Documents/DaisyExamples/libDaisy/src/per/dac.h ****  *  @ingroup per_analog
  11:/home/nahomts/Documents/DaisyExamples/libDaisy/src/per/dac.h ****  ** 
  12:/home/nahomts/Documents/DaisyExamples/libDaisy/src/per/dac.h ****  ** For now only Normal Mode is supported,
  13:/home/nahomts/Documents/DaisyExamples/libDaisy/src/per/dac.h ****  ** Sample and hold mode provides reduced power consumption, but requires a bit more setup.
  14:/home/nahomts/Documents/DaisyExamples/libDaisy/src/per/dac.h ****  **
  15:/home/nahomts/Documents/DaisyExamples/libDaisy/src/per/dac.h ****  ** For now connecting the DAC through other internal peripherals is also not supported.
  16:/home/nahomts/Documents/DaisyExamples/libDaisy/src/per/dac.h ****  **
  17:/home/nahomts/Documents/DaisyExamples/libDaisy/src/per/dac.h ****  ** Since the DAC channels have dedicated pins we don't need to pass in a pin config like with
  18:/home/nahomts/Documents/DaisyExamples/libDaisy/src/per/dac.h ****  ** other modules. However, it is still important to not try to use the DAC pins for anything else.
  19:/home/nahomts/Documents/DaisyExamples/libDaisy/src/per/dac.h ****  ** DAC Channel 1 is on PA4, and DAC Channel 2 is on PA5
  20:/home/nahomts/Documents/DaisyExamples/libDaisy/src/per/dac.h ****  ***/
  21:/home/nahomts/Documents/DaisyExamples/libDaisy/src/per/dac.h **** class DacHandle
  22:/home/nahomts/Documents/DaisyExamples/libDaisy/src/per/dac.h **** {
  23:/home/nahomts/Documents/DaisyExamples/libDaisy/src/per/dac.h ****   public:
  24:/home/nahomts/Documents/DaisyExamples/libDaisy/src/per/dac.h ****     /** Return Values for the DacHandle class */
  25:/home/nahomts/Documents/DaisyExamples/libDaisy/src/per/dac.h ****     enum class Result
  26:/home/nahomts/Documents/DaisyExamples/libDaisy/src/per/dac.h ****     {
  27:/home/nahomts/Documents/DaisyExamples/libDaisy/src/per/dac.h ****         OK,
  28:/home/nahomts/Documents/DaisyExamples/libDaisy/src/per/dac.h ****         ERR,
  29:/home/nahomts/Documents/DaisyExamples/libDaisy/src/per/dac.h ****     };
  30:/home/nahomts/Documents/DaisyExamples/libDaisy/src/per/dac.h **** 
  31:/home/nahomts/Documents/DaisyExamples/libDaisy/src/per/dac.h ****     /** Selects which channel(s) will be configured for use. */
  32:/home/nahomts/Documents/DaisyExamples/libDaisy/src/per/dac.h ****     enum class Channel
  33:/home/nahomts/Documents/DaisyExamples/libDaisy/src/per/dac.h ****     {
  34:/home/nahomts/Documents/DaisyExamples/libDaisy/src/per/dac.h ****         ONE,
  35:/home/nahomts/Documents/DaisyExamples/libDaisy/src/per/dac.h ****         TWO,
  36:/home/nahomts/Documents/DaisyExamples/libDaisy/src/per/dac.h ****         BOTH,
  37:/home/nahomts/Documents/DaisyExamples/libDaisy/src/per/dac.h ****     };
  38:/home/nahomts/Documents/DaisyExamples/libDaisy/src/per/dac.h **** 
  39:/home/nahomts/Documents/DaisyExamples/libDaisy/src/per/dac.h ****     /** Sets the Mode for the DAC channels.
  40:/home/nahomts/Documents/DaisyExamples/libDaisy/src/per/dac.h ****      **
  41:/home/nahomts/Documents/DaisyExamples/libDaisy/src/per/dac.h ****      ** Polling mode uses the blocking mode to transmit a single value at a time.
ARM GAS  /tmp/ccyyZOVG.s 			page 22


  42:/home/nahomts/Documents/DaisyExamples/libDaisy/src/per/dac.h ****      **
  43:/home/nahomts/Documents/DaisyExamples/libDaisy/src/per/dac.h ****      ** DMA mode uses a buffer, and periodically transmits it triggering a 
  44:/home/nahomts/Documents/DaisyExamples/libDaisy/src/per/dac.h ****      ** callback to fill the buffer when it is ready for more samples.
  45:/home/nahomts/Documents/DaisyExamples/libDaisy/src/per/dac.h ****      ***/
  46:/home/nahomts/Documents/DaisyExamples/libDaisy/src/per/dac.h ****     enum class Mode
  47:/home/nahomts/Documents/DaisyExamples/libDaisy/src/per/dac.h ****     {
  48:/home/nahomts/Documents/DaisyExamples/libDaisy/src/per/dac.h ****         POLLING,
  49:/home/nahomts/Documents/DaisyExamples/libDaisy/src/per/dac.h ****         DMA,
  50:/home/nahomts/Documents/DaisyExamples/libDaisy/src/per/dac.h ****     };
  51:/home/nahomts/Documents/DaisyExamples/libDaisy/src/per/dac.h **** 
  52:/home/nahomts/Documents/DaisyExamples/libDaisy/src/per/dac.h ****     /** Sets the number of bits per sample transmitted out of the DAC.
  53:/home/nahomts/Documents/DaisyExamples/libDaisy/src/per/dac.h ****      ** The output range will be: 0V - VDDA
  54:/home/nahomts/Documents/DaisyExamples/libDaisy/src/per/dac.h ****      ** The resolution will be roughly: bitdepth / (VDDA - 0V) 
  55:/home/nahomts/Documents/DaisyExamples/libDaisy/src/per/dac.h ****      ***/
  56:/home/nahomts/Documents/DaisyExamples/libDaisy/src/per/dac.h ****     enum class BitDepth
  57:/home/nahomts/Documents/DaisyExamples/libDaisy/src/per/dac.h ****     {
  58:/home/nahomts/Documents/DaisyExamples/libDaisy/src/per/dac.h ****         BITS_8,
  59:/home/nahomts/Documents/DaisyExamples/libDaisy/src/per/dac.h ****         BITS_12
  60:/home/nahomts/Documents/DaisyExamples/libDaisy/src/per/dac.h ****     };
  61:/home/nahomts/Documents/DaisyExamples/libDaisy/src/per/dac.h **** 
  62:/home/nahomts/Documents/DaisyExamples/libDaisy/src/per/dac.h ****     /** Sets whether the DAC output is buffered for higher drive ability. */
  63:/home/nahomts/Documents/DaisyExamples/libDaisy/src/per/dac.h ****     enum class BufferState
  64:/home/nahomts/Documents/DaisyExamples/libDaisy/src/per/dac.h ****     {
  65:/home/nahomts/Documents/DaisyExamples/libDaisy/src/per/dac.h ****         ENABLED,
  66:/home/nahomts/Documents/DaisyExamples/libDaisy/src/per/dac.h ****         DISABLED,
  67:/home/nahomts/Documents/DaisyExamples/libDaisy/src/per/dac.h ****     };
  68:/home/nahomts/Documents/DaisyExamples/libDaisy/src/per/dac.h **** 
  69:/home/nahomts/Documents/DaisyExamples/libDaisy/src/per/dac.h ****     /** Configuration structure for initializing the DAC structure. */
  70:/home/nahomts/Documents/DaisyExamples/libDaisy/src/per/dac.h ****     struct Config
  71:/home/nahomts/Documents/DaisyExamples/libDaisy/src/per/dac.h ****     {
  72:/home/nahomts/Documents/DaisyExamples/libDaisy/src/per/dac.h ****         /** Target Samplerate in Hz used to configure the internal 
  73:/home/nahomts/Documents/DaisyExamples/libDaisy/src/per/dac.h ****          ** timebase for DMA mode. Does nothing in POLLING mode.
  74:/home/nahomts/Documents/DaisyExamples/libDaisy/src/per/dac.h ****          ** If the value is 0 at Init time this will default to 48000Hz 
  75:/home/nahomts/Documents/DaisyExamples/libDaisy/src/per/dac.h ****          ** otherwise the driver will attempt meet the target.*/
  76:/home/nahomts/Documents/DaisyExamples/libDaisy/src/per/dac.h ****         uint32_t target_samplerate;
  77:/home/nahomts/Documents/DaisyExamples/libDaisy/src/per/dac.h **** 
  78:/home/nahomts/Documents/DaisyExamples/libDaisy/src/per/dac.h ****         Channel     chn;
  79:/home/nahomts/Documents/DaisyExamples/libDaisy/src/per/dac.h ****         Mode        mode;
  80:/home/nahomts/Documents/DaisyExamples/libDaisy/src/per/dac.h ****         BitDepth    bitdepth;
  81:/home/nahomts/Documents/DaisyExamples/libDaisy/src/per/dac.h ****         BufferState buff_state;
  82:/home/nahomts/Documents/DaisyExamples/libDaisy/src/per/dac.h ****     };
  83:/home/nahomts/Documents/DaisyExamples/libDaisy/src/per/dac.h **** 
  84:/home/nahomts/Documents/DaisyExamples/libDaisy/src/per/dac.h ****     DacHandle() : pimpl_(nullptr) {}
 387              		.loc 9 84 5 is_stmt 1 view .LVU88
 388              	.LBB161:
 389              	.LBB162:
 390              		.loc 9 84 33 is_stmt 0 view .LVU89
 391 000e 0462     		str	r4, [r0, #32]
 392              	.LVL19:
 393              		.loc 9 84 33 view .LVU90
 394              	.LBE162:
 395              	.LBE161:
 396              	.LBE160:
 397              	.LBB163:
 398              	.LBI163:
  40:/home/nahomts/Documents/DaisyExamples/libDaisy/src/hid/usb.h **** 
 399              		.loc 3 40 5 is_stmt 1 view .LVU91
ARM GAS  /tmp/ccyyZOVG.s 			page 23


  40:/home/nahomts/Documents/DaisyExamples/libDaisy/src/hid/usb.h **** 
 400              		.loc 3 40 5 is_stmt 0 view .LVU92
 401              	.LBE163:
 402              	.LBB164:
 403              	.LBI164:
  96:/home/nahomts/Documents/DaisyExamples/libDaisy/src/sys/system.h ****     ~System() {}
 404              		.loc 2 96 5 is_stmt 1 view .LVU93
  96:/home/nahomts/Documents/DaisyExamples/libDaisy/src/sys/system.h ****     ~System() {}
 405              		.loc 2 96 5 is_stmt 0 view .LVU94
 406              	.LBE164:
 407              	.LBB165:
 408              	.LBI165:
 409              		.file 10 "/home/nahomts/Documents/DaisyExamples/libDaisy/src/per/sai.h"
   1:/home/nahomts/Documents/DaisyExamples/libDaisy/src/per/sai.h **** #pragma once
   2:/home/nahomts/Documents/DaisyExamples/libDaisy/src/per/sai.h **** #ifndef DSY_SAI_H
   3:/home/nahomts/Documents/DaisyExamples/libDaisy/src/per/sai.h **** #define DSY_SAI_H
   4:/home/nahomts/Documents/DaisyExamples/libDaisy/src/per/sai.h **** 
   5:/home/nahomts/Documents/DaisyExamples/libDaisy/src/per/sai.h **** #include "daisy_core.h"
   6:/home/nahomts/Documents/DaisyExamples/libDaisy/src/per/sai.h **** 
   7:/home/nahomts/Documents/DaisyExamples/libDaisy/src/per/sai.h **** namespace daisy
   8:/home/nahomts/Documents/DaisyExamples/libDaisy/src/per/sai.h **** {
   9:/home/nahomts/Documents/DaisyExamples/libDaisy/src/per/sai.h **** /** 
  10:/home/nahomts/Documents/DaisyExamples/libDaisy/src/per/sai.h ****  * Support for I2S Audio Protocol with different bit-depth, samplerate options
  11:/home/nahomts/Documents/DaisyExamples/libDaisy/src/per/sai.h ****  * Allows for master or slave, as well as freedom of selecting direction, 
  12:/home/nahomts/Documents/DaisyExamples/libDaisy/src/per/sai.h ****  * and other behavior for each peripheral, and block.
  13:/home/nahomts/Documents/DaisyExamples/libDaisy/src/per/sai.h ****  * 
  14:/home/nahomts/Documents/DaisyExamples/libDaisy/src/per/sai.h ****  * DMA Transfer commands must use buffers located within non-cached memory or use cache maintenance
  15:/home/nahomts/Documents/DaisyExamples/libDaisy/src/per/sai.h ****  * To declare an unitialized global element in the DMA memory section:
  16:/home/nahomts/Documents/DaisyExamples/libDaisy/src/per/sai.h ****  *    int32_t DSY_DMA_BUFFER_SECTOR my_buffer[96];
  17:/home/nahomts/Documents/DaisyExamples/libDaisy/src/per/sai.h ****  *
  18:/home/nahomts/Documents/DaisyExamples/libDaisy/src/per/sai.h ****  * Callback functions will be called once per half of the buffer. In the above example, 
  19:/home/nahomts/Documents/DaisyExamples/libDaisy/src/per/sai.h ****  * the callback function would be called once for every 48 samples.
  20:/home/nahomts/Documents/DaisyExamples/libDaisy/src/per/sai.h ****  * 
  21:/home/nahomts/Documents/DaisyExamples/libDaisy/src/per/sai.h ****  * Use SAI Handle like this:
  22:/home/nahomts/Documents/DaisyExamples/libDaisy/src/per/sai.h ****  * 
  23:/home/nahomts/Documents/DaisyExamples/libDaisy/src/per/sai.h ****  *  SaiHandle::Config sai_config;
  24:/home/nahomts/Documents/DaisyExamples/libDaisy/src/per/sai.h ****  *  sai_config.periph          = SaiHandle::Config::Peripheral::SAI_1;
  25:/home/nahomts/Documents/DaisyExamples/libDaisy/src/per/sai.h ****  *  sai_config.sr              = SaiHandle::Config::SampleRate::SAI_48KHZ;
  26:/home/nahomts/Documents/DaisyExamples/libDaisy/src/per/sai.h ****  *  sai_config.bit_depth       = SaiHandle::Config::BitDepth::SAI_24BIT;
  27:/home/nahomts/Documents/DaisyExamples/libDaisy/src/per/sai.h ****  *  sai_config.a_sync          = SaiHandle::Config::Sync::MASTER;
  28:/home/nahomts/Documents/DaisyExamples/libDaisy/src/per/sai.h ****  *  sai_config.b_sync          = SaiHandle::Config::Sync::SLAVE;
  29:/home/nahomts/Documents/DaisyExamples/libDaisy/src/per/sai.h ****  *  sai_config.a_dir           = SaiHandle::Config::Direction::RECEIVE;
  30:/home/nahomts/Documents/DaisyExamples/libDaisy/src/per/sai.h ****  *  sai_config.b_dir           = SaiHandle::Config::Direction::TRANSMIT;
  31:/home/nahomts/Documents/DaisyExamples/libDaisy/src/per/sai.h ****  *  sai_config.pin_config.fs   = {DSY_GPIOE, 4};
  32:/home/nahomts/Documents/DaisyExamples/libDaisy/src/per/sai.h ****  *  sai_config.pin_config.mclk = {DSY_GPIOE, 2};
  33:/home/nahomts/Documents/DaisyExamples/libDaisy/src/per/sai.h ****  *  sai_config.pin_config.sck  = {DSY_GPIOE, 5};
  34:/home/nahomts/Documents/DaisyExamples/libDaisy/src/per/sai.h ****  *  sai_config.pin_config.sa   = {DSY_GPIOE, 6};
  35:/home/nahomts/Documents/DaisyExamples/libDaisy/src/per/sai.h ****  *  sai_config.pin_config.sb   = {DSY_GPIOE, 3};
  36:/home/nahomts/Documents/DaisyExamples/libDaisy/src/per/sai.h ****  *  // Then Initialize
  37:/home/nahomts/Documents/DaisyExamples/libDaisy/src/per/sai.h ****  *  SaiHandle sai;
  38:/home/nahomts/Documents/DaisyExamples/libDaisy/src/per/sai.h ****  *  sai.Init(sai_config);
  39:/home/nahomts/Documents/DaisyExamples/libDaisy/src/per/sai.h ****  *  // Now you can use it:
  40:/home/nahomts/Documents/DaisyExamples/libDaisy/src/per/sai.h ****  *  sai.StartDma(. . .);
  41:/home/nahomts/Documents/DaisyExamples/libDaisy/src/per/sai.h ****  */
  42:/home/nahomts/Documents/DaisyExamples/libDaisy/src/per/sai.h **** class SaiHandle
  43:/home/nahomts/Documents/DaisyExamples/libDaisy/src/per/sai.h **** {
  44:/home/nahomts/Documents/DaisyExamples/libDaisy/src/per/sai.h ****   public:
ARM GAS  /tmp/ccyyZOVG.s 			page 24


  45:/home/nahomts/Documents/DaisyExamples/libDaisy/src/per/sai.h ****     /** Contains settings for initialising an SAI Interface */
  46:/home/nahomts/Documents/DaisyExamples/libDaisy/src/per/sai.h ****     struct Config
  47:/home/nahomts/Documents/DaisyExamples/libDaisy/src/per/sai.h ****     {
  48:/home/nahomts/Documents/DaisyExamples/libDaisy/src/per/sai.h ****         /** Specifies the internal peripheral to use (mapped to different hardware pins) */
  49:/home/nahomts/Documents/DaisyExamples/libDaisy/src/per/sai.h ****         enum class Peripheral
  50:/home/nahomts/Documents/DaisyExamples/libDaisy/src/per/sai.h ****         {
  51:/home/nahomts/Documents/DaisyExamples/libDaisy/src/per/sai.h ****             SAI_1,
  52:/home/nahomts/Documents/DaisyExamples/libDaisy/src/per/sai.h ****             SAI_2,
  53:/home/nahomts/Documents/DaisyExamples/libDaisy/src/per/sai.h ****         };
  54:/home/nahomts/Documents/DaisyExamples/libDaisy/src/per/sai.h **** 
  55:/home/nahomts/Documents/DaisyExamples/libDaisy/src/per/sai.h ****         /** Rate at which samples will be streaming to/from the device. */
  56:/home/nahomts/Documents/DaisyExamples/libDaisy/src/per/sai.h ****         enum class SampleRate
  57:/home/nahomts/Documents/DaisyExamples/libDaisy/src/per/sai.h ****         {
  58:/home/nahomts/Documents/DaisyExamples/libDaisy/src/per/sai.h ****             SAI_8KHZ,
  59:/home/nahomts/Documents/DaisyExamples/libDaisy/src/per/sai.h ****             SAI_16KHZ,
  60:/home/nahomts/Documents/DaisyExamples/libDaisy/src/per/sai.h ****             SAI_32KHZ,
  61:/home/nahomts/Documents/DaisyExamples/libDaisy/src/per/sai.h ****             SAI_48KHZ,
  62:/home/nahomts/Documents/DaisyExamples/libDaisy/src/per/sai.h ****             SAI_96KHZ,
  63:/home/nahomts/Documents/DaisyExamples/libDaisy/src/per/sai.h ****         };
  64:/home/nahomts/Documents/DaisyExamples/libDaisy/src/per/sai.h **** 
  65:/home/nahomts/Documents/DaisyExamples/libDaisy/src/per/sai.h ****         /** Bit Depth that the hardware expects to be transferred to/from the device. */
  66:/home/nahomts/Documents/DaisyExamples/libDaisy/src/per/sai.h ****         enum class BitDepth
  67:/home/nahomts/Documents/DaisyExamples/libDaisy/src/per/sai.h ****         {
  68:/home/nahomts/Documents/DaisyExamples/libDaisy/src/per/sai.h ****             SAI_16BIT,
  69:/home/nahomts/Documents/DaisyExamples/libDaisy/src/per/sai.h ****             SAI_24BIT,
  70:/home/nahomts/Documents/DaisyExamples/libDaisy/src/per/sai.h ****             SAI_32BIT,
  71:/home/nahomts/Documents/DaisyExamples/libDaisy/src/per/sai.h ****         };
  72:/home/nahomts/Documents/DaisyExamples/libDaisy/src/per/sai.h **** 
  73:/home/nahomts/Documents/DaisyExamples/libDaisy/src/per/sai.h ****         /** Specifies whether a particular block is the master or the slave 
  74:/home/nahomts/Documents/DaisyExamples/libDaisy/src/per/sai.h ****          ** If both are set to slave, no MCLK signal will be used, and it is
  75:/home/nahomts/Documents/DaisyExamples/libDaisy/src/per/sai.h ****          ** expected that the codec will have its own xtal.
  76:/home/nahomts/Documents/DaisyExamples/libDaisy/src/per/sai.h ****          */
  77:/home/nahomts/Documents/DaisyExamples/libDaisy/src/per/sai.h ****         enum class Sync
  78:/home/nahomts/Documents/DaisyExamples/libDaisy/src/per/sai.h ****         {
  79:/home/nahomts/Documents/DaisyExamples/libDaisy/src/per/sai.h ****             MASTER,
  80:/home/nahomts/Documents/DaisyExamples/libDaisy/src/per/sai.h ****             SLAVE,
  81:/home/nahomts/Documents/DaisyExamples/libDaisy/src/per/sai.h ****         };
  82:/home/nahomts/Documents/DaisyExamples/libDaisy/src/per/sai.h **** 
  83:/home/nahomts/Documents/DaisyExamples/libDaisy/src/per/sai.h ****         /** Specifies the direction for each peripheral block. */
  84:/home/nahomts/Documents/DaisyExamples/libDaisy/src/per/sai.h ****         enum class Direction
  85:/home/nahomts/Documents/DaisyExamples/libDaisy/src/per/sai.h ****         {
  86:/home/nahomts/Documents/DaisyExamples/libDaisy/src/per/sai.h ****             TRANSMIT,
  87:/home/nahomts/Documents/DaisyExamples/libDaisy/src/per/sai.h ****             RECEIVE,
  88:/home/nahomts/Documents/DaisyExamples/libDaisy/src/per/sai.h ****         };
  89:/home/nahomts/Documents/DaisyExamples/libDaisy/src/per/sai.h **** 
  90:/home/nahomts/Documents/DaisyExamples/libDaisy/src/per/sai.h ****         Peripheral periph;
  91:/home/nahomts/Documents/DaisyExamples/libDaisy/src/per/sai.h ****         struct
  92:/home/nahomts/Documents/DaisyExamples/libDaisy/src/per/sai.h ****         {
  93:/home/nahomts/Documents/DaisyExamples/libDaisy/src/per/sai.h ****             dsy_gpio_pin mclk, fs, sck, sa, sb;
  94:/home/nahomts/Documents/DaisyExamples/libDaisy/src/per/sai.h ****         } pin_config;
  95:/home/nahomts/Documents/DaisyExamples/libDaisy/src/per/sai.h ****         SampleRate sr;
  96:/home/nahomts/Documents/DaisyExamples/libDaisy/src/per/sai.h ****         BitDepth   bit_depth;
  97:/home/nahomts/Documents/DaisyExamples/libDaisy/src/per/sai.h ****         Sync       a_sync, b_sync;
  98:/home/nahomts/Documents/DaisyExamples/libDaisy/src/per/sai.h ****         Direction  a_dir, b_dir;
  99:/home/nahomts/Documents/DaisyExamples/libDaisy/src/per/sai.h ****     };
 100:/home/nahomts/Documents/DaisyExamples/libDaisy/src/per/sai.h **** 
 101:/home/nahomts/Documents/DaisyExamples/libDaisy/src/per/sai.h ****     /** Return values for SAI functions */
ARM GAS  /tmp/ccyyZOVG.s 			page 25


 102:/home/nahomts/Documents/DaisyExamples/libDaisy/src/per/sai.h ****     enum class Result
 103:/home/nahomts/Documents/DaisyExamples/libDaisy/src/per/sai.h ****     {
 104:/home/nahomts/Documents/DaisyExamples/libDaisy/src/per/sai.h ****         OK,
 105:/home/nahomts/Documents/DaisyExamples/libDaisy/src/per/sai.h ****         ERR,
 106:/home/nahomts/Documents/DaisyExamples/libDaisy/src/per/sai.h ****     };
 107:/home/nahomts/Documents/DaisyExamples/libDaisy/src/per/sai.h **** 
 108:/home/nahomts/Documents/DaisyExamples/libDaisy/src/per/sai.h ****     SaiHandle() : pimpl_(nullptr) {}
 410              		.loc 10 108 5 is_stmt 1 view .LVU95
 411              	.LBB166:
 412              	.LBB167:
 413              		.loc 10 108 33 is_stmt 0 view .LVU96
 414 0010 C463     		str	r4, [r0, #60]
 415              	.LVL20:
 416              		.loc 10 108 33 view .LVU97
 417              	.LBE167:
 418              	.LBE166:
 419              	.LBE165:
 420              	.LBE169:
 421              	.LBE171:
   8:main.cpp      **** DaisySeed hardware;
 422              		.loc 6 8 11 view .LVU98
 423 0012 FFF7FEFF 		bl	__aeabi_atexit
 424              	.LVL21:
 425              	.LBB172:
 426              	.LBI172:
  29:/home/nahomts/Documents/DaisyExamples/libDaisy/src/per/i2c.h ****     {
  30:/home/nahomts/Documents/DaisyExamples/libDaisy/src/per/i2c.h ****         /** Specifies whether the interface will operate in master or slave mode. */
  31:/home/nahomts/Documents/DaisyExamples/libDaisy/src/per/i2c.h ****         enum class Mode
  32:/home/nahomts/Documents/DaisyExamples/libDaisy/src/per/i2c.h ****         {
  33:/home/nahomts/Documents/DaisyExamples/libDaisy/src/per/i2c.h ****             I2C_MASTER,
  34:/home/nahomts/Documents/DaisyExamples/libDaisy/src/per/i2c.h ****             I2C_SLAVE,
  35:/home/nahomts/Documents/DaisyExamples/libDaisy/src/per/i2c.h ****         };
  36:/home/nahomts/Documents/DaisyExamples/libDaisy/src/per/i2c.h **** 
  37:/home/nahomts/Documents/DaisyExamples/libDaisy/src/per/i2c.h ****         /** Specifices the internal peripheral to use (these are mapped to different pins on the ha
  38:/home/nahomts/Documents/DaisyExamples/libDaisy/src/per/i2c.h ****         enum class Peripheral
  39:/home/nahomts/Documents/DaisyExamples/libDaisy/src/per/i2c.h ****         {
  40:/home/nahomts/Documents/DaisyExamples/libDaisy/src/per/i2c.h ****             I2C_1 = 0, /**< & */
  41:/home/nahomts/Documents/DaisyExamples/libDaisy/src/per/i2c.h ****             I2C_2,     /**< & */
  42:/home/nahomts/Documents/DaisyExamples/libDaisy/src/per/i2c.h ****             I2C_3,     /**< & */
  43:/home/nahomts/Documents/DaisyExamples/libDaisy/src/per/i2c.h ****             I2C_4,     /**< & */
  44:/home/nahomts/Documents/DaisyExamples/libDaisy/src/per/i2c.h ****         };
  45:/home/nahomts/Documents/DaisyExamples/libDaisy/src/per/i2c.h **** 
  46:/home/nahomts/Documents/DaisyExamples/libDaisy/src/per/i2c.h ****         /** Rate at which the clock/data will be sent/received. The device being used will have max
  47:/home/nahomts/Documents/DaisyExamples/libDaisy/src/per/i2c.h ****          *  1MHZ Mode is currently 886kHz
  48:/home/nahomts/Documents/DaisyExamples/libDaisy/src/per/i2c.h ****          */
  49:/home/nahomts/Documents/DaisyExamples/libDaisy/src/per/i2c.h ****         enum class Speed
  50:/home/nahomts/Documents/DaisyExamples/libDaisy/src/per/i2c.h ****         {
  51:/home/nahomts/Documents/DaisyExamples/libDaisy/src/per/i2c.h ****             I2C_100KHZ, /**< & */
  52:/home/nahomts/Documents/DaisyExamples/libDaisy/src/per/i2c.h ****             I2C_400KHZ, /**< & */
  53:/home/nahomts/Documents/DaisyExamples/libDaisy/src/per/i2c.h ****             I2C_1MHZ,   /**< & */
  54:/home/nahomts/Documents/DaisyExamples/libDaisy/src/per/i2c.h ****         };
  55:/home/nahomts/Documents/DaisyExamples/libDaisy/src/per/i2c.h **** 
  56:/home/nahomts/Documents/DaisyExamples/libDaisy/src/per/i2c.h ****         Peripheral periph; /**< & */
  57:/home/nahomts/Documents/DaisyExamples/libDaisy/src/per/i2c.h ****         struct
  58:/home/nahomts/Documents/DaisyExamples/libDaisy/src/per/i2c.h ****         {
  59:/home/nahomts/Documents/DaisyExamples/libDaisy/src/per/i2c.h ****             dsy_gpio_pin scl; /**< & */
  60:/home/nahomts/Documents/DaisyExamples/libDaisy/src/per/i2c.h ****             dsy_gpio_pin sda; /**< & */
ARM GAS  /tmp/ccyyZOVG.s 			page 26


  61:/home/nahomts/Documents/DaisyExamples/libDaisy/src/per/i2c.h ****         } pin_config;         /**< & */
  62:/home/nahomts/Documents/DaisyExamples/libDaisy/src/per/i2c.h **** 
  63:/home/nahomts/Documents/DaisyExamples/libDaisy/src/per/i2c.h ****         Speed speed; /**< & */
  64:/home/nahomts/Documents/DaisyExamples/libDaisy/src/per/i2c.h ****         Mode  mode;  /**< & */
  65:/home/nahomts/Documents/DaisyExamples/libDaisy/src/per/i2c.h ****         // 0x10 is chosen as a default to avoid conflicts with reserved addresses
  66:/home/nahomts/Documents/DaisyExamples/libDaisy/src/per/i2c.h ****         uint8_t address = 0x10; /**< & */
  67:/home/nahomts/Documents/DaisyExamples/libDaisy/src/per/i2c.h ****     };
  68:/home/nahomts/Documents/DaisyExamples/libDaisy/src/per/i2c.h **** 
  69:/home/nahomts/Documents/DaisyExamples/libDaisy/src/per/i2c.h ****     /** Return values for I2C functions. */
  70:/home/nahomts/Documents/DaisyExamples/libDaisy/src/per/i2c.h ****     enum class Result
  71:/home/nahomts/Documents/DaisyExamples/libDaisy/src/per/i2c.h ****     {
  72:/home/nahomts/Documents/DaisyExamples/libDaisy/src/per/i2c.h ****         OK, /**< & */
  73:/home/nahomts/Documents/DaisyExamples/libDaisy/src/per/i2c.h ****         ERR /**< & */
  74:/home/nahomts/Documents/DaisyExamples/libDaisy/src/per/i2c.h ****     };
  75:/home/nahomts/Documents/DaisyExamples/libDaisy/src/per/i2c.h **** 
  76:/home/nahomts/Documents/DaisyExamples/libDaisy/src/per/i2c.h ****     enum class Direction
  77:/home/nahomts/Documents/DaisyExamples/libDaisy/src/per/i2c.h ****     {
  78:/home/nahomts/Documents/DaisyExamples/libDaisy/src/per/i2c.h ****         TRANSMIT, /**< & */
  79:/home/nahomts/Documents/DaisyExamples/libDaisy/src/per/i2c.h ****         RECEIVE,  /**< & */
  80:/home/nahomts/Documents/DaisyExamples/libDaisy/src/per/i2c.h ****     };
  81:/home/nahomts/Documents/DaisyExamples/libDaisy/src/per/i2c.h **** 
  82:/home/nahomts/Documents/DaisyExamples/libDaisy/src/per/i2c.h ****     I2CHandle() : pimpl_(nullptr) {}
 427              		.loc 7 82 5 is_stmt 1 view .LVU99
 428              	.LBB173:
 429              	.LBB174:
 430              		.loc 7 82 33 is_stmt 0 view .LVU100
 431 0016 044B     		ldr	r3, .L16+12
 432 0018 1C60     		str	r4, [r3]
 433              	.LVL22:
 434              		.loc 7 82 33 view .LVU101
 435              	.LBE174:
 436              	.LBE173:
 437              	.LBE172:
 438              	.LBE175:
 439              	.LBE176:
 440              		.loc 6 47 1 view .LVU102
 441 001a 10BD     		pop	{r4, pc}
 442              	.L17:
 443              		.align	2
 444              	.L16:
 445 001c 00000000 		.word	.LANCHOR0
 446 0020 00000000 		.word	__dso_handle
 447 0024 00000000 		.word	_ZN5daisy9DaisySeedD1Ev
 448 0028 00000000 		.word	.LANCHOR2
 449              		.cfi_endproc
 450              	.LFE5246:
 452              		.section	.init_array,"aw",%init_array
 453              		.align	2
 454 0000 00000000 		.word	_GLOBAL__sub_I_hardware(target1)
 455              		.global	buffer
 456              		.global	i2c1_handle
 457              		.global	hardware
 458              		.section	.rodata
 459              		.align	2
 460              		.set	.LANCHOR1,. + 0
 461              	.LC0:
 462 0000 01       		.byte	1
ARM GAS  /tmp/ccyyZOVG.s 			page 27


 463 0001 06       		.byte	6
 464 0002 0000     		.space	2
 465              	.LC1:
 466 0004 01       		.byte	1
 467 0005 07       		.byte	7
 468              		.section	.bss.buffer,"aw",%nobits
 469              		.align	2
 470              		.set	.LANCHOR3,. + 0
 473              	buffer:
 474 0000 00000000 		.space	14
 474      00000000 
 474      00000000 
 474      0000
 475              		.section	.bss.hardware,"aw",%nobits
 476              		.align	2
 477              		.set	.LANCHOR0,. + 0
 480              	hardware:
 481 0000 00000000 		.space	64
 481      00000000 
 481      00000000 
 481      00000000 
 481      00000000 
 482              		.section	.bss.i2c1_handle,"aw",%nobits
 483              		.align	2
 484              		.set	.LANCHOR2,. + 0
 487              	i2c1_handle:
 488 0000 00000000 		.space	4
 489              		.text
 490              	.Letext0:
 491              		.file 11 "/home/nahomts/Developer/gcc-arm-none-eabi-10-2020-q4-major/arm-none-eabi/include/machine
 492              		.file 12 "/home/nahomts/Developer/gcc-arm-none-eabi-10-2020-q4-major/arm-none-eabi/include/sys/_st
 493              		.file 13 "/home/nahomts/Developer/gcc-arm-none-eabi-10-2020-q4-major/arm-none-eabi/include/stdint.
 494              		.file 14 "/home/nahomts/Developer/gcc-arm-none-eabi-10-2020-q4-major/lib/gcc/arm-none-eabi/10.2.1/
 495              		.file 15 "/home/nahomts/Developer/gcc-arm-none-eabi-10-2020-q4-major/arm-none-eabi/include/c++/10.
 496              		.file 16 "/home/nahomts/Developer/gcc-arm-none-eabi-10-2020-q4-major/arm-none-eabi/include/c++/10.
 497              		.file 17 "/home/nahomts/Developer/gcc-arm-none-eabi-10-2020-q4-major/arm-none-eabi/include/c++/10.
 498              		.file 18 "/home/nahomts/Developer/gcc-arm-none-eabi-10-2020-q4-major/arm-none-eabi/include/c++/10.
 499              		.file 19 "/home/nahomts/Developer/gcc-arm-none-eabi-10-2020-q4-major/arm-none-eabi/include/c++/10.
 500              		.file 20 "/home/nahomts/Developer/gcc-arm-none-eabi-10-2020-q4-major/arm-none-eabi/include/c++/10.
 501              		.file 21 "/home/nahomts/Developer/gcc-arm-none-eabi-10-2020-q4-major/arm-none-eabi/include/c++/10.
 502              		.file 22 "/home/nahomts/Developer/gcc-arm-none-eabi-10-2020-q4-major/arm-none-eabi/include/c++/10.
 503              		.file 23 "/home/nahomts/Developer/gcc-arm-none-eabi-10-2020-q4-major/arm-none-eabi/include/c++/10.
 504              		.file 24 "/home/nahomts/Developer/gcc-arm-none-eabi-10-2020-q4-major/arm-none-eabi/include/c++/10.
 505              		.file 25 "/home/nahomts/Developer/gcc-arm-none-eabi-10-2020-q4-major/arm-none-eabi/include/c++/10.
 506              		.file 26 "/home/nahomts/Developer/gcc-arm-none-eabi-10-2020-q4-major/arm-none-eabi/include/c++/10.
 507              		.file 27 "/home/nahomts/Developer/gcc-arm-none-eabi-10-2020-q4-major/arm-none-eabi/include/c++/10.
 508              		.file 28 "/home/nahomts/Developer/gcc-arm-none-eabi-10-2020-q4-major/arm-none-eabi/include/c++/10.
 509              		.file 29 "/home/nahomts/Developer/gcc-arm-none-eabi-10-2020-q4-major/arm-none-eabi/include/c++/10.
 510              		.file 30 "/home/nahomts/Developer/gcc-arm-none-eabi-10-2020-q4-major/arm-none-eabi/include/c++/10.
 511              		.file 31 "/home/nahomts/Developer/gcc-arm-none-eabi-10-2020-q4-major/arm-none-eabi/include/c++/10.
 512              		.file 32 "/home/nahomts/Developer/gcc-arm-none-eabi-10-2020-q4-major/arm-none-eabi/include/c++/10.
 513              		.file 33 "/home/nahomts/Developer/gcc-arm-none-eabi-10-2020-q4-major/arm-none-eabi/include/sys/_ty
 514              		.file 34 "/home/nahomts/Developer/gcc-arm-none-eabi-10-2020-q4-major/arm-none-eabi/include/sys/ree
 515              		.file 35 "/home/nahomts/Developer/gcc-arm-none-eabi-10-2020-q4-major/arm-none-eabi/include/sys/loc
 516              		.file 36 "/home/nahomts/Developer/gcc-arm-none-eabi-10-2020-q4-major/arm-none-eabi/include/math.h"
 517              		.file 37 "/home/nahomts/Developer/gcc-arm-none-eabi-10-2020-q4-major/arm-none-eabi/include/stdlib.
 518              		.file 38 "/home/nahomts/Developer/gcc-arm-none-eabi-10-2020-q4-major/arm-none-eabi/include/c++/10.
ARM GAS  /tmp/ccyyZOVG.s 			page 28


 519              		.file 39 "/home/nahomts/Developer/gcc-arm-none-eabi-10-2020-q4-major/arm-none-eabi/include/c++/10.
 520              		.file 40 "/home/nahomts/Documents/DaisyExamples/libDaisy/src/daisy_core.h"
 521              		.file 41 "/home/nahomts/Documents/DaisyExamples/libDaisy/src/per/tim.h"
 522              		.file 42 "/home/nahomts/Documents/DaisyExamples/libDaisy/src/hid/logger_impl.h"
 523              		.file 43 "/home/nahomts/Documents/DaisyExamples/libDaisy/src/util/wav_format.h"
 524              		.file 44 "/home/nahomts/Documents/DaisyExamples/libDaisy/src/dev/max11300.h"
 525              		.file 45 "/home/nahomts/Documents/DaisyExamples/libDaisy/src/hid/logger.h"
 526              		.file 46 "/home/nahomts/Documents/DaisyExamples/libDaisy/src/per/gpio.h"
 527              		.file 47 "/home/nahomts/Documents/DaisyExamples/libDaisy/src/dev/sdram.h"
 528              		.file 48 "/home/nahomts/Developer/gcc-arm-none-eabi-10-2020-q4-major/lib/gcc/arm-none-eabi/10.2.1/
 529              		.file 49 "/home/nahomts/Developer/gcc-arm-none-eabi-10-2020-q4-major/arm-none-eabi/include/stdio.h
 530              		.file 50 "/home/nahomts/Developer/gcc-arm-none-eabi-10-2020-q4-major/arm-none-eabi/include/string.
 531              		.file 51 "/home/nahomts/Documents/DaisyExamples/DaisySP/Source/Control/adenv.h"
 532              		.file 52 "/home/nahomts/Documents/DaisyExamples/DaisySP/Source/Utility/dsp.h"
 533              		.file 53 "/home/nahomts/Developer/gcc-arm-none-eabi-10-2020-q4-major/arm-none-eabi/include/wchar.h
 534              		.file 54 "/home/nahomts/Developer/gcc-arm-none-eabi-10-2020-q4-major/arm-none-eabi/include/locale.
 535              		.file 55 "/home/nahomts/Documents/DaisyExamples/libDaisy/src/dev/sr_595.h"
 536              		.file 56 "<built-in>"
ARM GAS  /tmp/ccyyZOVG.s 			page 29


DEFINED SYMBOLS
                            *ABS*:0000000000000000 main.cpp
     /tmp/ccyyZOVG.s:17     .text._ZN5daisy9DaisySeedD2Ev:0000000000000000 $t
     /tmp/ccyyZOVG.s:26     .text._ZN5daisy9DaisySeedD2Ev:0000000000000000 _ZN5daisy9DaisySeedD2Ev
     /tmp/ccyyZOVG.s:26     .text._ZN5daisy9DaisySeedD2Ev:0000000000000000 _ZN5daisy9DaisySeedD1Ev
     /tmp/ccyyZOVG.s:67     .rodata.main.str1.4:0000000000000000 $d
     /tmp/ccyyZOVG.s:83     .text.startup.main:0000000000000000 $t
     /tmp/ccyyZOVG.s:91     .text.startup.main:0000000000000000 main
     /tmp/ccyyZOVG.s:284    .text.startup.main:0000000000000080 $d
     /tmp/ccyyZOVG.s:301    .text.startup._GLOBAL__sub_I_hardware:0000000000000000 $t
     /tmp/ccyyZOVG.s:308    .text.startup._GLOBAL__sub_I_hardware:0000000000000000 _GLOBAL__sub_I_hardware
     /tmp/ccyyZOVG.s:445    .text.startup._GLOBAL__sub_I_hardware:000000000000001c $d
     /tmp/ccyyZOVG.s:453    .init_array:0000000000000000 $d
     /tmp/ccyyZOVG.s:473    .bss.buffer:0000000000000000 buffer
     /tmp/ccyyZOVG.s:487    .bss.i2c1_handle:0000000000000000 i2c1_handle
     /tmp/ccyyZOVG.s:480    .bss.hardware:0000000000000000 hardware
     /tmp/ccyyZOVG.s:459    .rodata:0000000000000000 $d
     /tmp/ccyyZOVG.s:469    .bss.buffer:0000000000000000 $d
     /tmp/ccyyZOVG.s:476    .bss.hardware:0000000000000000 $d
     /tmp/ccyyZOVG.s:483    .bss.i2c1_handle:0000000000000000 $d
                           .group:0000000000000000 _ZN5daisy9DaisySeedD5Ev

UNDEFINED SYMBOLS
_ZN5daisy9DaisySeed4InitEb
_ZN5daisy6LoggerILNS_17LoggerDestinationE1EE8StartLogEb
_ZN5daisy6LoggerILNS_17LoggerDestinationE1EE5PrintEPKcz
_ZN5daisy9I2CHandle4InitERKNS0_6ConfigE
_ZN5daisy9I2CHandle15ReceiveBlockingEtPhtm
__aeabi_atexit
__dso_handle
