ARM GAS  /var/folders/6w/sx7v0gy94nj4l80r62zsklwh0000gn/T//cc5ARLDT.s 			page 1


   1              		.cpu cortex-m7
   2              		.arch armv7e-m
   3              		.fpu fpv5-d16
   4              		.eabi_attribute 28, 1
   5              		.eabi_attribute 20, 1
   6              		.eabi_attribute 21, 1
   7              		.eabi_attribute 23, 3
   8              		.eabi_attribute 24, 1
   9              		.eabi_attribute 25, 1
  10              		.eabi_attribute 26, 1
  11              		.eabi_attribute 30, 2
  12              		.eabi_attribute 34, 1
  13              		.eabi_attribute 18, 4
  14              		.file	"axis.cpp"
  15              		.text
  16              	.Ltext0:
  17              		.cfi_sections	.debug_frame
  18              		.section	.text._ZN5daisy9DaisySeedD2Ev,"axG",%progbits,_ZN5daisy9DaisySeedD5Ev,comdat
  19              		.align	1
  20              		.p2align 2,,3
  21              		.weak	_ZN5daisy9DaisySeedD2Ev
  22              		.syntax unified
  23              		.thumb
  24              		.thumb_func
  26              	_ZN5daisy9DaisySeedD2Ev:
  27              	.LVL0:
  28              	.LFB2556:
  29              		.file 1 "/Users/paulwang/Desktop/DaisyExamples/libDaisy/src/daisy_seed.h"
   1:/Users/paulwang/Desktop/DaisyExamples/libDaisy/src/daisy_seed.h **** #pragma once
   2:/Users/paulwang/Desktop/DaisyExamples/libDaisy/src/daisy_seed.h **** #ifndef DSY_SEED_H
   3:/Users/paulwang/Desktop/DaisyExamples/libDaisy/src/daisy_seed.h **** #define DSY_SEED_H
   4:/Users/paulwang/Desktop/DaisyExamples/libDaisy/src/daisy_seed.h **** 
   5:/Users/paulwang/Desktop/DaisyExamples/libDaisy/src/daisy_seed.h **** #include "daisy.h"
   6:/Users/paulwang/Desktop/DaisyExamples/libDaisy/src/daisy_seed.h **** 
   7:/Users/paulwang/Desktop/DaisyExamples/libDaisy/src/daisy_seed.h **** //Uncomment this out if you're still using the rev2 hardware
   8:/Users/paulwang/Desktop/DaisyExamples/libDaisy/src/daisy_seed.h **** //#define SEED_REV2
   9:/Users/paulwang/Desktop/DaisyExamples/libDaisy/src/daisy_seed.h **** 
  10:/Users/paulwang/Desktop/DaisyExamples/libDaisy/src/daisy_seed.h **** namespace daisy
  11:/Users/paulwang/Desktop/DaisyExamples/libDaisy/src/daisy_seed.h **** {
  12:/Users/paulwang/Desktop/DaisyExamples/libDaisy/src/daisy_seed.h **** /**
  13:/Users/paulwang/Desktop/DaisyExamples/libDaisy/src/daisy_seed.h ****    @brief This is the higher-level interface for the Daisy board. \n 
  14:/Users/paulwang/Desktop/DaisyExamples/libDaisy/src/daisy_seed.h ****     All basic peripheral configuration/initialization is setup here. \n
  15:/Users/paulwang/Desktop/DaisyExamples/libDaisy/src/daisy_seed.h **** 
  16:/Users/paulwang/Desktop/DaisyExamples/libDaisy/src/daisy_seed.h ****    @ingroup boards
  17:/Users/paulwang/Desktop/DaisyExamples/libDaisy/src/daisy_seed.h **** */
  18:/Users/paulwang/Desktop/DaisyExamples/libDaisy/src/daisy_seed.h **** class DaisySeed
  19:/Users/paulwang/Desktop/DaisyExamples/libDaisy/src/daisy_seed.h **** {
  20:/Users/paulwang/Desktop/DaisyExamples/libDaisy/src/daisy_seed.h ****   public:
  21:/Users/paulwang/Desktop/DaisyExamples/libDaisy/src/daisy_seed.h ****     DaisySeed() {}
  22:/Users/paulwang/Desktop/DaisyExamples/libDaisy/src/daisy_seed.h ****     ~DaisySeed() {}
  30              		.loc 1 22 5 view -0
  31              		.cfi_startproc
  32              		@ args = 0, pretend = 0, frame = 0
  33              		@ frame_needed = 0, uses_anonymous_args = 0
  34              		@ link register save eliminated.
  35              	.LBB101:
  36              	.LBI101:
ARM GAS  /var/folders/6w/sx7v0gy94nj4l80r62zsklwh0000gn/T//cc5ARLDT.s 			page 2


  37              		.file 2 "/Users/paulwang/Desktop/DaisyExamples/libDaisy/src/sys/system.h"
   1:/Users/paulwang/Desktop/DaisyExamples/libDaisy/src/sys/system.h **** #ifndef DSY_SYSTEM_H
   2:/Users/paulwang/Desktop/DaisyExamples/libDaisy/src/sys/system.h **** #define DSY_SYSTEM_H
   3:/Users/paulwang/Desktop/DaisyExamples/libDaisy/src/sys/system.h **** 
   4:/Users/paulwang/Desktop/DaisyExamples/libDaisy/src/sys/system.h **** #ifndef UNIT_TEST // for unit tests, a dummy implementation is provided below
   5:/Users/paulwang/Desktop/DaisyExamples/libDaisy/src/sys/system.h **** 
   6:/Users/paulwang/Desktop/DaisyExamples/libDaisy/src/sys/system.h **** #include <cstdint>
   7:/Users/paulwang/Desktop/DaisyExamples/libDaisy/src/sys/system.h **** #include "per/tim.h"
   8:/Users/paulwang/Desktop/DaisyExamples/libDaisy/src/sys/system.h **** 
   9:/Users/paulwang/Desktop/DaisyExamples/libDaisy/src/sys/system.h **** namespace daisy
  10:/Users/paulwang/Desktop/DaisyExamples/libDaisy/src/sys/system.h **** {
  11:/Users/paulwang/Desktop/DaisyExamples/libDaisy/src/sys/system.h **** /** A handle for interacting with the Core System.
  12:/Users/paulwang/Desktop/DaisyExamples/libDaisy/src/sys/system.h ****  ** This includes the Clock tree, MPU, global DMA initialization,
  13:/Users/paulwang/Desktop/DaisyExamples/libDaisy/src/sys/system.h ****  ** cache handling, and any other necessary global initiailzation
  14:/Users/paulwang/Desktop/DaisyExamples/libDaisy/src/sys/system.h ****  **
  15:/Users/paulwang/Desktop/DaisyExamples/libDaisy/src/sys/system.h ****  ** @author shensley
  16:/Users/paulwang/Desktop/DaisyExamples/libDaisy/src/sys/system.h ****  ** @ingroup system
  17:/Users/paulwang/Desktop/DaisyExamples/libDaisy/src/sys/system.h ****  */
  18:/Users/paulwang/Desktop/DaisyExamples/libDaisy/src/sys/system.h **** class System
  19:/Users/paulwang/Desktop/DaisyExamples/libDaisy/src/sys/system.h **** {
  20:/Users/paulwang/Desktop/DaisyExamples/libDaisy/src/sys/system.h ****   public:
  21:/Users/paulwang/Desktop/DaisyExamples/libDaisy/src/sys/system.h ****     /** Contains settings for initializing the System */
  22:/Users/paulwang/Desktop/DaisyExamples/libDaisy/src/sys/system.h ****     struct Config
  23:/Users/paulwang/Desktop/DaisyExamples/libDaisy/src/sys/system.h ****     {
  24:/Users/paulwang/Desktop/DaisyExamples/libDaisy/src/sys/system.h ****         /** Specifies the system clock frequency that feeds APB/AHB clocks, etc. */
  25:/Users/paulwang/Desktop/DaisyExamples/libDaisy/src/sys/system.h ****         enum class SysClkFreq
  26:/Users/paulwang/Desktop/DaisyExamples/libDaisy/src/sys/system.h ****         {
  27:/Users/paulwang/Desktop/DaisyExamples/libDaisy/src/sys/system.h ****             FREQ_400MHZ,
  28:/Users/paulwang/Desktop/DaisyExamples/libDaisy/src/sys/system.h ****             FREQ_480MHZ,
  29:/Users/paulwang/Desktop/DaisyExamples/libDaisy/src/sys/system.h ****         };
  30:/Users/paulwang/Desktop/DaisyExamples/libDaisy/src/sys/system.h **** 
  31:/Users/paulwang/Desktop/DaisyExamples/libDaisy/src/sys/system.h ****         /** Method to call on the struct to set to defaults
  32:/Users/paulwang/Desktop/DaisyExamples/libDaisy/src/sys/system.h ****          ** CPU Freq set to 400MHz
  33:/Users/paulwang/Desktop/DaisyExamples/libDaisy/src/sys/system.h ****          ** Cache Enabled
  34:/Users/paulwang/Desktop/DaisyExamples/libDaisy/src/sys/system.h ****          ** */
  35:/Users/paulwang/Desktop/DaisyExamples/libDaisy/src/sys/system.h ****         void Defaults()
  36:/Users/paulwang/Desktop/DaisyExamples/libDaisy/src/sys/system.h ****         {
  37:/Users/paulwang/Desktop/DaisyExamples/libDaisy/src/sys/system.h ****             cpu_freq    = SysClkFreq::FREQ_400MHZ;
  38:/Users/paulwang/Desktop/DaisyExamples/libDaisy/src/sys/system.h ****             use_dcache  = true;
  39:/Users/paulwang/Desktop/DaisyExamples/libDaisy/src/sys/system.h ****             use_icache  = true;
  40:/Users/paulwang/Desktop/DaisyExamples/libDaisy/src/sys/system.h ****             skip_clocks = false;
  41:/Users/paulwang/Desktop/DaisyExamples/libDaisy/src/sys/system.h ****         }
  42:/Users/paulwang/Desktop/DaisyExamples/libDaisy/src/sys/system.h **** 
  43:/Users/paulwang/Desktop/DaisyExamples/libDaisy/src/sys/system.h ****         /** Method to call on the struct to set to boost mode:
  44:/Users/paulwang/Desktop/DaisyExamples/libDaisy/src/sys/system.h ****          ** CPU Freq set to 480MHz
  45:/Users/paulwang/Desktop/DaisyExamples/libDaisy/src/sys/system.h ****          ** Cache Enabled
  46:/Users/paulwang/Desktop/DaisyExamples/libDaisy/src/sys/system.h ****          ** */
  47:/Users/paulwang/Desktop/DaisyExamples/libDaisy/src/sys/system.h ****         void Boost()
  48:/Users/paulwang/Desktop/DaisyExamples/libDaisy/src/sys/system.h ****         {
  49:/Users/paulwang/Desktop/DaisyExamples/libDaisy/src/sys/system.h ****             cpu_freq    = SysClkFreq::FREQ_480MHZ;
  50:/Users/paulwang/Desktop/DaisyExamples/libDaisy/src/sys/system.h ****             use_dcache  = true;
  51:/Users/paulwang/Desktop/DaisyExamples/libDaisy/src/sys/system.h ****             use_icache  = true;
  52:/Users/paulwang/Desktop/DaisyExamples/libDaisy/src/sys/system.h ****             skip_clocks = false;
  53:/Users/paulwang/Desktop/DaisyExamples/libDaisy/src/sys/system.h ****         }
  54:/Users/paulwang/Desktop/DaisyExamples/libDaisy/src/sys/system.h **** 
  55:/Users/paulwang/Desktop/DaisyExamples/libDaisy/src/sys/system.h ****         SysClkFreq cpu_freq;
  56:/Users/paulwang/Desktop/DaisyExamples/libDaisy/src/sys/system.h ****         bool       use_dcache;
ARM GAS  /var/folders/6w/sx7v0gy94nj4l80r62zsklwh0000gn/T//cc5ARLDT.s 			page 3


  57:/Users/paulwang/Desktop/DaisyExamples/libDaisy/src/sys/system.h ****         bool       use_icache;
  58:/Users/paulwang/Desktop/DaisyExamples/libDaisy/src/sys/system.h ****         bool       skip_clocks;
  59:/Users/paulwang/Desktop/DaisyExamples/libDaisy/src/sys/system.h ****     };
  60:/Users/paulwang/Desktop/DaisyExamples/libDaisy/src/sys/system.h **** 
  61:/Users/paulwang/Desktop/DaisyExamples/libDaisy/src/sys/system.h ****     /** Describes the different regions of memory available to the Daisy */
  62:/Users/paulwang/Desktop/DaisyExamples/libDaisy/src/sys/system.h ****     enum MemoryRegion
  63:/Users/paulwang/Desktop/DaisyExamples/libDaisy/src/sys/system.h ****     {
  64:/Users/paulwang/Desktop/DaisyExamples/libDaisy/src/sys/system.h ****         INTERNAL_FLASH = 0,
  65:/Users/paulwang/Desktop/DaisyExamples/libDaisy/src/sys/system.h ****         ITCMRAM,
  66:/Users/paulwang/Desktop/DaisyExamples/libDaisy/src/sys/system.h ****         DTCMRAM,
  67:/Users/paulwang/Desktop/DaisyExamples/libDaisy/src/sys/system.h ****         SRAM_D1,
  68:/Users/paulwang/Desktop/DaisyExamples/libDaisy/src/sys/system.h ****         SRAM_D2,
  69:/Users/paulwang/Desktop/DaisyExamples/libDaisy/src/sys/system.h ****         SRAM_D3,
  70:/Users/paulwang/Desktop/DaisyExamples/libDaisy/src/sys/system.h ****         SDRAM,
  71:/Users/paulwang/Desktop/DaisyExamples/libDaisy/src/sys/system.h ****         QSPI,
  72:/Users/paulwang/Desktop/DaisyExamples/libDaisy/src/sys/system.h ****         INVALID_ADDRESS,
  73:/Users/paulwang/Desktop/DaisyExamples/libDaisy/src/sys/system.h ****     };
  74:/Users/paulwang/Desktop/DaisyExamples/libDaisy/src/sys/system.h **** 
  75:/Users/paulwang/Desktop/DaisyExamples/libDaisy/src/sys/system.h ****     /** Bootloader struct for controlling bootloading parameters */
  76:/Users/paulwang/Desktop/DaisyExamples/libDaisy/src/sys/system.h ****     struct BootInfo
  77:/Users/paulwang/Desktop/DaisyExamples/libDaisy/src/sys/system.h ****     {
  78:/Users/paulwang/Desktop/DaisyExamples/libDaisy/src/sys/system.h ****         enum class Type : uint32_t
  79:/Users/paulwang/Desktop/DaisyExamples/libDaisy/src/sys/system.h ****         {
  80:/Users/paulwang/Desktop/DaisyExamples/libDaisy/src/sys/system.h ****             INVALID      = 0x00000000,
  81:/Users/paulwang/Desktop/DaisyExamples/libDaisy/src/sys/system.h ****             JUMP         = 0xDEADBEEF,
  82:/Users/paulwang/Desktop/DaisyExamples/libDaisy/src/sys/system.h ****             SKIP_TIMEOUT = 0x5AFEB007,
  83:/Users/paulwang/Desktop/DaisyExamples/libDaisy/src/sys/system.h ****             INF_TIMEOUT  = 0xB0074EFA,
  84:/Users/paulwang/Desktop/DaisyExamples/libDaisy/src/sys/system.h ****         } status;
  85:/Users/paulwang/Desktop/DaisyExamples/libDaisy/src/sys/system.h ****         uint32_t data;
  86:/Users/paulwang/Desktop/DaisyExamples/libDaisy/src/sys/system.h ****         enum class Version : uint32_t
  87:/Users/paulwang/Desktop/DaisyExamples/libDaisy/src/sys/system.h ****         {
  88:/Users/paulwang/Desktop/DaisyExamples/libDaisy/src/sys/system.h ****             LT_v6_0 = 0, // Less than v6.0
  89:/Users/paulwang/Desktop/DaisyExamples/libDaisy/src/sys/system.h ****             NONE,        // No bootloader present
  90:/Users/paulwang/Desktop/DaisyExamples/libDaisy/src/sys/system.h ****             v6_0,        // v6.0
  91:/Users/paulwang/Desktop/DaisyExamples/libDaisy/src/sys/system.h ****             v6_1,        // v6.1 or greater
  92:/Users/paulwang/Desktop/DaisyExamples/libDaisy/src/sys/system.h ****             LAST
  93:/Users/paulwang/Desktop/DaisyExamples/libDaisy/src/sys/system.h ****         } version;
  94:/Users/paulwang/Desktop/DaisyExamples/libDaisy/src/sys/system.h ****     };
  95:/Users/paulwang/Desktop/DaisyExamples/libDaisy/src/sys/system.h **** 
  96:/Users/paulwang/Desktop/DaisyExamples/libDaisy/src/sys/system.h ****     System() {}
  97:/Users/paulwang/Desktop/DaisyExamples/libDaisy/src/sys/system.h ****     ~System() {}
  38              		.loc 2 97 5 view .LVU1
  39              		.loc 2 97 5 is_stmt 0 view .LVU2
  40              	.LBE101:
  41              	.LBB102:
  42              	.LBI102:
  43              		.file 3 "/Users/paulwang/Desktop/DaisyExamples/libDaisy/src/hid/usb.h"
   1:/Users/paulwang/Desktop/DaisyExamples/libDaisy/src/hid/usb.h **** #pragma once
   2:/Users/paulwang/Desktop/DaisyExamples/libDaisy/src/hid/usb.h **** #ifndef DSY_HID_USB_H
   3:/Users/paulwang/Desktop/DaisyExamples/libDaisy/src/hid/usb.h **** #define DSY_HID_USB_H
   4:/Users/paulwang/Desktop/DaisyExamples/libDaisy/src/hid/usb.h **** #include <stdint.h>
   5:/Users/paulwang/Desktop/DaisyExamples/libDaisy/src/hid/usb.h **** #include <stdlib.h>
   6:/Users/paulwang/Desktop/DaisyExamples/libDaisy/src/hid/usb.h **** 
   7:/Users/paulwang/Desktop/DaisyExamples/libDaisy/src/hid/usb.h **** namespace daisy
   8:/Users/paulwang/Desktop/DaisyExamples/libDaisy/src/hid/usb.h **** /** @addtogroup human_interface
   9:/Users/paulwang/Desktop/DaisyExamples/libDaisy/src/hid/usb.h ****     @{
  10:/Users/paulwang/Desktop/DaisyExamples/libDaisy/src/hid/usb.h **** */
ARM GAS  /var/folders/6w/sx7v0gy94nj4l80r62zsklwh0000gn/T//cc5ARLDT.s 			page 4


  11:/Users/paulwang/Desktop/DaisyExamples/libDaisy/src/hid/usb.h **** 
  12:/Users/paulwang/Desktop/DaisyExamples/libDaisy/src/hid/usb.h **** {
  13:/Users/paulwang/Desktop/DaisyExamples/libDaisy/src/hid/usb.h **** /** 
  14:/Users/paulwang/Desktop/DaisyExamples/libDaisy/src/hid/usb.h ****     @brief Interface for initializing and using the USB Peripherals on the daisy
  15:/Users/paulwang/Desktop/DaisyExamples/libDaisy/src/hid/usb.h ****     @author Stephen Hensley
  16:/Users/paulwang/Desktop/DaisyExamples/libDaisy/src/hid/usb.h ****     @date December 2019
  17:/Users/paulwang/Desktop/DaisyExamples/libDaisy/src/hid/usb.h **** */
  18:/Users/paulwang/Desktop/DaisyExamples/libDaisy/src/hid/usb.h **** class UsbHandle
  19:/Users/paulwang/Desktop/DaisyExamples/libDaisy/src/hid/usb.h **** {
  20:/Users/paulwang/Desktop/DaisyExamples/libDaisy/src/hid/usb.h ****   public:
  21:/Users/paulwang/Desktop/DaisyExamples/libDaisy/src/hid/usb.h ****     /** Return values for USBHandle Functions */
  22:/Users/paulwang/Desktop/DaisyExamples/libDaisy/src/hid/usb.h ****     enum class Result
  23:/Users/paulwang/Desktop/DaisyExamples/libDaisy/src/hid/usb.h ****     {
  24:/Users/paulwang/Desktop/DaisyExamples/libDaisy/src/hid/usb.h ****         OK,
  25:/Users/paulwang/Desktop/DaisyExamples/libDaisy/src/hid/usb.h ****         ERR,
  26:/Users/paulwang/Desktop/DaisyExamples/libDaisy/src/hid/usb.h ****     };
  27:/Users/paulwang/Desktop/DaisyExamples/libDaisy/src/hid/usb.h **** 
  28:/Users/paulwang/Desktop/DaisyExamples/libDaisy/src/hid/usb.h ****     /** Specified which of the two USB Peripherals to initialize. */
  29:/Users/paulwang/Desktop/DaisyExamples/libDaisy/src/hid/usb.h ****     enum UsbPeriph
  30:/Users/paulwang/Desktop/DaisyExamples/libDaisy/src/hid/usb.h ****     {
  31:/Users/paulwang/Desktop/DaisyExamples/libDaisy/src/hid/usb.h ****         FS_INTERNAL, /**< Internal pin */
  32:/Users/paulwang/Desktop/DaisyExamples/libDaisy/src/hid/usb.h ****         FS_EXTERNAL, /**< FS External D+ pin is Pin 38 (GPIO32). FS External D- pin is Pin 37 (GPIO
  33:/Users/paulwang/Desktop/DaisyExamples/libDaisy/src/hid/usb.h ****         FS_BOTH,     /**< Both */
  34:/Users/paulwang/Desktop/DaisyExamples/libDaisy/src/hid/usb.h ****     };
  35:/Users/paulwang/Desktop/DaisyExamples/libDaisy/src/hid/usb.h **** 
  36:/Users/paulwang/Desktop/DaisyExamples/libDaisy/src/hid/usb.h **** 
  37:/Users/paulwang/Desktop/DaisyExamples/libDaisy/src/hid/usb.h ****     /** Function called upon reception of a buffer */
  38:/Users/paulwang/Desktop/DaisyExamples/libDaisy/src/hid/usb.h ****     typedef void (*ReceiveCallback)(uint8_t* buff, uint32_t* len);
  39:/Users/paulwang/Desktop/DaisyExamples/libDaisy/src/hid/usb.h **** 
  40:/Users/paulwang/Desktop/DaisyExamples/libDaisy/src/hid/usb.h ****     UsbHandle() {}
  41:/Users/paulwang/Desktop/DaisyExamples/libDaisy/src/hid/usb.h **** 
  42:/Users/paulwang/Desktop/DaisyExamples/libDaisy/src/hid/usb.h ****     ~UsbHandle() {}
  44              		.loc 3 42 5 is_stmt 1 view .LVU3
  45              		.loc 3 42 5 is_stmt 0 view .LVU4
  46              	.LBE102:
  47              	.LBB103:
  48              	.LBI103:
  49              		.file 4 "/Users/paulwang/Desktop/DaisyExamples/libDaisy/src/per/adc.h"
   1:/Users/paulwang/Desktop/DaisyExamples/libDaisy/src/per/adc.h **** #pragma once
   2:/Users/paulwang/Desktop/DaisyExamples/libDaisy/src/per/adc.h **** #ifndef DSY_ADC_H
   3:/Users/paulwang/Desktop/DaisyExamples/libDaisy/src/per/adc.h **** #define DSY_ADC_H /**< Macro */
   4:/Users/paulwang/Desktop/DaisyExamples/libDaisy/src/per/adc.h **** #include <stdint.h>
   5:/Users/paulwang/Desktop/DaisyExamples/libDaisy/src/per/adc.h **** #include <stdlib.h>
   6:/Users/paulwang/Desktop/DaisyExamples/libDaisy/src/per/adc.h **** #include "daisy_core.h"
   7:/Users/paulwang/Desktop/DaisyExamples/libDaisy/src/per/adc.h **** #include "per/gpio.h"
   8:/Users/paulwang/Desktop/DaisyExamples/libDaisy/src/per/adc.h **** 
   9:/Users/paulwang/Desktop/DaisyExamples/libDaisy/src/per/adc.h **** #define DSY_ADC_MAX_CHANNELS 16 /**< Maximum number of ADC channels */
  10:/Users/paulwang/Desktop/DaisyExamples/libDaisy/src/per/adc.h **** 
  11:/Users/paulwang/Desktop/DaisyExamples/libDaisy/src/per/adc.h **** namespace daisy
  12:/Users/paulwang/Desktop/DaisyExamples/libDaisy/src/per/adc.h **** {
  13:/Users/paulwang/Desktop/DaisyExamples/libDaisy/src/per/adc.h **** /** @addtogroup per_analog
  14:/Users/paulwang/Desktop/DaisyExamples/libDaisy/src/per/adc.h ****     @{
  15:/Users/paulwang/Desktop/DaisyExamples/libDaisy/src/per/adc.h **** */
  16:/Users/paulwang/Desktop/DaisyExamples/libDaisy/src/per/adc.h **** 
  17:/Users/paulwang/Desktop/DaisyExamples/libDaisy/src/per/adc.h **** /* While there may not be many configuration options here,
  18:/Users/paulwang/Desktop/DaisyExamples/libDaisy/src/per/adc.h **** using a struct like this allows us to add more configuration
  19:/Users/paulwang/Desktop/DaisyExamples/libDaisy/src/per/adc.h **** later without breaking existing functionality.
ARM GAS  /var/folders/6w/sx7v0gy94nj4l80r62zsklwh0000gn/T//cc5ARLDT.s 			page 5


  20:/Users/paulwang/Desktop/DaisyExamples/libDaisy/src/per/adc.h **** */
  21:/Users/paulwang/Desktop/DaisyExamples/libDaisy/src/per/adc.h **** 
  22:/Users/paulwang/Desktop/DaisyExamples/libDaisy/src/per/adc.h **** /** @brief   Configuration Structure for an ADC Channel 
  23:/Users/paulwang/Desktop/DaisyExamples/libDaisy/src/per/adc.h ****  *  @details This can be used to configure a a single input, 
  24:/Users/paulwang/Desktop/DaisyExamples/libDaisy/src/per/adc.h ****  *           or a multiplexed input, allowing up to 8 inputs on 
  25:/Users/paulwang/Desktop/DaisyExamples/libDaisy/src/per/adc.h ****  *           one channel.
  26:/Users/paulwang/Desktop/DaisyExamples/libDaisy/src/per/adc.h ****  *  @note    Sharing data lines to multiple muxes _is_ possible, but
  27:/Users/paulwang/Desktop/DaisyExamples/libDaisy/src/per/adc.h ****  *           each channel sharing data lines must be set to the maximum
  28:/Users/paulwang/Desktop/DaisyExamples/libDaisy/src/per/adc.h ****  *           number of channels, even if some multiplexers have fewer
  29:/Users/paulwang/Desktop/DaisyExamples/libDaisy/src/per/adc.h ****  *           inputs connected.
  30:/Users/paulwang/Desktop/DaisyExamples/libDaisy/src/per/adc.h **** */
  31:/Users/paulwang/Desktop/DaisyExamples/libDaisy/src/per/adc.h **** struct AdcChannelConfig
  32:/Users/paulwang/Desktop/DaisyExamples/libDaisy/src/per/adc.h **** {
  33:/Users/paulwang/Desktop/DaisyExamples/libDaisy/src/per/adc.h ****     /** Which pin to use for multiplexing */
  34:/Users/paulwang/Desktop/DaisyExamples/libDaisy/src/per/adc.h ****     enum MuxPin
  35:/Users/paulwang/Desktop/DaisyExamples/libDaisy/src/per/adc.h ****     {
  36:/Users/paulwang/Desktop/DaisyExamples/libDaisy/src/per/adc.h ****         MUX_SEL_0,    /**< & */
  37:/Users/paulwang/Desktop/DaisyExamples/libDaisy/src/per/adc.h ****         MUX_SEL_1,    /**< & */
  38:/Users/paulwang/Desktop/DaisyExamples/libDaisy/src/per/adc.h ****         MUX_SEL_2,    /**< & */
  39:/Users/paulwang/Desktop/DaisyExamples/libDaisy/src/per/adc.h ****         MUX_SEL_LAST, /**< & */
  40:/Users/paulwang/Desktop/DaisyExamples/libDaisy/src/per/adc.h ****     };
  41:/Users/paulwang/Desktop/DaisyExamples/libDaisy/src/per/adc.h **** 
  42:/Users/paulwang/Desktop/DaisyExamples/libDaisy/src/per/adc.h ****     /** \brief per channel conversion speed added to fixed time based on bitdepth, etc. */
  43:/Users/paulwang/Desktop/DaisyExamples/libDaisy/src/per/adc.h ****     enum ConversionSpeed
  44:/Users/paulwang/Desktop/DaisyExamples/libDaisy/src/per/adc.h ****     {
  45:/Users/paulwang/Desktop/DaisyExamples/libDaisy/src/per/adc.h ****         SPEED_1CYCLES_5,
  46:/Users/paulwang/Desktop/DaisyExamples/libDaisy/src/per/adc.h ****         SPEED_2CYCLES_5,
  47:/Users/paulwang/Desktop/DaisyExamples/libDaisy/src/per/adc.h ****         SPEED_8CYCLES_5,
  48:/Users/paulwang/Desktop/DaisyExamples/libDaisy/src/per/adc.h ****         SPEED_16CYCLES_5,
  49:/Users/paulwang/Desktop/DaisyExamples/libDaisy/src/per/adc.h ****         SPEED_32CYCLES_5,
  50:/Users/paulwang/Desktop/DaisyExamples/libDaisy/src/per/adc.h ****         SPEED_64CYCLES_5,
  51:/Users/paulwang/Desktop/DaisyExamples/libDaisy/src/per/adc.h ****         SPEED_387CYCLES_5,
  52:/Users/paulwang/Desktop/DaisyExamples/libDaisy/src/per/adc.h ****         SPEED_810CYCLES_5,
  53:/Users/paulwang/Desktop/DaisyExamples/libDaisy/src/per/adc.h ****     };
  54:/Users/paulwang/Desktop/DaisyExamples/libDaisy/src/per/adc.h **** 
  55:/Users/paulwang/Desktop/DaisyExamples/libDaisy/src/per/adc.h ****     /** Initializes a single ADC pin as an ADC. 
  56:/Users/paulwang/Desktop/DaisyExamples/libDaisy/src/per/adc.h ****     \param pin Pin to init.
  57:/Users/paulwang/Desktop/DaisyExamples/libDaisy/src/per/adc.h ****     \param speed conversion speed for this pin defaults to 8.5 cycles
  58:/Users/paulwang/Desktop/DaisyExamples/libDaisy/src/per/adc.h ****      */
  59:/Users/paulwang/Desktop/DaisyExamples/libDaisy/src/per/adc.h ****     void InitSingle(dsy_gpio_pin pin, ConversionSpeed speed = SPEED_8CYCLES_5);
  60:/Users/paulwang/Desktop/DaisyExamples/libDaisy/src/per/adc.h **** 
  61:/Users/paulwang/Desktop/DaisyExamples/libDaisy/src/per/adc.h ****     /** 
  62:/Users/paulwang/Desktop/DaisyExamples/libDaisy/src/per/adc.h ****     Initializes a single ADC pin as a Multiplexed ADC.
  63:/Users/paulwang/Desktop/DaisyExamples/libDaisy/src/per/adc.h ****     Requires a CD405X Multiplexer connected to the pin.
  64:/Users/paulwang/Desktop/DaisyExamples/libDaisy/src/per/adc.h ****     You only need to supply the mux pins that are required,
  65:/Users/paulwang/Desktop/DaisyExamples/libDaisy/src/per/adc.h ****     e.g. a 4052 mux would only require mux_0 and mux_1.
  66:/Users/paulwang/Desktop/DaisyExamples/libDaisy/src/per/adc.h ****     Internal Callbacks handle the pin addressing.
  67:/Users/paulwang/Desktop/DaisyExamples/libDaisy/src/per/adc.h ****     \param adc_pin &
  68:/Users/paulwang/Desktop/DaisyExamples/libDaisy/src/per/adc.h ****     \param mux_channels must be 1-8
  69:/Users/paulwang/Desktop/DaisyExamples/libDaisy/src/per/adc.h ****     \param mux_0 First mux pin
  70:/Users/paulwang/Desktop/DaisyExamples/libDaisy/src/per/adc.h ****     \param mux_1 Second mux pin
  71:/Users/paulwang/Desktop/DaisyExamples/libDaisy/src/per/adc.h ****     \param mux_2 Third mux pin
  72:/Users/paulwang/Desktop/DaisyExamples/libDaisy/src/per/adc.h ****     \param speed conversion speed for this pin defaults to 8.5 cycles
  73:/Users/paulwang/Desktop/DaisyExamples/libDaisy/src/per/adc.h ****     */
  74:/Users/paulwang/Desktop/DaisyExamples/libDaisy/src/per/adc.h ****     void InitMux(dsy_gpio_pin    adc_pin,
  75:/Users/paulwang/Desktop/DaisyExamples/libDaisy/src/per/adc.h ****                  size_t          mux_channels,
  76:/Users/paulwang/Desktop/DaisyExamples/libDaisy/src/per/adc.h ****                  dsy_gpio_pin    mux_0,
ARM GAS  /var/folders/6w/sx7v0gy94nj4l80r62zsklwh0000gn/T//cc5ARLDT.s 			page 6


  77:/Users/paulwang/Desktop/DaisyExamples/libDaisy/src/per/adc.h ****                  dsy_gpio_pin    mux_1 = {DSY_GPIOX, 0},
  78:/Users/paulwang/Desktop/DaisyExamples/libDaisy/src/per/adc.h ****                  dsy_gpio_pin    mux_2 = {DSY_GPIOX, 0},
  79:/Users/paulwang/Desktop/DaisyExamples/libDaisy/src/per/adc.h ****                  ConversionSpeed speed = SPEED_8CYCLES_5);
  80:/Users/paulwang/Desktop/DaisyExamples/libDaisy/src/per/adc.h **** 
  81:/Users/paulwang/Desktop/DaisyExamples/libDaisy/src/per/adc.h ****     dsy_gpio        pin_;                   /**< & */
  82:/Users/paulwang/Desktop/DaisyExamples/libDaisy/src/per/adc.h ****     dsy_gpio        mux_pin_[MUX_SEL_LAST]; /**< & */
  83:/Users/paulwang/Desktop/DaisyExamples/libDaisy/src/per/adc.h ****     uint8_t         mux_channels_;          /**< & */
  84:/Users/paulwang/Desktop/DaisyExamples/libDaisy/src/per/adc.h ****     ConversionSpeed speed_;
  85:/Users/paulwang/Desktop/DaisyExamples/libDaisy/src/per/adc.h **** };
  86:/Users/paulwang/Desktop/DaisyExamples/libDaisy/src/per/adc.h **** 
  87:/Users/paulwang/Desktop/DaisyExamples/libDaisy/src/per/adc.h **** /**
  88:/Users/paulwang/Desktop/DaisyExamples/libDaisy/src/per/adc.h ****    @brief Handler for analog to digital conversion
  89:/Users/paulwang/Desktop/DaisyExamples/libDaisy/src/per/adc.h **** */
  90:/Users/paulwang/Desktop/DaisyExamples/libDaisy/src/per/adc.h **** class AdcHandle
  91:/Users/paulwang/Desktop/DaisyExamples/libDaisy/src/per/adc.h **** {
  92:/Users/paulwang/Desktop/DaisyExamples/libDaisy/src/per/adc.h ****   public:
  93:/Users/paulwang/Desktop/DaisyExamples/libDaisy/src/per/adc.h ****     /** Supported oversampling amounts */
  94:/Users/paulwang/Desktop/DaisyExamples/libDaisy/src/per/adc.h ****     enum OverSampling
  95:/Users/paulwang/Desktop/DaisyExamples/libDaisy/src/per/adc.h ****     {
  96:/Users/paulwang/Desktop/DaisyExamples/libDaisy/src/per/adc.h ****         OVS_NONE, /**< & */
  97:/Users/paulwang/Desktop/DaisyExamples/libDaisy/src/per/adc.h ****         OVS_4,    /**< & */
  98:/Users/paulwang/Desktop/DaisyExamples/libDaisy/src/per/adc.h ****         OVS_8,    /**< & */
  99:/Users/paulwang/Desktop/DaisyExamples/libDaisy/src/per/adc.h ****         OVS_16,   /**< & */
 100:/Users/paulwang/Desktop/DaisyExamples/libDaisy/src/per/adc.h ****         OVS_32,   /**< & */
 101:/Users/paulwang/Desktop/DaisyExamples/libDaisy/src/per/adc.h ****         OVS_64,   /**< & */
 102:/Users/paulwang/Desktop/DaisyExamples/libDaisy/src/per/adc.h ****         OVS_128,  /**< & */
 103:/Users/paulwang/Desktop/DaisyExamples/libDaisy/src/per/adc.h ****         OVS_256,  /**< & */
 104:/Users/paulwang/Desktop/DaisyExamples/libDaisy/src/per/adc.h ****         OVS_512,  /**< & */
 105:/Users/paulwang/Desktop/DaisyExamples/libDaisy/src/per/adc.h ****         OVS_1024, /**< & */
 106:/Users/paulwang/Desktop/DaisyExamples/libDaisy/src/per/adc.h ****         OVS_LAST, /**< & */
 107:/Users/paulwang/Desktop/DaisyExamples/libDaisy/src/per/adc.h ****     };
 108:/Users/paulwang/Desktop/DaisyExamples/libDaisy/src/per/adc.h **** 
 109:/Users/paulwang/Desktop/DaisyExamples/libDaisy/src/per/adc.h ****     AdcHandle() {}
 110:/Users/paulwang/Desktop/DaisyExamples/libDaisy/src/per/adc.h ****     ~AdcHandle() {}
  50              		.loc 4 110 5 is_stmt 1 view .LVU5
  51              		.loc 4 110 5 is_stmt 0 view .LVU6
  52              	.LBE103:
  53              	.LBB104:
  54              	.LBI104:
  55              		.file 5 "/Users/paulwang/Desktop/DaisyExamples/libDaisy/src/hid/audio.h"
   1:/Users/paulwang/Desktop/DaisyExamples/libDaisy/src/hid/audio.h **** #ifndef DSY_AUDIO_H
   2:/Users/paulwang/Desktop/DaisyExamples/libDaisy/src/hid/audio.h **** #define DSY_AUDIO_H /**< & */
   3:/Users/paulwang/Desktop/DaisyExamples/libDaisy/src/hid/audio.h **** 
   4:/Users/paulwang/Desktop/DaisyExamples/libDaisy/src/hid/audio.h **** #include "per/sai.h"
   5:/Users/paulwang/Desktop/DaisyExamples/libDaisy/src/hid/audio.h **** 
   6:/Users/paulwang/Desktop/DaisyExamples/libDaisy/src/hid/audio.h **** namespace daisy
   7:/Users/paulwang/Desktop/DaisyExamples/libDaisy/src/hid/audio.h **** {
   8:/Users/paulwang/Desktop/DaisyExamples/libDaisy/src/hid/audio.h **** /** @brief Audio Engine Handle
   9:/Users/paulwang/Desktop/DaisyExamples/libDaisy/src/hid/audio.h ****  *  @ingroup audio 
  10:/Users/paulwang/Desktop/DaisyExamples/libDaisy/src/hid/audio.h ****  *  @details This class allows for higher level access to an audio engine.
  11:/Users/paulwang/Desktop/DaisyExamples/libDaisy/src/hid/audio.h ****  *           If you're using a SOM like the DaisySeed or DaisyPatchSM (or any 
  12:/Users/paulwang/Desktop/DaisyExamples/libDaisy/src/hid/audio.h ****  *            board that includes one of those objects) then the intialization
  13:/Users/paulwang/Desktop/DaisyExamples/libDaisy/src/hid/audio.h ****  *            is already taken  care of.
  14:/Users/paulwang/Desktop/DaisyExamples/libDaisy/src/hid/audio.h ****  *           If you're setting up your own custom hardware, or need to make changes
  15:/Users/paulwang/Desktop/DaisyExamples/libDaisy/src/hid/audio.h ****  *           you will have to take the following steps:
  16:/Users/paulwang/Desktop/DaisyExamples/libDaisy/src/hid/audio.h ****  *             1. Create and Initialize an SaiHandle or two depending on your requirements
  17:/Users/paulwang/Desktop/DaisyExamples/libDaisy/src/hid/audio.h ****  *             2. Initialize the Audio Handle with the desired settings and the Initialized SaiHand
ARM GAS  /var/folders/6w/sx7v0gy94nj4l80r62zsklwh0000gn/T//cc5ARLDT.s 			page 7


  18:/Users/paulwang/Desktop/DaisyExamples/libDaisy/src/hid/audio.h ****  *             3. If the connected codec requires special configuration or initialization, do so
  19:/Users/paulwang/Desktop/DaisyExamples/libDaisy/src/hid/audio.h ****  *             4. Write a callback method using either the AudioCallback or the InterleavingAudioCa
  20:/Users/paulwang/Desktop/DaisyExamples/libDaisy/src/hid/audio.h ****  *             5. Start the Audio using one of the StartAudio function
  21:/Users/paulwang/Desktop/DaisyExamples/libDaisy/src/hid/audio.h ****  */
  22:/Users/paulwang/Desktop/DaisyExamples/libDaisy/src/hid/audio.h **** class AudioHandle
  23:/Users/paulwang/Desktop/DaisyExamples/libDaisy/src/hid/audio.h **** {
  24:/Users/paulwang/Desktop/DaisyExamples/libDaisy/src/hid/audio.h ****   public:
  25:/Users/paulwang/Desktop/DaisyExamples/libDaisy/src/hid/audio.h ****     /** Manually configurable details about the Audio Engine */
  26:/Users/paulwang/Desktop/DaisyExamples/libDaisy/src/hid/audio.h ****     /** TODO: Figure out how to get samplerate in here. */
  27:/Users/paulwang/Desktop/DaisyExamples/libDaisy/src/hid/audio.h ****     struct Config
  28:/Users/paulwang/Desktop/DaisyExamples/libDaisy/src/hid/audio.h ****     {
  29:/Users/paulwang/Desktop/DaisyExamples/libDaisy/src/hid/audio.h ****         /** number of samples to process per callback */
  30:/Users/paulwang/Desktop/DaisyExamples/libDaisy/src/hid/audio.h ****         size_t blocksize;
  31:/Users/paulwang/Desktop/DaisyExamples/libDaisy/src/hid/audio.h **** 
  32:/Users/paulwang/Desktop/DaisyExamples/libDaisy/src/hid/audio.h ****         /**< Sample rate of audio */
  33:/Users/paulwang/Desktop/DaisyExamples/libDaisy/src/hid/audio.h ****         SaiHandle::Config::SampleRate samplerate;
  34:/Users/paulwang/Desktop/DaisyExamples/libDaisy/src/hid/audio.h **** 
  35:/Users/paulwang/Desktop/DaisyExamples/libDaisy/src/hid/audio.h ****         /** factor for adjustment before and after callback for hardware that may have extra headro
  36:/Users/paulwang/Desktop/DaisyExamples/libDaisy/src/hid/audio.h ****         float postgain;
  37:/Users/paulwang/Desktop/DaisyExamples/libDaisy/src/hid/audio.h **** 
  38:/Users/paulwang/Desktop/DaisyExamples/libDaisy/src/hid/audio.h ****         /** factor for additional one-sided compensation to audio path for hardware that may
  39:/Users/paulwang/Desktop/DaisyExamples/libDaisy/src/hid/audio.h ****          *  have unequal input/output ranges
  40:/Users/paulwang/Desktop/DaisyExamples/libDaisy/src/hid/audio.h ****          */
  41:/Users/paulwang/Desktop/DaisyExamples/libDaisy/src/hid/audio.h ****         float output_compensation;
  42:/Users/paulwang/Desktop/DaisyExamples/libDaisy/src/hid/audio.h **** 
  43:/Users/paulwang/Desktop/DaisyExamples/libDaisy/src/hid/audio.h ****         /** Sets default values for config struct */
  44:/Users/paulwang/Desktop/DaisyExamples/libDaisy/src/hid/audio.h ****         Config()
  45:/Users/paulwang/Desktop/DaisyExamples/libDaisy/src/hid/audio.h ****         : blocksize(48),
  46:/Users/paulwang/Desktop/DaisyExamples/libDaisy/src/hid/audio.h ****           samplerate(SaiHandle::Config::SampleRate::SAI_48KHZ),
  47:/Users/paulwang/Desktop/DaisyExamples/libDaisy/src/hid/audio.h ****           postgain(1.f),
  48:/Users/paulwang/Desktop/DaisyExamples/libDaisy/src/hid/audio.h ****           output_compensation(1.f)
  49:/Users/paulwang/Desktop/DaisyExamples/libDaisy/src/hid/audio.h ****         {
  50:/Users/paulwang/Desktop/DaisyExamples/libDaisy/src/hid/audio.h ****         }
  51:/Users/paulwang/Desktop/DaisyExamples/libDaisy/src/hid/audio.h ****     };
  52:/Users/paulwang/Desktop/DaisyExamples/libDaisy/src/hid/audio.h **** 
  53:/Users/paulwang/Desktop/DaisyExamples/libDaisy/src/hid/audio.h ****     enum class Result
  54:/Users/paulwang/Desktop/DaisyExamples/libDaisy/src/hid/audio.h ****     {
  55:/Users/paulwang/Desktop/DaisyExamples/libDaisy/src/hid/audio.h ****         OK,
  56:/Users/paulwang/Desktop/DaisyExamples/libDaisy/src/hid/audio.h ****         ERR,
  57:/Users/paulwang/Desktop/DaisyExamples/libDaisy/src/hid/audio.h ****     };
  58:/Users/paulwang/Desktop/DaisyExamples/libDaisy/src/hid/audio.h **** 
  59:/Users/paulwang/Desktop/DaisyExamples/libDaisy/src/hid/audio.h ****     /** Non-Interleaving input buffer
  60:/Users/paulwang/Desktop/DaisyExamples/libDaisy/src/hid/audio.h ****      * Buffer arranged by float[chn][sample] 
  61:/Users/paulwang/Desktop/DaisyExamples/libDaisy/src/hid/audio.h ****      * const so that the user can't modify the input
  62:/Users/paulwang/Desktop/DaisyExamples/libDaisy/src/hid/audio.h ****      */
  63:/Users/paulwang/Desktop/DaisyExamples/libDaisy/src/hid/audio.h ****     typedef const float* const* InputBuffer;
  64:/Users/paulwang/Desktop/DaisyExamples/libDaisy/src/hid/audio.h **** 
  65:/Users/paulwang/Desktop/DaisyExamples/libDaisy/src/hid/audio.h ****     /** Non-Interleaving output buffer
  66:/Users/paulwang/Desktop/DaisyExamples/libDaisy/src/hid/audio.h ****      * Arranged by float[chn][sample] 
  67:/Users/paulwang/Desktop/DaisyExamples/libDaisy/src/hid/audio.h ****      */
  68:/Users/paulwang/Desktop/DaisyExamples/libDaisy/src/hid/audio.h ****     typedef float** OutputBuffer;
  69:/Users/paulwang/Desktop/DaisyExamples/libDaisy/src/hid/audio.h **** 
  70:/Users/paulwang/Desktop/DaisyExamples/libDaisy/src/hid/audio.h ****     /** Type for a Non-Interleaving audio callback 
  71:/Users/paulwang/Desktop/DaisyExamples/libDaisy/src/hid/audio.h ****      * Non-Interleaving audio callbacks in daisy will be of this type
  72:/Users/paulwang/Desktop/DaisyExamples/libDaisy/src/hid/audio.h ****      */
  73:/Users/paulwang/Desktop/DaisyExamples/libDaisy/src/hid/audio.h ****     typedef void (*AudioCallback)(InputBuffer  in,
  74:/Users/paulwang/Desktop/DaisyExamples/libDaisy/src/hid/audio.h ****                                   OutputBuffer out,
ARM GAS  /var/folders/6w/sx7v0gy94nj4l80r62zsklwh0000gn/T//cc5ARLDT.s 			page 8


  75:/Users/paulwang/Desktop/DaisyExamples/libDaisy/src/hid/audio.h ****                                   size_t       size);
  76:/Users/paulwang/Desktop/DaisyExamples/libDaisy/src/hid/audio.h **** 
  77:/Users/paulwang/Desktop/DaisyExamples/libDaisy/src/hid/audio.h ****     /** Interleaving Input buffer
  78:/Users/paulwang/Desktop/DaisyExamples/libDaisy/src/hid/audio.h ****      ** audio is prepared as { L0, R0, L1, R1, . . . LN, RN }]
  79:/Users/paulwang/Desktop/DaisyExamples/libDaisy/src/hid/audio.h ****      ** this is const, as the user shouldn't modify it
  80:/Users/paulwang/Desktop/DaisyExamples/libDaisy/src/hid/audio.h ****     */
  81:/Users/paulwang/Desktop/DaisyExamples/libDaisy/src/hid/audio.h ****     typedef const float* InterleavingInputBuffer;
  82:/Users/paulwang/Desktop/DaisyExamples/libDaisy/src/hid/audio.h **** 
  83:/Users/paulwang/Desktop/DaisyExamples/libDaisy/src/hid/audio.h ****     /** Interleaving Output buffer 
  84:/Users/paulwang/Desktop/DaisyExamples/libDaisy/src/hid/audio.h ****      ** audio is prepared as { L0, R0, L1, R1, . . . LN, RN }
  85:/Users/paulwang/Desktop/DaisyExamples/libDaisy/src/hid/audio.h ****     */
  86:/Users/paulwang/Desktop/DaisyExamples/libDaisy/src/hid/audio.h ****     typedef float* InterleavingOutputBuffer;
  87:/Users/paulwang/Desktop/DaisyExamples/libDaisy/src/hid/audio.h **** 
  88:/Users/paulwang/Desktop/DaisyExamples/libDaisy/src/hid/audio.h ****     /** Interleaving Audio Callback 
  89:/Users/paulwang/Desktop/DaisyExamples/libDaisy/src/hid/audio.h ****      * Interleaving audio callbacks in daisy must be of this type
  90:/Users/paulwang/Desktop/DaisyExamples/libDaisy/src/hid/audio.h ****      */
  91:/Users/paulwang/Desktop/DaisyExamples/libDaisy/src/hid/audio.h ****     typedef void (*InterleavingAudioCallback)(InterleavingInputBuffer  in,
  92:/Users/paulwang/Desktop/DaisyExamples/libDaisy/src/hid/audio.h ****                                               InterleavingOutputBuffer out,
  93:/Users/paulwang/Desktop/DaisyExamples/libDaisy/src/hid/audio.h ****                                               size_t                   size);
  94:/Users/paulwang/Desktop/DaisyExamples/libDaisy/src/hid/audio.h **** 
  95:/Users/paulwang/Desktop/DaisyExamples/libDaisy/src/hid/audio.h ****     AudioHandle() : pimpl_(nullptr) {}
  96:/Users/paulwang/Desktop/DaisyExamples/libDaisy/src/hid/audio.h ****     ~AudioHandle() {}
  56              		.loc 5 96 5 is_stmt 1 view .LVU7
  57              		.loc 5 96 5 is_stmt 0 view .LVU8
  58              	.LBE104:
  59              		.loc 1 22 19 view .LVU9
  60 0000 7047     		bx	lr
  61              		.cfi_endproc
  62              	.LFE2556:
  64              		.weak	_ZN5daisy9DaisySeedD1Ev
  65              		.thumb_set _ZN5daisy9DaisySeedD1Ev,_ZN5daisy9DaisySeedD2Ev
  66 0002 00BF     		.section	.text._ZN7daisysp10OscillatorD2Ev,"axG",%progbits,_ZN7daisysp10OscillatorD5Ev,comdat
  67              		.align	1
  68              		.p2align 2,,3
  69              		.weak	_ZN7daisysp10OscillatorD2Ev
  70              		.syntax unified
  71              		.thumb
  72              		.thumb_func
  74              	_ZN7daisysp10OscillatorD2Ev:
  75              	.LVL1:
  76              	.LFB4241:
  77              		.file 6 "/Users/paulwang/Desktop/DaisyExamples/DaisySP/Source/Synthesis/oscillator.h"
   1:/Users/paulwang/Desktop/DaisyExamples/DaisySP/Source/Synthesis/oscillator.h **** /*
   2:/Users/paulwang/Desktop/DaisyExamples/DaisySP/Source/Synthesis/oscillator.h **** Copyright (c) 2020 Electrosmith, Corp
   3:/Users/paulwang/Desktop/DaisyExamples/DaisySP/Source/Synthesis/oscillator.h **** 
   4:/Users/paulwang/Desktop/DaisyExamples/DaisySP/Source/Synthesis/oscillator.h **** Use of this source code is governed by an MIT-style
   5:/Users/paulwang/Desktop/DaisyExamples/DaisySP/Source/Synthesis/oscillator.h **** license that can be found in the LICENSE file or at
   6:/Users/paulwang/Desktop/DaisyExamples/DaisySP/Source/Synthesis/oscillator.h **** https://opensource.org/licenses/MIT.
   7:/Users/paulwang/Desktop/DaisyExamples/DaisySP/Source/Synthesis/oscillator.h **** */
   8:/Users/paulwang/Desktop/DaisyExamples/DaisySP/Source/Synthesis/oscillator.h **** 
   9:/Users/paulwang/Desktop/DaisyExamples/DaisySP/Source/Synthesis/oscillator.h **** #pragma once
  10:/Users/paulwang/Desktop/DaisyExamples/DaisySP/Source/Synthesis/oscillator.h **** #ifndef DSY_OSCILLATOR_H
  11:/Users/paulwang/Desktop/DaisyExamples/DaisySP/Source/Synthesis/oscillator.h **** #define DSY_OSCILLATOR_H
  12:/Users/paulwang/Desktop/DaisyExamples/DaisySP/Source/Synthesis/oscillator.h **** #include <stdint.h>
  13:/Users/paulwang/Desktop/DaisyExamples/DaisySP/Source/Synthesis/oscillator.h **** #include "Utility/dsp.h"
  14:/Users/paulwang/Desktop/DaisyExamples/DaisySP/Source/Synthesis/oscillator.h **** #ifdef __cplusplus
  15:/Users/paulwang/Desktop/DaisyExamples/DaisySP/Source/Synthesis/oscillator.h **** 
ARM GAS  /var/folders/6w/sx7v0gy94nj4l80r62zsklwh0000gn/T//cc5ARLDT.s 			page 9


  16:/Users/paulwang/Desktop/DaisyExamples/DaisySP/Source/Synthesis/oscillator.h **** namespace daisysp
  17:/Users/paulwang/Desktop/DaisyExamples/DaisySP/Source/Synthesis/oscillator.h **** {
  18:/Users/paulwang/Desktop/DaisyExamples/DaisySP/Source/Synthesis/oscillator.h **** /** Synthesis of several waveforms, including polyBLEP bandlimited waveforms.
  19:/Users/paulwang/Desktop/DaisyExamples/DaisySP/Source/Synthesis/oscillator.h **** */
  20:/Users/paulwang/Desktop/DaisyExamples/DaisySP/Source/Synthesis/oscillator.h **** class Oscillator
  21:/Users/paulwang/Desktop/DaisyExamples/DaisySP/Source/Synthesis/oscillator.h **** {
  22:/Users/paulwang/Desktop/DaisyExamples/DaisySP/Source/Synthesis/oscillator.h ****   public:
  23:/Users/paulwang/Desktop/DaisyExamples/DaisySP/Source/Synthesis/oscillator.h ****     Oscillator() {}
  24:/Users/paulwang/Desktop/DaisyExamples/DaisySP/Source/Synthesis/oscillator.h ****     ~Oscillator() {}
  78              		.loc 6 24 5 is_stmt 1 view -0
  79              		.cfi_startproc
  80              		@ args = 0, pretend = 0, frame = 0
  81              		@ frame_needed = 0, uses_anonymous_args = 0
  82              		@ link register save eliminated.
  83              		.loc 6 24 20 is_stmt 0 view .LVU11
  84 0000 7047     		bx	lr
  85              		.cfi_endproc
  86              	.LFE4241:
  88              		.weak	_ZN7daisysp10OscillatorD1Ev
  89              		.thumb_set _ZN7daisysp10OscillatorD1Ev,_ZN7daisysp10OscillatorD2Ev
  90 0002 00BF     		.section	.text._Z13AudioCallbackPKPKfPPfj,"ax",%progbits
  91              		.align	1
  92              		.p2align 2,,3
  93              		.global	_Z13AudioCallbackPKPKfPPfj
  94              		.syntax unified
  95              		.thumb
  96              		.thumb_func
  98              	_Z13AudioCallbackPKPKfPPfj:
  99              	.LVL2:
 100              	.LFB4682:
 101              		.file 7 "axis.cpp"
   1:axis.cpp      **** #include "mpu6050.h"
   2:axis.cpp      **** #include "daisy_seed.h"
   3:axis.cpp      **** #include "daisysp.h"
   4:axis.cpp      **** 
   5:axis.cpp      **** using namespace daisy;
   6:axis.cpp      **** using namespace daisysp;
   7:axis.cpp      **** 
   8:axis.cpp      **** 
   9:axis.cpp      **** DaisySeed hw;
  10:axis.cpp      **** Oscillator osc;
  11:axis.cpp      **** SensorData data;
  12:axis.cpp      **** void AudioCallback(AudioHandle::InputBuffer  in,
  13:axis.cpp      ****                    AudioHandle::OutputBuffer out,
  14:axis.cpp      ****                    size_t                    size)
  15:axis.cpp      **** {
 102              		.loc 7 15 1 is_stmt 1 view -0
 103              		.cfi_startproc
 104              		@ args = 0, pretend = 0, frame = 0
 105              		@ frame_needed = 0, uses_anonymous_args = 0
 106              		@ link register save eliminated.
  16:axis.cpp      **** 
  17:axis.cpp      ****     // static uint32_t counter = 0;
  18:axis.cpp      **** 
  19:axis.cpp      ****     
  20:axis.cpp      ****     // Read orientation around every 100ms
  21:axis.cpp      ****     // if (counter++ % 1200 == 0) {
ARM GAS  /var/folders/6w/sx7v0gy94nj4l80r62zsklwh0000gn/T//cc5ARLDT.s 			page 10


  22:axis.cpp      ****     //     data = ReadSensorData();
  23:axis.cpp      ****  
  24:axis.cpp      ****     //     osc.SetFreq(440 + data.pitch/3.6);
  25:axis.cpp      ****     // }
  26:axis.cpp      **** 
  27:axis.cpp      **** 
  28:axis.cpp      ****     int modulator = int(data.pitch) % 1000;
 107              		.loc 7 28 5 view .LVU13
 108              		.loc 7 28 30 is_stmt 0 view .LVU14
 109 0000 164B     		ldr	r3, .L10
 110              		.loc 7 28 21 view .LVU15
 111 0002 D3ED0A7A 		vldr.32	s15, [r3, #40]
 112 0006 FDEEE77A 		vcvt.s32.f32	s15, s15
  15:axis.cpp      **** 
 113              		.loc 7 15 1 view .LVU16
 114 000a 10B4     		push	{r4}
 115              		.cfi_def_cfa_offset 4
 116              		.cfi_offset 4, -4
 117              		.loc 7 28 21 view .LVU17
 118 000c 17EE903A 		vmov	r3, s15	@ int
 119              		.loc 7 28 9 view .LVU18
 120 0010 134C     		ldr	r4, .L10+4
 121 0012 84FB03C4 		smull	ip, r4, r4, r3
 122 0016 4FEAE37C 		asr	ip, r3, #31
 123 001a CCEBA41C 		rsb	ip, ip, r4, asr #6
 124 001e 4FF47A74 		mov	r4, #1000
 125 0022 04FB1C3C 		mls	ip, r4, ip, r3
 126              	.LVL3:
  29:axis.cpp      **** 
  30:axis.cpp      ****     // Pass-through audio for now
  31:axis.cpp      ****     for(size_t i = 0; i < size; i++)
 127              		.loc 7 31 5 is_stmt 1 view .LVU19
 128              	.LBB105:
 129              		.loc 7 31 25 view .LVU20
 130 0026 B2B1     		cbz	r2, .L4
  32:axis.cpp      ****     {
  33:axis.cpp      ****         out[0][i] = in[0][i] + modulator;
 131              		.loc 7 33 30 is_stmt 0 view .LVU21
 132 0028 07EE90CA 		vmov	s15, ip	@ int
 133 002c 0368     		ldr	r3, [r0]
 134 002e B8EEE77A 		vcvt.f32.s32	s14, s15
 135 0032 03EB8202 		add	r2, r3, r2, lsl #2
 136              	.LVL4:
 137              		.loc 7 33 30 view .LVU22
 138 0036 D1E90001 		ldrd	r0, r1, [r1]
 139              	.LVL5:
 140              	.L7:
 141              		.loc 7 33 9 is_stmt 1 discriminator 2 view .LVU23
 142              		.loc 7 33 28 is_stmt 0 discriminator 2 view .LVU24
 143 003a D3ED007A 		vldr.32	s15, [r3]
 144              		.loc 7 33 30 discriminator 2 view .LVU25
 145 003e 77EE877A 		vadd.f32	s15, s15, s14
 146              		.loc 7 33 19 discriminator 2 view .LVU26
 147 0042 E0EC017A 		vstmia.32	r0!, {s15}
  34:axis.cpp      ****         out[1][i] = in[0][i] + modulator;
 148              		.loc 7 34 9 is_stmt 1 discriminator 2 view .LVU27
 149              		.loc 7 34 30 is_stmt 0 discriminator 2 view .LVU28
ARM GAS  /var/folders/6w/sx7v0gy94nj4l80r62zsklwh0000gn/T//cc5ARLDT.s 			page 11


 150 0046 F3EC017A 		vldmia.32	r3!, {s15}
 151 004a 77EE877A 		vadd.f32	s15, s15, s14
  31:axis.cpp      ****     {
 152              		.loc 7 31 25 discriminator 2 view .LVU29
 153 004e 9342     		cmp	r3, r2
 154              		.loc 7 34 19 discriminator 2 view .LVU30
 155 0050 E1EC017A 		vstmia.32	r1!, {s15}
  31:axis.cpp      ****     {
 156              		.loc 7 31 5 is_stmt 1 discriminator 2 view .LVU31
  31:axis.cpp      ****     {
 157              		.loc 7 31 25 discriminator 2 view .LVU32
 158 0054 F1D1     		bne	.L7
 159              	.L4:
 160              	.LBE105:
  35:axis.cpp      ****     }
  36:axis.cpp      **** }
 161              		.loc 7 36 1 is_stmt 0 view .LVU33
 162 0056 5DF8044B 		ldr	r4, [sp], #4
 163              		.cfi_restore 4
 164              		.cfi_def_cfa_offset 0
 165 005a 7047     		bx	lr
 166              	.L11:
 167              		.align	2
 168              	.L10:
 169 005c 00000000 		.word	.LANCHOR0
 170 0060 D34D6210 		.word	274877907
 171              		.cfi_endproc
 172              	.LFE4682:
 174              		.section	.rodata.main.str1.4,"aMS",%progbits,1
 175              		.align	2
 176              	.LC0:
 177 0000 3D3D3D20 		.ascii	"=== MPU6050 Test ===\000"
 177      4D505536 
 177      30353020 
 177      54657374 
 177      203D3D3D 
 178 0015 000000   		.align	2
 179              	.LC1:
 180 0018 4D505536 		.ascii	"MPU6050 Initialized\000"
 180      30353020 
 180      496E6974 
 180      69616C69 
 180      7A656400 
 181              		.align	2
 182              	.LC2:
 183 002c 4D505536 		.ascii	"MPU6050 Connected!\000"
 183      30353020 
 183      436F6E6E 
 183      65637465 
 183      642100
 184 003f 00       		.align	2
 185              	.LC3:
 186 0040 53746172 		.ascii	"Starting main loop...\012\000"
 186      74696E67 
 186      206D6169 
 186      6E206C6F 
 186      6F702E2E 
ARM GAS  /var/folders/6w/sx7v0gy94nj4l80r62zsklwh0000gn/T//cc5ARLDT.s 			page 12


 187 0057 00       		.align	2
 188              	.LC4:
 189 0058 4552524F 		.ascii	"ERROR: MPU6050 Not Found!\000"
 189      523A204D 
 189      50553630 
 189      3530204E 
 189      6F742046 
 190 0072 0000     		.align	2
 191              	.LC5:
 192 0074 52656164 		.ascii	"Reading Data now...\012\000"
 192      696E6720 
 192      44617461 
 192      206E6F77 
 192      2E2E2E0A 
 193 0089 000000   		.align	2
 194              	.LC6:
 195 008c 41636365 		.ascii	"Accel: X=%.2f Y=%.2f Z=%.2f g\000"
 195      6C3A2058 
 195      3D252E32 
 195      6620593D 
 195      252E3266 
 196 00aa 0000     		.align	2
 197              	.LC7:
 198 00ac 4779726F 		.ascii	"Gyro:  X=%.1f Y=%.1f Z=%.1f dps\000"
 198      3A202058 
 198      3D252E31 
 198      6620593D 
 198      252E3166 
 199              		.align	2
 200              	.LC8:
 201 00cc 416E676C 		.ascii	"Angles: Roll=%.1f Pitch=%.1f\012\000"
 201      65733A20 
 201      526F6C6C 
 201      3D252E31 
 201      66205069 
 202              		.section	.text.startup.main,"ax",%progbits
 203              		.align	1
 204              		.p2align 2,,3
 205              		.global	main
 206              		.syntax unified
 207              		.thumb
 208              		.thumb_func
 210              	main:
 211              	.LFB4683:
  37:axis.cpp      **** 
  38:axis.cpp      **** int main(void)
  39:axis.cpp      **** {
 212              		.loc 7 39 1 is_stmt 1 view -0
 213              		.cfi_startproc
 214              		@ args = 0, pretend = 0, frame = 48
 215              		@ frame_needed = 0, uses_anonymous_args = 0
  40:axis.cpp      ****     // Initialize Daisy
  41:axis.cpp      ****     hw.Configure();
 216              		.loc 7 41 5 view .LVU35
  39:axis.cpp      ****     // Initialize Daisy
 217              		.loc 7 39 1 is_stmt 0 view .LVU36
 218 0000 30B5     		push	{r4, r5, lr}
ARM GAS  /var/folders/6w/sx7v0gy94nj4l80r62zsklwh0000gn/T//cc5ARLDT.s 			page 13


 219              		.cfi_def_cfa_offset 12
 220              		.cfi_offset 4, -12
 221              		.cfi_offset 5, -8
 222              		.cfi_offset 14, -4
 223              		.loc 7 41 17 view .LVU37
 224 0002 6248     		ldr	r0, .L19
  39:axis.cpp      ****     // Initialize Daisy
 225              		.loc 7 39 1 view .LVU38
 226 0004 91B0     		sub	sp, sp, #68
 227              		.cfi_def_cfa_offset 80
 228              		.loc 7 41 17 view .LVU39
 229 0006 FFF7FEFF 		bl	_ZN5daisy9DaisySeed9ConfigureEv
 230              	.LVL6:
  42:axis.cpp      ****     hw.Init();
 231              		.loc 7 42 5 is_stmt 1 view .LVU40
 232              		.loc 7 42 12 is_stmt 0 view .LVU41
 233 000a 0021     		movs	r1, #0
 234 000c 5F48     		ldr	r0, .L19
 235 000e FFF7FEFF 		bl	_ZN5daisy9DaisySeed4InitEb
 236              	.LVL7:
  43:axis.cpp      ****     hw.SetAudioBlockSize(4);
 237              		.loc 7 43 5 is_stmt 1 view .LVU42
 238              		.loc 7 43 25 is_stmt 0 view .LVU43
 239 0012 0421     		movs	r1, #4
 240 0014 5D48     		ldr	r0, .L19
 241 0016 FFF7FEFF 		bl	_ZN5daisy9DaisySeed17SetAudioBlockSizeEj
 242              	.LVL8:
  44:axis.cpp      ****     
  45:axis.cpp      ****     // Start USB serial for debugging
  46:axis.cpp      ****     hw.StartLog(false);
 243              		.loc 7 46 5 is_stmt 1 view .LVU44
 244              	.LBB134:
 245              	.LBI134:
  23:/Users/paulwang/Desktop/DaisyExamples/libDaisy/src/daisy_seed.h **** 
  24:/Users/paulwang/Desktop/DaisyExamples/libDaisy/src/daisy_seed.h ****     /** This function used to provide a pre-initialization configuraiton 
  25:/Users/paulwang/Desktop/DaisyExamples/libDaisy/src/daisy_seed.h ****      *  it has since been deprecated, and does nothing.
  26:/Users/paulwang/Desktop/DaisyExamples/libDaisy/src/daisy_seed.h ****      */
  27:/Users/paulwang/Desktop/DaisyExamples/libDaisy/src/daisy_seed.h ****     void Configure();
  28:/Users/paulwang/Desktop/DaisyExamples/libDaisy/src/daisy_seed.h **** 
  29:/Users/paulwang/Desktop/DaisyExamples/libDaisy/src/daisy_seed.h ****     /** 
  30:/Users/paulwang/Desktop/DaisyExamples/libDaisy/src/daisy_seed.h ****     Initializes the Daisy Seed and the following peripherals:
  31:/Users/paulwang/Desktop/DaisyExamples/libDaisy/src/daisy_seed.h ****     SDRAM, QSPI, 24-bit 48kHz Audio via AK4556, Internal USB,
  32:/Users/paulwang/Desktop/DaisyExamples/libDaisy/src/daisy_seed.h ****     as well as the built-in LED and Testpoint.
  33:/Users/paulwang/Desktop/DaisyExamples/libDaisy/src/daisy_seed.h **** 
  34:/Users/paulwang/Desktop/DaisyExamples/libDaisy/src/daisy_seed.h ****     ADCs, DACs, and other special peripherals (such as I2C, SPI, etc.)
  35:/Users/paulwang/Desktop/DaisyExamples/libDaisy/src/daisy_seed.h ****     can be initialized using their specific initializers within libdaisy
  36:/Users/paulwang/Desktop/DaisyExamples/libDaisy/src/daisy_seed.h ****     for a specific application.
  37:/Users/paulwang/Desktop/DaisyExamples/libDaisy/src/daisy_seed.h ****     */
  38:/Users/paulwang/Desktop/DaisyExamples/libDaisy/src/daisy_seed.h ****     void Init(bool boost = false);
  39:/Users/paulwang/Desktop/DaisyExamples/libDaisy/src/daisy_seed.h **** 
  40:/Users/paulwang/Desktop/DaisyExamples/libDaisy/src/daisy_seed.h ****     /** 
  41:/Users/paulwang/Desktop/DaisyExamples/libDaisy/src/daisy_seed.h ****     Deinitializes all peripherals automatically handled by `Init`.
  42:/Users/paulwang/Desktop/DaisyExamples/libDaisy/src/daisy_seed.h ****     */
  43:/Users/paulwang/Desktop/DaisyExamples/libDaisy/src/daisy_seed.h ****     void DeInit();
  44:/Users/paulwang/Desktop/DaisyExamples/libDaisy/src/daisy_seed.h **** 
  45:/Users/paulwang/Desktop/DaisyExamples/libDaisy/src/daisy_seed.h ****     /** 
  46:/Users/paulwang/Desktop/DaisyExamples/libDaisy/src/daisy_seed.h ****     Wait some ms before going on.
ARM GAS  /var/folders/6w/sx7v0gy94nj4l80r62zsklwh0000gn/T//cc5ARLDT.s 			page 14


  47:/Users/paulwang/Desktop/DaisyExamples/libDaisy/src/daisy_seed.h ****     \param del Delay time in ms.
  48:/Users/paulwang/Desktop/DaisyExamples/libDaisy/src/daisy_seed.h ****     */
  49:/Users/paulwang/Desktop/DaisyExamples/libDaisy/src/daisy_seed.h ****     void DelayMs(size_t del);
  50:/Users/paulwang/Desktop/DaisyExamples/libDaisy/src/daisy_seed.h **** 
  51:/Users/paulwang/Desktop/DaisyExamples/libDaisy/src/daisy_seed.h ****     /** 
  52:/Users/paulwang/Desktop/DaisyExamples/libDaisy/src/daisy_seed.h ****     Returns the gpio_pin corresponding to the index 0-31.
  53:/Users/paulwang/Desktop/DaisyExamples/libDaisy/src/daisy_seed.h ****     For the given GPIO on the Daisy Seed (labeled 1-32 in docs).
  54:/Users/paulwang/Desktop/DaisyExamples/libDaisy/src/daisy_seed.h ****     */
  55:/Users/paulwang/Desktop/DaisyExamples/libDaisy/src/daisy_seed.h ****     static dsy_gpio_pin GetPin(uint8_t pin_idx);
  56:/Users/paulwang/Desktop/DaisyExamples/libDaisy/src/daisy_seed.h **** 
  57:/Users/paulwang/Desktop/DaisyExamples/libDaisy/src/daisy_seed.h ****     /** Begins the audio for the seeds builtin audio.
  58:/Users/paulwang/Desktop/DaisyExamples/libDaisy/src/daisy_seed.h ****     the specified callback will get called whenever
  59:/Users/paulwang/Desktop/DaisyExamples/libDaisy/src/daisy_seed.h ****     new data is ready to be prepared.
  60:/Users/paulwang/Desktop/DaisyExamples/libDaisy/src/daisy_seed.h ****     */
  61:/Users/paulwang/Desktop/DaisyExamples/libDaisy/src/daisy_seed.h ****     void StartAudio(AudioHandle::InterleavingAudioCallback cb);
  62:/Users/paulwang/Desktop/DaisyExamples/libDaisy/src/daisy_seed.h **** 
  63:/Users/paulwang/Desktop/DaisyExamples/libDaisy/src/daisy_seed.h ****     /** Begins the audio for the seeds builtin audio.
  64:/Users/paulwang/Desktop/DaisyExamples/libDaisy/src/daisy_seed.h ****     the specified callback will get called whenever
  65:/Users/paulwang/Desktop/DaisyExamples/libDaisy/src/daisy_seed.h ****     new data is ready to be prepared.
  66:/Users/paulwang/Desktop/DaisyExamples/libDaisy/src/daisy_seed.h ****     This will use the newer non-interleaved callback.
  67:/Users/paulwang/Desktop/DaisyExamples/libDaisy/src/daisy_seed.h ****     */
  68:/Users/paulwang/Desktop/DaisyExamples/libDaisy/src/daisy_seed.h ****     void StartAudio(AudioHandle::AudioCallback cb);
  69:/Users/paulwang/Desktop/DaisyExamples/libDaisy/src/daisy_seed.h **** 
  70:/Users/paulwang/Desktop/DaisyExamples/libDaisy/src/daisy_seed.h ****     /** Changes to a new interleaved callback
  71:/Users/paulwang/Desktop/DaisyExamples/libDaisy/src/daisy_seed.h ****      */
  72:/Users/paulwang/Desktop/DaisyExamples/libDaisy/src/daisy_seed.h ****     void ChangeAudioCallback(AudioHandle::InterleavingAudioCallback cb);
  73:/Users/paulwang/Desktop/DaisyExamples/libDaisy/src/daisy_seed.h **** 
  74:/Users/paulwang/Desktop/DaisyExamples/libDaisy/src/daisy_seed.h ****     /** Changes to a new multichannel callback
  75:/Users/paulwang/Desktop/DaisyExamples/libDaisy/src/daisy_seed.h ****      */
  76:/Users/paulwang/Desktop/DaisyExamples/libDaisy/src/daisy_seed.h ****     void ChangeAudioCallback(AudioHandle::AudioCallback cb);
  77:/Users/paulwang/Desktop/DaisyExamples/libDaisy/src/daisy_seed.h **** 
  78:/Users/paulwang/Desktop/DaisyExamples/libDaisy/src/daisy_seed.h ****     /** Stops the audio if it is running. */
  79:/Users/paulwang/Desktop/DaisyExamples/libDaisy/src/daisy_seed.h ****     void StopAudio();
  80:/Users/paulwang/Desktop/DaisyExamples/libDaisy/src/daisy_seed.h **** 
  81:/Users/paulwang/Desktop/DaisyExamples/libDaisy/src/daisy_seed.h ****     /** Updates the Audio Sample Rate, and reinitializes.
  82:/Users/paulwang/Desktop/DaisyExamples/libDaisy/src/daisy_seed.h ****      ** Audio must be stopped for this to work.
  83:/Users/paulwang/Desktop/DaisyExamples/libDaisy/src/daisy_seed.h ****      */
  84:/Users/paulwang/Desktop/DaisyExamples/libDaisy/src/daisy_seed.h ****     void SetAudioSampleRate(SaiHandle::Config::SampleRate samplerate);
  85:/Users/paulwang/Desktop/DaisyExamples/libDaisy/src/daisy_seed.h **** 
  86:/Users/paulwang/Desktop/DaisyExamples/libDaisy/src/daisy_seed.h ****     /** Returns the audio sample rate in Hz as a floating point number.
  87:/Users/paulwang/Desktop/DaisyExamples/libDaisy/src/daisy_seed.h ****      */
  88:/Users/paulwang/Desktop/DaisyExamples/libDaisy/src/daisy_seed.h ****     float AudioSampleRate();
  89:/Users/paulwang/Desktop/DaisyExamples/libDaisy/src/daisy_seed.h **** 
  90:/Users/paulwang/Desktop/DaisyExamples/libDaisy/src/daisy_seed.h ****     /** Sets the number of samples processed per channel by the audio callback.
  91:/Users/paulwang/Desktop/DaisyExamples/libDaisy/src/daisy_seed.h ****      */
  92:/Users/paulwang/Desktop/DaisyExamples/libDaisy/src/daisy_seed.h ****     void SetAudioBlockSize(size_t blocksize);
  93:/Users/paulwang/Desktop/DaisyExamples/libDaisy/src/daisy_seed.h **** 
  94:/Users/paulwang/Desktop/DaisyExamples/libDaisy/src/daisy_seed.h ****     /** Returns the number of samples per channel in a block of audio. */
  95:/Users/paulwang/Desktop/DaisyExamples/libDaisy/src/daisy_seed.h ****     size_t AudioBlockSize();
  96:/Users/paulwang/Desktop/DaisyExamples/libDaisy/src/daisy_seed.h **** 
  97:/Users/paulwang/Desktop/DaisyExamples/libDaisy/src/daisy_seed.h ****     /** Returns the rate in Hz that the Audio callback is called */
  98:/Users/paulwang/Desktop/DaisyExamples/libDaisy/src/daisy_seed.h ****     float AudioCallbackRate() const;
  99:/Users/paulwang/Desktop/DaisyExamples/libDaisy/src/daisy_seed.h **** 
 100:/Users/paulwang/Desktop/DaisyExamples/libDaisy/src/daisy_seed.h ****     /** Returns the SAI Handle for the Daisy Seed 
 101:/Users/paulwang/Desktop/DaisyExamples/libDaisy/src/daisy_seed.h ****      *  This can be useful when adding a secondary codec,
 102:/Users/paulwang/Desktop/DaisyExamples/libDaisy/src/daisy_seed.h ****      *  the result of this function can be passed to the audio reinit 
 103:/Users/paulwang/Desktop/DaisyExamples/libDaisy/src/daisy_seed.h ****      *  with an SAI2 configuration
ARM GAS  /var/folders/6w/sx7v0gy94nj4l80r62zsklwh0000gn/T//cc5ARLDT.s 			page 15


 104:/Users/paulwang/Desktop/DaisyExamples/libDaisy/src/daisy_seed.h ****      */
 105:/Users/paulwang/Desktop/DaisyExamples/libDaisy/src/daisy_seed.h ****     const SaiHandle& AudioSaiHandle() const;
 106:/Users/paulwang/Desktop/DaisyExamples/libDaisy/src/daisy_seed.h **** 
 107:/Users/paulwang/Desktop/DaisyExamples/libDaisy/src/daisy_seed.h ****     /** Sets the state of the built in LED
 108:/Users/paulwang/Desktop/DaisyExamples/libDaisy/src/daisy_seed.h ****      */
 109:/Users/paulwang/Desktop/DaisyExamples/libDaisy/src/daisy_seed.h ****     void SetLed(bool state);
 110:/Users/paulwang/Desktop/DaisyExamples/libDaisy/src/daisy_seed.h **** 
 111:/Users/paulwang/Desktop/DaisyExamples/libDaisy/src/daisy_seed.h ****     /** Sets the state of the test point near pin 10
 112:/Users/paulwang/Desktop/DaisyExamples/libDaisy/src/daisy_seed.h ****      */
 113:/Users/paulwang/Desktop/DaisyExamples/libDaisy/src/daisy_seed.h ****     void SetTestPoint(bool state);
 114:/Users/paulwang/Desktop/DaisyExamples/libDaisy/src/daisy_seed.h **** 
 115:/Users/paulwang/Desktop/DaisyExamples/libDaisy/src/daisy_seed.h ****     /** Print formatted debug log message
 116:/Users/paulwang/Desktop/DaisyExamples/libDaisy/src/daisy_seed.h ****      */
 117:/Users/paulwang/Desktop/DaisyExamples/libDaisy/src/daisy_seed.h ****     template <typename... VA>
 118:/Users/paulwang/Desktop/DaisyExamples/libDaisy/src/daisy_seed.h ****     static void Print(const char* format, VA... va)
 119:/Users/paulwang/Desktop/DaisyExamples/libDaisy/src/daisy_seed.h ****     {
 120:/Users/paulwang/Desktop/DaisyExamples/libDaisy/src/daisy_seed.h ****         Log::Print(format, va...);
 121:/Users/paulwang/Desktop/DaisyExamples/libDaisy/src/daisy_seed.h ****     }
 122:/Users/paulwang/Desktop/DaisyExamples/libDaisy/src/daisy_seed.h **** 
 123:/Users/paulwang/Desktop/DaisyExamples/libDaisy/src/daisy_seed.h ****     /** Print formatted debug log message with automatic line termination
 124:/Users/paulwang/Desktop/DaisyExamples/libDaisy/src/daisy_seed.h ****     */
 125:/Users/paulwang/Desktop/DaisyExamples/libDaisy/src/daisy_seed.h ****     template <typename... VA>
 126:/Users/paulwang/Desktop/DaisyExamples/libDaisy/src/daisy_seed.h ****     static void PrintLine(const char* format, VA... va)
 127:/Users/paulwang/Desktop/DaisyExamples/libDaisy/src/daisy_seed.h ****     {
 128:/Users/paulwang/Desktop/DaisyExamples/libDaisy/src/daisy_seed.h ****         Log::PrintLine(format, va...);
 129:/Users/paulwang/Desktop/DaisyExamples/libDaisy/src/daisy_seed.h ****     }
 130:/Users/paulwang/Desktop/DaisyExamples/libDaisy/src/daisy_seed.h **** 
 131:/Users/paulwang/Desktop/DaisyExamples/libDaisy/src/daisy_seed.h ****     /** Start the logging session. Optionally wait for terminal connection before proceeding.
 132:/Users/paulwang/Desktop/DaisyExamples/libDaisy/src/daisy_seed.h ****     */
 133:/Users/paulwang/Desktop/DaisyExamples/libDaisy/src/daisy_seed.h ****     static void StartLog(bool wait_for_pc = false)
 246              		.loc 1 133 17 view .LVU45
 247              	.LBB135:
 134:/Users/paulwang/Desktop/DaisyExamples/libDaisy/src/daisy_seed.h ****     {
 135:/Users/paulwang/Desktop/DaisyExamples/libDaisy/src/daisy_seed.h ****         Log::StartLog(wait_for_pc);
 248              		.loc 1 135 9 view .LVU46
 249              		.loc 1 135 22 is_stmt 0 view .LVU47
 250 001a 0020     		movs	r0, #0
 251 001c FFF7FEFF 		bl	_ZN5daisy6LoggerILNS_17LoggerDestinationE1EE8StartLogEb
 252              	.LVL9:
 253              		.loc 1 135 22 view .LVU48
 254              	.LBE135:
 255              	.LBE134:
  47:axis.cpp      ****     System::Delay(1000);
 256              		.loc 7 47 5 is_stmt 1 view .LVU49
 257              		.loc 7 47 18 is_stmt 0 view .LVU50
 258 0020 4FF47A70 		mov	r0, #1000
 259 0024 FFF7FEFF 		bl	_ZN5daisy6System5DelayEm
 260              	.LVL10:
  48:axis.cpp      ****     
  49:axis.cpp      ****     hw.PrintLine("=== MPU6050 Test ===");
 261              		.loc 7 49 5 is_stmt 1 view .LVU51
 262              	.LBB136:
 263              	.LBI136:
 126:/Users/paulwang/Desktop/DaisyExamples/libDaisy/src/daisy_seed.h ****     {
 264              		.loc 1 126 17 view .LVU52
 265              	.LBB137:
 128:/Users/paulwang/Desktop/DaisyExamples/libDaisy/src/daisy_seed.h ****     }
ARM GAS  /var/folders/6w/sx7v0gy94nj4l80r62zsklwh0000gn/T//cc5ARLDT.s 			page 16


 266              		.loc 1 128 23 is_stmt 0 view .LVU53
 267 0028 5948     		ldr	r0, .L19+4
 268 002a FFF7FEFF 		bl	_ZN5daisy6LoggerILNS_17LoggerDestinationE1EE9PrintLineEPKcz
 269              	.LVL11:
 128:/Users/paulwang/Desktop/DaisyExamples/libDaisy/src/daisy_seed.h ****     }
 270              		.loc 1 128 23 view .LVU54
 271              	.LBE137:
 272              	.LBE136:
  50:axis.cpp      ****     
  51:axis.cpp      ****     // Initialize MPU6050
  52:axis.cpp      ****     InitMPU6050();
 273              		.loc 7 52 5 is_stmt 1 view .LVU55
 274              		.loc 7 52 16 is_stmt 0 view .LVU56
 275 002e FFF7FEFF 		bl	_Z11InitMPU6050v
 276              	.LVL12:
  53:axis.cpp      ****     hw.PrintLine("MPU6050 Initialized");
 277              		.loc 7 53 5 is_stmt 1 view .LVU57
 278              	.LBB138:
 279              	.LBI138:
 126:/Users/paulwang/Desktop/DaisyExamples/libDaisy/src/daisy_seed.h ****     {
 280              		.loc 1 126 17 view .LVU58
 281              	.LBB139:
 128:/Users/paulwang/Desktop/DaisyExamples/libDaisy/src/daisy_seed.h ****     }
 282              		.loc 1 128 23 is_stmt 0 view .LVU59
 283 0032 5848     		ldr	r0, .L19+8
 284 0034 FFF7FEFF 		bl	_ZN5daisy6LoggerILNS_17LoggerDestinationE1EE9PrintLineEPKcz
 285              	.LVL13:
 128:/Users/paulwang/Desktop/DaisyExamples/libDaisy/src/daisy_seed.h ****     }
 286              		.loc 1 128 23 view .LVU60
 287              	.LBE139:
 288              	.LBE138:
  54:axis.cpp      ****     
  55:axis.cpp      ****     // Test connection
  56:axis.cpp      ****     if(TestMPU6050()) {
 289              		.loc 7 56 5 is_stmt 1 view .LVU61
 290              		.loc 7 56 19 is_stmt 0 view .LVU62
 291 0038 FFF7FEFF 		bl	_Z11TestMPU6050v
 292              	.LVL14:
 293              		.loc 7 56 5 view .LVU63
 294 003c 0028     		cmp	r0, #0
 295 003e 00F09380 		beq	.L13
  57:axis.cpp      ****         hw.PrintLine("MPU6050 Connected!");
 296              		.loc 7 57 9 is_stmt 1 view .LVU64
 297              	.LVL15:
 298              	.LBB140:
 299              	.LBI140:
 126:/Users/paulwang/Desktop/DaisyExamples/libDaisy/src/daisy_seed.h ****     {
 300              		.loc 1 126 17 view .LVU65
 301              	.LBB141:
 128:/Users/paulwang/Desktop/DaisyExamples/libDaisy/src/daisy_seed.h ****     }
 302              		.loc 1 128 23 is_stmt 0 view .LVU66
 303 0042 5548     		ldr	r0, .L19+12
 304              	.LBE141:
 305              	.LBE140:
 306              	.LBB143:
 307              	.LBB144:
  25:/Users/paulwang/Desktop/DaisyExamples/DaisySP/Source/Synthesis/oscillator.h ****     /** Choices for output waveforms, POLYBLEP are appropriately labeled. Others are naive forms.
ARM GAS  /var/folders/6w/sx7v0gy94nj4l80r62zsklwh0000gn/T//cc5ARLDT.s 			page 17


  26:/Users/paulwang/Desktop/DaisyExamples/DaisySP/Source/Synthesis/oscillator.h ****     */
  27:/Users/paulwang/Desktop/DaisyExamples/DaisySP/Source/Synthesis/oscillator.h ****     enum
  28:/Users/paulwang/Desktop/DaisyExamples/DaisySP/Source/Synthesis/oscillator.h ****     {
  29:/Users/paulwang/Desktop/DaisyExamples/DaisySP/Source/Synthesis/oscillator.h ****         WAVE_SIN,
  30:/Users/paulwang/Desktop/DaisyExamples/DaisySP/Source/Synthesis/oscillator.h ****         WAVE_TRI,
  31:/Users/paulwang/Desktop/DaisyExamples/DaisySP/Source/Synthesis/oscillator.h ****         WAVE_SAW,
  32:/Users/paulwang/Desktop/DaisyExamples/DaisySP/Source/Synthesis/oscillator.h ****         WAVE_RAMP,
  33:/Users/paulwang/Desktop/DaisyExamples/DaisySP/Source/Synthesis/oscillator.h ****         WAVE_SQUARE,
  34:/Users/paulwang/Desktop/DaisyExamples/DaisySP/Source/Synthesis/oscillator.h ****         WAVE_POLYBLEP_TRI,
  35:/Users/paulwang/Desktop/DaisyExamples/DaisySP/Source/Synthesis/oscillator.h ****         WAVE_POLYBLEP_SAW,
  36:/Users/paulwang/Desktop/DaisyExamples/DaisySP/Source/Synthesis/oscillator.h ****         WAVE_POLYBLEP_SQUARE,
  37:/Users/paulwang/Desktop/DaisyExamples/DaisySP/Source/Synthesis/oscillator.h ****         WAVE_LAST,
  38:/Users/paulwang/Desktop/DaisyExamples/DaisySP/Source/Synthesis/oscillator.h ****     };
  39:/Users/paulwang/Desktop/DaisyExamples/DaisySP/Source/Synthesis/oscillator.h **** 
  40:/Users/paulwang/Desktop/DaisyExamples/DaisySP/Source/Synthesis/oscillator.h **** 
  41:/Users/paulwang/Desktop/DaisyExamples/DaisySP/Source/Synthesis/oscillator.h ****     /** Initializes the Oscillator
  42:/Users/paulwang/Desktop/DaisyExamples/DaisySP/Source/Synthesis/oscillator.h **** 
  43:/Users/paulwang/Desktop/DaisyExamples/DaisySP/Source/Synthesis/oscillator.h ****         \param sample_rate - sample rate of the audio engine being run, and the frequency that the 
  44:/Users/paulwang/Desktop/DaisyExamples/DaisySP/Source/Synthesis/oscillator.h **** 
  45:/Users/paulwang/Desktop/DaisyExamples/DaisySP/Source/Synthesis/oscillator.h ****         Defaults:
  46:/Users/paulwang/Desktop/DaisyExamples/DaisySP/Source/Synthesis/oscillator.h ****         - freq_ = 100 Hz
  47:/Users/paulwang/Desktop/DaisyExamples/DaisySP/Source/Synthesis/oscillator.h ****         - amp_ = 0.5
  48:/Users/paulwang/Desktop/DaisyExamples/DaisySP/Source/Synthesis/oscillator.h ****         - waveform_ = sine wave.
  49:/Users/paulwang/Desktop/DaisyExamples/DaisySP/Source/Synthesis/oscillator.h ****     */
  50:/Users/paulwang/Desktop/DaisyExamples/DaisySP/Source/Synthesis/oscillator.h ****     void Init(float sample_rate)
  51:/Users/paulwang/Desktop/DaisyExamples/DaisySP/Source/Synthesis/oscillator.h ****     {
  52:/Users/paulwang/Desktop/DaisyExamples/DaisySP/Source/Synthesis/oscillator.h ****         sr_        = sample_rate;
  53:/Users/paulwang/Desktop/DaisyExamples/DaisySP/Source/Synthesis/oscillator.h ****         sr_recip_  = 1.0f / sample_rate;
  54:/Users/paulwang/Desktop/DaisyExamples/DaisySP/Source/Synthesis/oscillator.h ****         freq_      = 100.0f;
  55:/Users/paulwang/Desktop/DaisyExamples/DaisySP/Source/Synthesis/oscillator.h ****         amp_       = 0.5f;
 308              		.loc 6 55 20 view .LVU67
 309 0044 4FF07C55 		mov	r5, #1056964608
 310              	.LBE144:
 311              	.LBE143:
 312              	.LBB149:
 313              	.LBB142:
 128:/Users/paulwang/Desktop/DaisyExamples/libDaisy/src/daisy_seed.h ****     }
 314              		.loc 1 128 23 view .LVU68
 315 0048 FFF7FEFF 		bl	_ZN5daisy6LoggerILNS_17LoggerDestinationE1EE9PrintLineEPKcz
 316              	.LVL16:
 128:/Users/paulwang/Desktop/DaisyExamples/libDaisy/src/daisy_seed.h ****     }
 317              		.loc 1 128 23 view .LVU69
 318              	.LBE142:
 319              	.LBE149:
  58:axis.cpp      ****     } else {
  59:axis.cpp      ****         hw.PrintLine("ERROR: MPU6050 Not Found!");
  60:axis.cpp      ****         while(1) {
  61:axis.cpp      ****             hw.SetLed(true);
  62:axis.cpp      ****             System::Delay(100);
  63:axis.cpp      ****             hw.SetLed(false);
  64:axis.cpp      ****             System::Delay(100);
  65:axis.cpp      ****         }
  66:axis.cpp      ****     }
  67:axis.cpp      ****     float sample_rate = hw.AudioSampleRate();
 320              		.loc 7 67 5 is_stmt 1 view .LVU70
 321              		.loc 7 67 43 is_stmt 0 view .LVU71
 322 004c 4F48     		ldr	r0, .L19
ARM GAS  /var/folders/6w/sx7v0gy94nj4l80r62zsklwh0000gn/T//cc5ARLDT.s 			page 18


 323 004e FFF7FEFF 		bl	_ZN5daisy9DaisySeed15AudioSampleRateEv
 324              	.LVL17:
 325              	.LBB150:
 326              	.LBB145:
  53:/Users/paulwang/Desktop/DaisyExamples/DaisySP/Source/Synthesis/oscillator.h ****         freq_      = 100.0f;
 327              		.loc 6 53 27 view .LVU72
 328 0052 F7EE006A 		vmov.f32	s13, #1.0e+0
 329              	.LBE145:
 330              	.LBE150:
 331              		.loc 7 67 43 view .LVU73
 332 0056 F0EE407A 		vmov.f32	s15, s0
 333              	.LVL18:
  68:axis.cpp      ****     osc.Init(sample_rate);
 334              		.loc 7 68 5 is_stmt 1 view .LVU74
 335              	.LBB151:
 336              	.LBI143:
  50:/Users/paulwang/Desktop/DaisyExamples/DaisySP/Source/Synthesis/oscillator.h ****     {
 337              		.loc 6 50 10 view .LVU75
 338              	.LBB146:
  52:/Users/paulwang/Desktop/DaisyExamples/DaisySP/Source/Synthesis/oscillator.h ****         sr_recip_  = 1.0f / sample_rate;
 339              		.loc 6 52 9 view .LVU76
  52:/Users/paulwang/Desktop/DaisyExamples/DaisySP/Source/Synthesis/oscillator.h ****         sr_recip_  = 1.0f / sample_rate;
 340              		.loc 6 52 20 is_stmt 0 view .LVU77
 341 005a 504C     		ldr	r4, .L19+16
  56:/Users/paulwang/Desktop/DaisyExamples/DaisySP/Source/Synthesis/oscillator.h ****         pw_        = 0.5f;
  57:/Users/paulwang/Desktop/DaisyExamples/DaisySP/Source/Synthesis/oscillator.h ****         phase_     = 0.0f;
 342              		.loc 6 57 20 view .LVU78
 343 005c 0023     		movs	r3, #0
  54:/Users/paulwang/Desktop/DaisyExamples/DaisySP/Source/Synthesis/oscillator.h ****         amp_       = 0.5f;
 344              		.loc 6 54 20 view .LVU79
 345 005e 9FED500A 		vldr.32	s0, .L19+20
 346              	.LVL19:
  58:/Users/paulwang/Desktop/DaisyExamples/DaisySP/Source/Synthesis/oscillator.h ****         phase_inc_ = CalcPhaseInc(freq_);
 347              		.loc 6 58 34 view .LVU80
 348 0062 2046     		mov	r0, r4
  55:/Users/paulwang/Desktop/DaisyExamples/DaisySP/Source/Synthesis/oscillator.h ****         pw_        = 0.5f;
 349              		.loc 6 55 20 view .LVU81
 350 0064 6560     		str	r5, [r4, #4]	@ float
  53:/Users/paulwang/Desktop/DaisyExamples/DaisySP/Source/Synthesis/oscillator.h ****         freq_      = 100.0f;
 351              		.loc 6 53 27 view .LVU82
 352 0066 86EEA77A 		vdiv.f32	s14, s13, s15
  52:/Users/paulwang/Desktop/DaisyExamples/DaisySP/Source/Synthesis/oscillator.h ****         sr_recip_  = 1.0f / sample_rate;
 353              		.loc 6 52 20 view .LVU83
 354 006a C4ED047A 		vstr.32	s15, [r4, #16]
  53:/Users/paulwang/Desktop/DaisyExamples/DaisySP/Source/Synthesis/oscillator.h ****         freq_      = 100.0f;
 355              		.loc 6 53 9 is_stmt 1 view .LVU84
  56:/Users/paulwang/Desktop/DaisyExamples/DaisySP/Source/Synthesis/oscillator.h ****         phase_     = 0.0f;
 356              		.loc 6 56 20 is_stmt 0 view .LVU85
 357 006e E560     		str	r5, [r4, #12]	@ float
  57:/Users/paulwang/Desktop/DaisyExamples/DaisySP/Source/Synthesis/oscillator.h ****         phase_inc_ = CalcPhaseInc(freq_);
 358              		.loc 6 57 20 view .LVU86
 359 0070 A361     		str	r3, [r4, #24]	@ float
  54:/Users/paulwang/Desktop/DaisyExamples/DaisySP/Source/Synthesis/oscillator.h ****         amp_       = 0.5f;
 360              		.loc 6 54 20 view .LVU87
 361 0072 84ED020A 		vstr.32	s0, [r4, #8]
  53:/Users/paulwang/Desktop/DaisyExamples/DaisySP/Source/Synthesis/oscillator.h ****         freq_      = 100.0f;
 362              		.loc 6 53 20 view .LVU88
ARM GAS  /var/folders/6w/sx7v0gy94nj4l80r62zsklwh0000gn/T//cc5ARLDT.s 			page 19


 363 0076 84ED057A 		vstr.32	s14, [r4, #20]
  54:/Users/paulwang/Desktop/DaisyExamples/DaisySP/Source/Synthesis/oscillator.h ****         amp_       = 0.5f;
 364              		.loc 6 54 9 is_stmt 1 view .LVU89
  55:/Users/paulwang/Desktop/DaisyExamples/DaisySP/Source/Synthesis/oscillator.h ****         pw_        = 0.5f;
 365              		.loc 6 55 9 view .LVU90
  56:/Users/paulwang/Desktop/DaisyExamples/DaisySP/Source/Synthesis/oscillator.h ****         phase_     = 0.0f;
 366              		.loc 6 56 9 view .LVU91
  57:/Users/paulwang/Desktop/DaisyExamples/DaisySP/Source/Synthesis/oscillator.h ****         phase_inc_ = CalcPhaseInc(freq_);
 367              		.loc 6 57 9 view .LVU92
 368              		.loc 6 58 9 view .LVU93
 369              		.loc 6 58 34 is_stmt 0 view .LVU94
 370 007a FFF7FEFF 		bl	_ZN7daisysp10Oscillator12CalcPhaseIncEf
 371              	.LVL20:
  59:/Users/paulwang/Desktop/DaisyExamples/DaisySP/Source/Synthesis/oscillator.h ****         waveform_  = WAVE_SIN;
  60:/Users/paulwang/Desktop/DaisyExamples/DaisySP/Source/Synthesis/oscillator.h ****         eoc_       = true;
  61:/Users/paulwang/Desktop/DaisyExamples/DaisySP/Source/Synthesis/oscillator.h ****         eor_       = true;
 372              		.loc 6 61 20 view .LVU95
 373 007e 40F20113 		movw	r3, #257
  58:/Users/paulwang/Desktop/DaisyExamples/DaisySP/Source/Synthesis/oscillator.h ****         waveform_  = WAVE_SIN;
 374              		.loc 6 58 34 view .LVU96
 375 0082 F0EE407A 		vmov.f32	s15, s0
  59:/Users/paulwang/Desktop/DaisyExamples/DaisySP/Source/Synthesis/oscillator.h ****         waveform_  = WAVE_SIN;
 376              		.loc 6 59 20 view .LVU97
 377 0086 0022     		movs	r2, #0
 378              	.LBE146:
 379              	.LBE151:
 380              	.LBB152:
 381              	.LBB153:
  62:/Users/paulwang/Desktop/DaisyExamples/DaisySP/Source/Synthesis/oscillator.h ****     }
  63:/Users/paulwang/Desktop/DaisyExamples/DaisySP/Source/Synthesis/oscillator.h **** 
  64:/Users/paulwang/Desktop/DaisyExamples/DaisySP/Source/Synthesis/oscillator.h **** 
  65:/Users/paulwang/Desktop/DaisyExamples/DaisySP/Source/Synthesis/oscillator.h ****     /** Changes the frequency of the Oscillator, and recalculates phase increment.
  66:/Users/paulwang/Desktop/DaisyExamples/DaisySP/Source/Synthesis/oscillator.h ****     */
  67:/Users/paulwang/Desktop/DaisyExamples/DaisySP/Source/Synthesis/oscillator.h ****     inline void SetFreq(const float f)
  68:/Users/paulwang/Desktop/DaisyExamples/DaisySP/Source/Synthesis/oscillator.h ****     {
  69:/Users/paulwang/Desktop/DaisyExamples/DaisySP/Source/Synthesis/oscillator.h ****         freq_      = f;
 382              		.loc 6 69 20 view .LVU98
 383 0088 9FED460A 		vldr.32	s0, .L19+24
 384              	.LBE153:
 385              	.LBE152:
 386              	.LBB158:
 387              	.LBB147:
  61:/Users/paulwang/Desktop/DaisyExamples/DaisySP/Source/Synthesis/oscillator.h ****     }
 388              		.loc 6 61 20 view .LVU99
 389 008c 2385     		strh	r3, [r4, #40]	@ movhi
 390              	.LBE147:
 391              	.LBE158:
 392              	.LBB159:
 393              	.LBB154:
  70:/Users/paulwang/Desktop/DaisyExamples/DaisySP/Source/Synthesis/oscillator.h ****         phase_inc_ = CalcPhaseInc(f);
 394              		.loc 6 70 34 view .LVU100
 395 008e 2046     		mov	r0, r4
 396              	.LBE154:
 397              	.LBE159:
 398              	.LBB160:
 399              	.LBB148:
  58:/Users/paulwang/Desktop/DaisyExamples/DaisySP/Source/Synthesis/oscillator.h ****         waveform_  = WAVE_SIN;
ARM GAS  /var/folders/6w/sx7v0gy94nj4l80r62zsklwh0000gn/T//cc5ARLDT.s 			page 20


 400              		.loc 6 58 20 view .LVU101
 401 0090 C4ED077A 		vstr.32	s15, [r4, #28]
  59:/Users/paulwang/Desktop/DaisyExamples/DaisySP/Source/Synthesis/oscillator.h ****         eoc_       = true;
 402              		.loc 6 59 9 is_stmt 1 view .LVU102
  59:/Users/paulwang/Desktop/DaisyExamples/DaisySP/Source/Synthesis/oscillator.h ****         eoc_       = true;
 403              		.loc 6 59 20 is_stmt 0 view .LVU103
 404 0094 2270     		strb	r2, [r4]
  60:/Users/paulwang/Desktop/DaisyExamples/DaisySP/Source/Synthesis/oscillator.h ****         eor_       = true;
 405              		.loc 6 60 9 is_stmt 1 view .LVU104
  61:/Users/paulwang/Desktop/DaisyExamples/DaisySP/Source/Synthesis/oscillator.h ****     }
 406              		.loc 6 61 9 view .LVU105
 407              	.LVL21:
  61:/Users/paulwang/Desktop/DaisyExamples/DaisySP/Source/Synthesis/oscillator.h ****     }
 408              		.loc 6 61 9 is_stmt 0 view .LVU106
 409              	.LBE148:
 410              	.LBE160:
  69:axis.cpp      ****     osc.SetWaveform(Oscillator::WAVE_SIN);
 411              		.loc 7 69 5 is_stmt 1 view .LVU107
  71:/Users/paulwang/Desktop/DaisyExamples/DaisySP/Source/Synthesis/oscillator.h ****     }
  72:/Users/paulwang/Desktop/DaisyExamples/DaisySP/Source/Synthesis/oscillator.h **** 
  73:/Users/paulwang/Desktop/DaisyExamples/DaisySP/Source/Synthesis/oscillator.h **** 
  74:/Users/paulwang/Desktop/DaisyExamples/DaisySP/Source/Synthesis/oscillator.h ****     /** Sets the amplitude of the waveform.
  75:/Users/paulwang/Desktop/DaisyExamples/DaisySP/Source/Synthesis/oscillator.h ****     */
  76:/Users/paulwang/Desktop/DaisyExamples/DaisySP/Source/Synthesis/oscillator.h ****     inline void SetAmp(const float a) { amp_ = a; }
  77:/Users/paulwang/Desktop/DaisyExamples/DaisySP/Source/Synthesis/oscillator.h ****     /** Sets the waveform to be synthesized by the Process() function.
  78:/Users/paulwang/Desktop/DaisyExamples/DaisySP/Source/Synthesis/oscillator.h ****     */
  79:/Users/paulwang/Desktop/DaisyExamples/DaisySP/Source/Synthesis/oscillator.h ****     inline void SetWaveform(const uint8_t wf)
  80:/Users/paulwang/Desktop/DaisyExamples/DaisySP/Source/Synthesis/oscillator.h ****     {
  81:/Users/paulwang/Desktop/DaisyExamples/DaisySP/Source/Synthesis/oscillator.h ****         waveform_ = wf < WAVE_LAST ? wf : WAVE_SIN;
 412              		.loc 6 81 9 view .LVU108
  70:axis.cpp      ****     osc.SetAmp(0.5f);
 413              		.loc 7 70 5 view .LVU109
 414              	.LBB161:
 415              	.LBI161:
  76:/Users/paulwang/Desktop/DaisyExamples/DaisySP/Source/Synthesis/oscillator.h ****     /** Sets the waveform to be synthesized by the Process() function.
 416              		.loc 6 76 17 view .LVU110
 417              	.LBB162:
  76:/Users/paulwang/Desktop/DaisyExamples/DaisySP/Source/Synthesis/oscillator.h ****     /** Sets the waveform to be synthesized by the Process() function.
 418              		.loc 6 76 41 view .LVU111
  76:/Users/paulwang/Desktop/DaisyExamples/DaisySP/Source/Synthesis/oscillator.h ****     /** Sets the waveform to be synthesized by the Process() function.
 419              		.loc 6 76 41 is_stmt 0 view .LVU112
 420              	.LBE162:
 421              	.LBE161:
  71:axis.cpp      ****     osc.SetFreq(440.0f);
 422              		.loc 7 71 5 is_stmt 1 view .LVU113
 423              	.LBB164:
 424              	.LBI152:
  67:/Users/paulwang/Desktop/DaisyExamples/DaisySP/Source/Synthesis/oscillator.h ****     {
 425              		.loc 6 67 17 view .LVU114
 426              	.LBB155:
  69:/Users/paulwang/Desktop/DaisyExamples/DaisySP/Source/Synthesis/oscillator.h ****         phase_inc_ = CalcPhaseInc(f);
 427              		.loc 6 69 9 view .LVU115
  70:/Users/paulwang/Desktop/DaisyExamples/DaisySP/Source/Synthesis/oscillator.h ****     }
 428              		.loc 6 70 9 view .LVU116
 429              	.LBE155:
 430              	.LBE164:
 431              	.LBB165:
ARM GAS  /var/folders/6w/sx7v0gy94nj4l80r62zsklwh0000gn/T//cc5ARLDT.s 			page 21


 432              	.LBB163:
  76:/Users/paulwang/Desktop/DaisyExamples/DaisySP/Source/Synthesis/oscillator.h ****     /** Sets the waveform to be synthesized by the Process() function.
 433              		.loc 6 76 46 is_stmt 0 view .LVU117
 434 0096 6560     		str	r5, [r4, #4]	@ float
 435              	.LBE163:
 436              	.LBE165:
 437              	.LBB166:
 438              	.LBB156:
  69:/Users/paulwang/Desktop/DaisyExamples/DaisySP/Source/Synthesis/oscillator.h ****         phase_inc_ = CalcPhaseInc(f);
 439              		.loc 6 69 20 view .LVU118
 440 0098 84ED020A 		vstr.32	s0, [r4, #8]
  70:/Users/paulwang/Desktop/DaisyExamples/DaisySP/Source/Synthesis/oscillator.h ****     }
 441              		.loc 6 70 34 view .LVU119
 442 009c FFF7FEFF 		bl	_ZN7daisysp10Oscillator12CalcPhaseIncEf
 443              	.LVL22:
 444              	.LBE156:
 445              	.LBE166:
  72:axis.cpp      ****     
  73:axis.cpp      ****     hw.StartAudio(AudioCallback);
 446              		.loc 7 73 18 view .LVU120
 447 00a0 4149     		ldr	r1, .L19+28
 448 00a2 3A48     		ldr	r0, .L19
 449              	.LBB167:
 450              	.LBB157:
  70:/Users/paulwang/Desktop/DaisyExamples/DaisySP/Source/Synthesis/oscillator.h ****     }
 451              		.loc 6 70 20 view .LVU121
 452 00a4 84ED070A 		vstr.32	s0, [r4, #28]
 453              	.LVL23:
  70:/Users/paulwang/Desktop/DaisyExamples/DaisySP/Source/Synthesis/oscillator.h ****     }
 454              		.loc 6 70 20 view .LVU122
 455              	.LBE157:
 456              	.LBE167:
 457              		.loc 7 73 5 is_stmt 1 view .LVU123
 458              		.loc 7 73 18 is_stmt 0 view .LVU124
 459 00a8 FFF7FEFF 		bl	_ZN5daisy9DaisySeed10StartAudioEPFvPKPKfPPfjE
 460              	.LVL24:
  74:axis.cpp      ****     
  75:axis.cpp      ****     // Start audio
  76:axis.cpp      ****     // hw.StartAudio(AudioCallback);
  77:axis.cpp      ****     hw.PrintLine("Starting main loop...\n");
 461              		.loc 7 77 5 is_stmt 1 view .LVU125
 462              	.LBB168:
 463              	.LBI168:
 126:/Users/paulwang/Desktop/DaisyExamples/libDaisy/src/daisy_seed.h ****     {
 464              		.loc 1 126 17 view .LVU126
 465              	.LBB169:
 128:/Users/paulwang/Desktop/DaisyExamples/libDaisy/src/daisy_seed.h ****     }
 466              		.loc 1 128 23 is_stmt 0 view .LVU127
 467 00ac 3F48     		ldr	r0, .L19+32
 468 00ae FFF7FEFF 		bl	_ZN5daisy6LoggerILNS_17LoggerDestinationE1EE9PrintLineEPKcz
 469              	.LVL25:
 128:/Users/paulwang/Desktop/DaisyExamples/libDaisy/src/daisy_seed.h ****     }
 470              		.loc 1 128 23 view .LVU128
 471              	.LBE169:
 472              	.LBE168:
  78:axis.cpp      ****     
  79:axis.cpp      ****     // Main loop - read sensor data
ARM GAS  /var/folders/6w/sx7v0gy94nj4l80r62zsklwh0000gn/T//cc5ARLDT.s 			page 22


  80:axis.cpp      ****     uint32_t last_read = System::GetNow();
 473              		.loc 7 80 5 is_stmt 1 view .LVU129
 474              		.loc 7 80 40 is_stmt 0 view .LVU130
 475 00b2 FFF7FEFF 		bl	_ZN5daisy6System6GetNowEv
 476              	.LVL26:
 477 00b6 0546     		mov	r5, r0
 478              	.LVL27:
 479              	.L16:
  81:axis.cpp      ****     
  82:axis.cpp      ****     while(1)
 480              		.loc 7 82 5 is_stmt 1 view .LVU131
  83:axis.cpp      ****     {
  84:axis.cpp      ****         // Read sensor every 100ms
  85:axis.cpp      ****         if(System::GetNow() - last_read >= 100)
 481              		.loc 7 85 9 view .LVU132
 482              		.loc 7 85 26 is_stmt 0 view .LVU133
 483 00b8 FFF7FEFF 		bl	_ZN5daisy6System6GetNowEv
 484              	.LVL28:
 485              		.loc 7 85 29 view .LVU134
 486 00bc 431B     		subs	r3, r0, r5
 487              		.loc 7 85 9 view .LVU135
 488 00be 632B     		cmp	r3, #99
 489 00c0 FAD9     		bls	.L16
  86:axis.cpp      ****         {
  87:axis.cpp      ****             hw.PrintLine("Reading Data now...\n");
 490              		.loc 7 87 13 is_stmt 1 view .LVU136
 491              	.LVL29:
 492              	.LBB170:
 493              	.LBI170:
 126:/Users/paulwang/Desktop/DaisyExamples/libDaisy/src/daisy_seed.h ****     {
 494              		.loc 1 126 17 view .LVU137
 495              	.LBB171:
 128:/Users/paulwang/Desktop/DaisyExamples/libDaisy/src/daisy_seed.h ****     }
 496              		.loc 1 128 23 is_stmt 0 view .LVU138
 497 00c2 3B48     		ldr	r0, .L19+36
 498 00c4 FFF7FEFF 		bl	_ZN5daisy6LoggerILNS_17LoggerDestinationE1EE9PrintLineEPKcz
 499              	.LVL30:
 128:/Users/paulwang/Desktop/DaisyExamples/libDaisy/src/daisy_seed.h ****     }
 500              		.loc 1 128 23 view .LVU139
 501              	.LBE171:
 502              	.LBE170:
  88:axis.cpp      ****             data = ReadSensorData();
 503              		.loc 7 88 13 is_stmt 1 view .LVU140
 504              		.loc 7 88 35 is_stmt 0 view .LVU141
 505 00c8 04A8     		add	r0, sp, #16
 506 00ca FFF7FEFF 		bl	_Z14ReadSensorDatav
 507              	.LVL31:
 508 00ce 394C     		ldr	r4, .L19+40
 509 00d0 0DF1100E 		add	lr, sp, #16
 510 00d4 A446     		mov	ip, r4
 511 00d6 BEE80F00 		ldmia	lr!, {r0, r1, r2, r3}
 512 00da ACE80F00 		stmia	ip!, {r0, r1, r2, r3}
 513 00de BEE80F00 		ldmia	lr!, {r0, r1, r2, r3}
 514 00e2 ACE80F00 		stmia	ip!, {r0, r1, r2, r3}
 515 00e6 9EE80700 		ldm	lr, {r0, r1, r2}
 516 00ea 8CE80700 		stm	ip, {r0, r1, r2}
  89:axis.cpp      ****             last_read = System::GetNow();
ARM GAS  /var/folders/6w/sx7v0gy94nj4l80r62zsklwh0000gn/T//cc5ARLDT.s 			page 23


 517              		.loc 7 89 13 is_stmt 1 view .LVU142
 518              		.loc 7 89 39 is_stmt 0 view .LVU143
 519 00ee FFF7FEFF 		bl	_ZN5daisy6System6GetNowEv
 520              	.LVL32:
 521              	.LBB172:
 522              	.LBB173:
 128:/Users/paulwang/Desktop/DaisyExamples/libDaisy/src/daisy_seed.h ****     }
 523              		.loc 1 128 23 view .LVU144
 524 00f2 94ED056A 		vldr.32	s12, [r4, #20]
 525 00f6 94ED047A 		vldr.32	s14, [r4, #16]
 526              	.LBE173:
 527              	.LBE172:
 528              		.loc 7 89 39 view .LVU145
 529 00fa 0546     		mov	r5, r0
 530              	.LVL33:
 531              	.LBB176:
 532              	.LBB174:
 128:/Users/paulwang/Desktop/DaisyExamples/libDaisy/src/daisy_seed.h ****     }
 533              		.loc 1 128 23 view .LVU146
 534 00fc D4ED035A 		vldr.32	s11, [r4, #12]
 535 0100 B7EEC66A 		vcvt.f64.f32	d6, s12
 536 0104 B7EEC77A 		vcvt.f64.f32	d7, s14
 537 0108 2B48     		ldr	r0, .L19+44
 538 010a B7EEE55A 		vcvt.f64.f32	d5, s11
 539 010e 8DED026B 		vstr.64	d6, [sp, #8]
 540 0112 53EC152B 		vmov	r2, r3, d5
 541              	.LVL34:
 128:/Users/paulwang/Desktop/DaisyExamples/libDaisy/src/daisy_seed.h ****     }
 542              		.loc 1 128 23 view .LVU147
 543              	.LBE174:
 544              	.LBE176:
  90:axis.cpp      ****             
  91:axis.cpp      ****             // // Read sensor data
  92:axis.cpp      ****             // SensorData data = ReadSensorData();
  93:axis.cpp      ****             
  94:axis.cpp      ****             // Print accelerometer (in g's)
  95:axis.cpp      ****             hw.PrintLine("Accel: X=%.2f Y=%.2f Z=%.2f g", 
 545              		.loc 7 95 13 is_stmt 1 view .LVU148
 546              	.LBB177:
 547              	.LBI172:
 126:/Users/paulwang/Desktop/DaisyExamples/libDaisy/src/daisy_seed.h ****     {
 548              		.loc 1 126 17 view .LVU149
 549              	.LBB175:
 128:/Users/paulwang/Desktop/DaisyExamples/libDaisy/src/daisy_seed.h ****     }
 550              		.loc 1 128 23 is_stmt 0 view .LVU150
 551 0116 8DED007B 		vstr.64	d7, [sp]
 552 011a FFF7FEFF 		bl	_ZN5daisy6LoggerILNS_17LoggerDestinationE1EE9PrintLineEPKcz
 553              	.LVL35:
 128:/Users/paulwang/Desktop/DaisyExamples/libDaisy/src/daisy_seed.h ****     }
 554              		.loc 1 128 23 view .LVU151
 555              	.LBE175:
 556              	.LBE177:
  96:axis.cpp      ****                          data.accel_x_g, data.accel_y_g, data.accel_z_g);
  97:axis.cpp      ****             
  98:axis.cpp      ****             // Print gyroscope (in degrees/second)
  99:axis.cpp      ****             hw.PrintLine("Gyro:  X=%.1f Y=%.1f Z=%.1f dps", 
 557              		.loc 7 99 13 is_stmt 1 view .LVU152
ARM GAS  /var/folders/6w/sx7v0gy94nj4l80r62zsklwh0000gn/T//cc5ARLDT.s 			page 24


 558              	.LBB178:
 559              	.LBI178:
 126:/Users/paulwang/Desktop/DaisyExamples/libDaisy/src/daisy_seed.h ****     {
 560              		.loc 1 126 17 view .LVU153
 561              	.LBB179:
 128:/Users/paulwang/Desktop/DaisyExamples/libDaisy/src/daisy_seed.h ****     }
 562              		.loc 1 128 23 is_stmt 0 view .LVU154
 563 011e 94ED086A 		vldr.32	s12, [r4, #32]
 564 0122 94ED077A 		vldr.32	s14, [r4, #28]
 565 0126 D4ED065A 		vldr.32	s11, [r4, #24]
 566 012a B7EEC66A 		vcvt.f64.f32	d6, s12
 567 012e B7EEC77A 		vcvt.f64.f32	d7, s14
 568 0132 2248     		ldr	r0, .L19+48
 569 0134 B7EEE55A 		vcvt.f64.f32	d5, s11
 570 0138 8DED026B 		vstr.64	d6, [sp, #8]
 571 013c 8DED007B 		vstr.64	d7, [sp]
 572 0140 53EC152B 		vmov	r2, r3, d5
 573 0144 FFF7FEFF 		bl	_ZN5daisy6LoggerILNS_17LoggerDestinationE1EE9PrintLineEPKcz
 574              	.LVL36:
 128:/Users/paulwang/Desktop/DaisyExamples/libDaisy/src/daisy_seed.h ****     }
 575              		.loc 1 128 23 view .LVU155
 576              	.LBE179:
 577              	.LBE178:
 100:axis.cpp      ****                          data.gyro_x_dps, data.gyro_y_dps, data.gyro_z_dps);
 101:axis.cpp      ****             
 102:axis.cpp      ****             // Print calculated angles (in degrees)
 103:axis.cpp      ****             hw.PrintLine("Angles: Roll=%.1f Pitch=%.1f\n", 
 578              		.loc 7 103 13 is_stmt 1 view .LVU156
 579              	.LBB180:
 580              	.LBI180:
 126:/Users/paulwang/Desktop/DaisyExamples/libDaisy/src/daisy_seed.h ****     {
 581              		.loc 1 126 17 view .LVU157
 582              	.LBB181:
 128:/Users/paulwang/Desktop/DaisyExamples/libDaisy/src/daisy_seed.h ****     }
 583              		.loc 1 128 23 is_stmt 0 view .LVU158
 584 0148 94ED0A7A 		vldr.32	s14, [r4, #40]
 585 014c D4ED096A 		vldr.32	s13, [r4, #36]
 586 0150 B7EEC77A 		vcvt.f64.f32	d7, s14
 587 0154 1A48     		ldr	r0, .L19+52
 588 0156 B7EEE66A 		vcvt.f64.f32	d6, s13
 589 015a 8DED007B 		vstr.64	d7, [sp]
 590 015e 53EC162B 		vmov	r2, r3, d6
 591 0162 FFF7FEFF 		bl	_ZN5daisy6LoggerILNS_17LoggerDestinationE1EE9PrintLineEPKcz
 592              	.LVL37:
 129:/Users/paulwang/Desktop/DaisyExamples/libDaisy/src/daisy_seed.h **** 
 593              		.loc 1 129 5 view .LVU159
 594 0166 A7E7     		b	.L16
 595              	.LVL38:
 596              	.L13:
 129:/Users/paulwang/Desktop/DaisyExamples/libDaisy/src/daisy_seed.h **** 
 597              		.loc 1 129 5 view .LVU160
 598              	.LBE181:
 599              	.LBE180:
  59:axis.cpp      ****         while(1) {
 600              		.loc 7 59 9 is_stmt 1 view .LVU161
 601              	.LBB182:
 602              	.LBI182:
ARM GAS  /var/folders/6w/sx7v0gy94nj4l80r62zsklwh0000gn/T//cc5ARLDT.s 			page 25


 126:/Users/paulwang/Desktop/DaisyExamples/libDaisy/src/daisy_seed.h ****     {
 603              		.loc 1 126 17 view .LVU162
 604              	.LBB183:
 128:/Users/paulwang/Desktop/DaisyExamples/libDaisy/src/daisy_seed.h ****     }
 605              		.loc 1 128 23 is_stmt 0 view .LVU163
 606 0168 1648     		ldr	r0, .L19+56
 607 016a FFF7FEFF 		bl	_ZN5daisy6LoggerILNS_17LoggerDestinationE1EE9PrintLineEPKcz
 608              	.LVL39:
 609              	.L15:
 128:/Users/paulwang/Desktop/DaisyExamples/libDaisy/src/daisy_seed.h ****     }
 610              		.loc 1 128 23 view .LVU164
 611              	.LBE183:
 612              	.LBE182:
  60:axis.cpp      ****             hw.SetLed(true);
 613              		.loc 7 60 9 is_stmt 1 discriminator 1 view .LVU165
  61:axis.cpp      ****             System::Delay(100);
 614              		.loc 7 61 13 discriminator 1 view .LVU166
  61:axis.cpp      ****             System::Delay(100);
 615              		.loc 7 61 22 is_stmt 0 discriminator 1 view .LVU167
 616 016e 0121     		movs	r1, #1
 617 0170 0648     		ldr	r0, .L19
 618 0172 FFF7FEFF 		bl	_ZN5daisy9DaisySeed6SetLedEb
 619              	.LVL40:
  62:axis.cpp      ****             hw.SetLed(false);
 620              		.loc 7 62 13 is_stmt 1 discriminator 1 view .LVU168
  62:axis.cpp      ****             hw.SetLed(false);
 621              		.loc 7 62 26 is_stmt 0 discriminator 1 view .LVU169
 622 0176 6420     		movs	r0, #100
 623 0178 FFF7FEFF 		bl	_ZN5daisy6System5DelayEm
 624              	.LVL41:
  63:axis.cpp      ****             System::Delay(100);
 625              		.loc 7 63 13 is_stmt 1 discriminator 1 view .LVU170
  63:axis.cpp      ****             System::Delay(100);
 626              		.loc 7 63 22 is_stmt 0 discriminator 1 view .LVU171
 627 017c 0021     		movs	r1, #0
 628 017e 0348     		ldr	r0, .L19
 629 0180 FFF7FEFF 		bl	_ZN5daisy9DaisySeed6SetLedEb
 630              	.LVL42:
  64:axis.cpp      ****         }
 631              		.loc 7 64 13 is_stmt 1 discriminator 1 view .LVU172
  64:axis.cpp      ****         }
 632              		.loc 7 64 26 is_stmt 0 discriminator 1 view .LVU173
 633 0184 6420     		movs	r0, #100
 634 0186 FFF7FEFF 		bl	_ZN5daisy6System5DelayEm
 635              	.LVL43:
  60:axis.cpp      ****             hw.SetLed(true);
 636              		.loc 7 60 9 is_stmt 1 discriminator 1 view .LVU174
 637 018a F0E7     		b	.L15
 638              	.L20:
 639              		.align	2
 640              	.L19:
 641 018c 00000000 		.word	.LANCHOR1
 642 0190 00000000 		.word	.LC0
 643 0194 18000000 		.word	.LC1
 644 0198 2C000000 		.word	.LC2
 645 019c 00000000 		.word	.LANCHOR2
 646 01a0 0000C842 		.word	1120403456
ARM GAS  /var/folders/6w/sx7v0gy94nj4l80r62zsklwh0000gn/T//cc5ARLDT.s 			page 26


 647 01a4 0000DC43 		.word	1138491392
 648 01a8 00000000 		.word	_Z13AudioCallbackPKPKfPPfj
 649 01ac 40000000 		.word	.LC3
 650 01b0 74000000 		.word	.LC5
 651 01b4 00000000 		.word	.LANCHOR0
 652 01b8 8C000000 		.word	.LC6
 653 01bc AC000000 		.word	.LC7
 654 01c0 CC000000 		.word	.LC8
 655 01c4 58000000 		.word	.LC4
 656              		.cfi_endproc
 657              	.LFE4683:
 659              		.section	.text.startup._GLOBAL__sub_I_hw,"ax",%progbits
 660              		.align	1
 661              		.p2align 2,,3
 662              		.syntax unified
 663              		.thumb
 664              		.thumb_func
 666              	_GLOBAL__sub_I_hw:
 667              	.LFB5249:
 104:axis.cpp      ****                          data.roll, data.pitch);
 105:axis.cpp      ****             
 106:axis.cpp      ****             // // Toggle LED to show it's working
 107:axis.cpp      ****             // hw.SetLed(!hw.Led());
 108:axis.cpp      ****             
 109:axis.cpp      ****             // // You can use these values to control audio effects
 110:axis.cpp      ****             // // For example:
 111:axis.cpp      ****             // // float tilt = data.roll;  // -180 to +180 degrees
 112:axis.cpp      ****             // // Use tilt to control an effect parameter
 113:axis.cpp      ****         }
 114:axis.cpp      ****     }
 115:axis.cpp      **** }
 668              		.loc 7 115 1 view -0
 669              		.cfi_startproc
 670              		@ args = 0, pretend = 0, frame = 0
 671              		@ frame_needed = 0, uses_anonymous_args = 0
 672              	.LBB207:
 673              	.LBI207:
 674              		.loc 7 115 1 view .LVU176
 675              	.LVL44:
 676              	.LBB208:
 677              	.LBB209:
 678              	.LBI209:
  21:/Users/paulwang/Desktop/DaisyExamples/libDaisy/src/daisy_seed.h ****     ~DaisySeed() {}
 679              		.loc 1 21 5 view .LVU177
 680              	.LBB210:
 681              	.LBB211:
 682              	.LBI211:
 683              		.file 8 "/Users/paulwang/Desktop/DaisyExamples/libDaisy/src/per/qspi.h"
   1:/Users/paulwang/Desktop/DaisyExamples/libDaisy/src/per/qspi.h **** #ifndef DSY_QSPI
   2:/Users/paulwang/Desktop/DaisyExamples/libDaisy/src/per/qspi.h **** #define DSY_QSPI /**< Macro */
   3:/Users/paulwang/Desktop/DaisyExamples/libDaisy/src/per/qspi.h **** 
   4:/Users/paulwang/Desktop/DaisyExamples/libDaisy/src/per/qspi.h **** #ifndef UNIT_TEST // for unit tests, a dummy implementation
   5:/Users/paulwang/Desktop/DaisyExamples/libDaisy/src/per/qspi.h **** 
   6:/Users/paulwang/Desktop/DaisyExamples/libDaisy/src/per/qspi.h **** #include <cstdint>
   7:/Users/paulwang/Desktop/DaisyExamples/libDaisy/src/per/qspi.h **** #include "daisy_core.h" // Added for dsy_gpio_pin typedef
   8:/Users/paulwang/Desktop/DaisyExamples/libDaisy/src/per/qspi.h **** 
   9:/Users/paulwang/Desktop/DaisyExamples/libDaisy/src/per/qspi.h **** #define DSY_QSPI_TEXT       \
ARM GAS  /var/folders/6w/sx7v0gy94nj4l80r62zsklwh0000gn/T//cc5ARLDT.s 			page 27


  10:/Users/paulwang/Desktop/DaisyExamples/libDaisy/src/per/qspi.h ****     __attribute__((section( \
  11:/Users/paulwang/Desktop/DaisyExamples/libDaisy/src/per/qspi.h ****         ".qspiflash_text"))) /**< used for reading memory in memory_mapped mode. */
  12:/Users/paulwang/Desktop/DaisyExamples/libDaisy/src/per/qspi.h **** #define DSY_QSPI_DATA       \
  13:/Users/paulwang/Desktop/DaisyExamples/libDaisy/src/per/qspi.h ****     __attribute__((section( \
  14:/Users/paulwang/Desktop/DaisyExamples/libDaisy/src/per/qspi.h ****         ".qspiflash_data"))) /**< used for reading memory in memory_mapped mode. */
  15:/Users/paulwang/Desktop/DaisyExamples/libDaisy/src/per/qspi.h **** #define DSY_QSPI_BSS        \
  16:/Users/paulwang/Desktop/DaisyExamples/libDaisy/src/per/qspi.h ****     __attribute__((section( \
  17:/Users/paulwang/Desktop/DaisyExamples/libDaisy/src/per/qspi.h ****         ".qspiflash_bss"))) /**< used for reading memory in memory_mapped mode. */
  18:/Users/paulwang/Desktop/DaisyExamples/libDaisy/src/per/qspi.h **** 
  19:/Users/paulwang/Desktop/DaisyExamples/libDaisy/src/per/qspi.h **** namespace daisy
  20:/Users/paulwang/Desktop/DaisyExamples/libDaisy/src/per/qspi.h **** {
  21:/Users/paulwang/Desktop/DaisyExamples/libDaisy/src/per/qspi.h **** /** @addtogroup serial
  22:/Users/paulwang/Desktop/DaisyExamples/libDaisy/src/per/qspi.h **** @{
  23:/Users/paulwang/Desktop/DaisyExamples/libDaisy/src/per/qspi.h **** */
  24:/Users/paulwang/Desktop/DaisyExamples/libDaisy/src/per/qspi.h **** 
  25:/Users/paulwang/Desktop/DaisyExamples/libDaisy/src/per/qspi.h **** /** 
  26:/Users/paulwang/Desktop/DaisyExamples/libDaisy/src/per/qspi.h ****  Driver for QSPI peripheral to interface with external flash memory. \n 
  27:/Users/paulwang/Desktop/DaisyExamples/libDaisy/src/per/qspi.h ****     Currently supported QSPI Devices: \n 
  28:/Users/paulwang/Desktop/DaisyExamples/libDaisy/src/per/qspi.h ****     * IS25LP080D
  29:/Users/paulwang/Desktop/DaisyExamples/libDaisy/src/per/qspi.h **** */
  30:/Users/paulwang/Desktop/DaisyExamples/libDaisy/src/per/qspi.h **** class QSPIHandle
  31:/Users/paulwang/Desktop/DaisyExamples/libDaisy/src/per/qspi.h **** {
  32:/Users/paulwang/Desktop/DaisyExamples/libDaisy/src/per/qspi.h ****   public:
  33:/Users/paulwang/Desktop/DaisyExamples/libDaisy/src/per/qspi.h ****     enum Result
  34:/Users/paulwang/Desktop/DaisyExamples/libDaisy/src/per/qspi.h ****     {
  35:/Users/paulwang/Desktop/DaisyExamples/libDaisy/src/per/qspi.h ****         OK = 0,
  36:/Users/paulwang/Desktop/DaisyExamples/libDaisy/src/per/qspi.h ****         ERR
  37:/Users/paulwang/Desktop/DaisyExamples/libDaisy/src/per/qspi.h ****     };
  38:/Users/paulwang/Desktop/DaisyExamples/libDaisy/src/per/qspi.h **** 
  39:/Users/paulwang/Desktop/DaisyExamples/libDaisy/src/per/qspi.h ****     /** Indicates the current status of the module. 
  40:/Users/paulwang/Desktop/DaisyExamples/libDaisy/src/per/qspi.h ****          *  Warnings are indicated by a leading W.
  41:/Users/paulwang/Desktop/DaisyExamples/libDaisy/src/per/qspi.h ****          *  Errors are indicated by a leading E and cause an immediate exit.
  42:/Users/paulwang/Desktop/DaisyExamples/libDaisy/src/per/qspi.h ****          * 
  43:/Users/paulwang/Desktop/DaisyExamples/libDaisy/src/per/qspi.h ****          *  \param GOOD - No errors have been reported.
  44:/Users/paulwang/Desktop/DaisyExamples/libDaisy/src/per/qspi.h ****          *  \param E_HAL_ERROR - HAL code did not return HAL_OK.
  45:/Users/paulwang/Desktop/DaisyExamples/libDaisy/src/per/qspi.h ****          *  \param E_SWITCHING_MODES - An error was encountered while switching QSPI peripheral mod
  46:/Users/paulwang/Desktop/DaisyExamples/libDaisy/src/per/qspi.h ****          *  \param E_INVALID_MODE - QSPI should not be written to while the program is executing fr
  47:/Users/paulwang/Desktop/DaisyExamples/libDaisy/src/per/qspi.h ****          */
  48:/Users/paulwang/Desktop/DaisyExamples/libDaisy/src/per/qspi.h ****     enum Status
  49:/Users/paulwang/Desktop/DaisyExamples/libDaisy/src/per/qspi.h ****     {
  50:/Users/paulwang/Desktop/DaisyExamples/libDaisy/src/per/qspi.h ****         GOOD = 0,
  51:/Users/paulwang/Desktop/DaisyExamples/libDaisy/src/per/qspi.h ****         E_HAL_ERROR,
  52:/Users/paulwang/Desktop/DaisyExamples/libDaisy/src/per/qspi.h ****         E_SWITCHING_MODES,
  53:/Users/paulwang/Desktop/DaisyExamples/libDaisy/src/per/qspi.h ****         E_INVALID_MODE,
  54:/Users/paulwang/Desktop/DaisyExamples/libDaisy/src/per/qspi.h ****     };
  55:/Users/paulwang/Desktop/DaisyExamples/libDaisy/src/per/qspi.h **** 
  56:/Users/paulwang/Desktop/DaisyExamples/libDaisy/src/per/qspi.h ****     /** Configuration structure for interfacing with QSPI Driver */
  57:/Users/paulwang/Desktop/DaisyExamples/libDaisy/src/per/qspi.h ****     struct Config
  58:/Users/paulwang/Desktop/DaisyExamples/libDaisy/src/per/qspi.h ****     {
  59:/Users/paulwang/Desktop/DaisyExamples/libDaisy/src/per/qspi.h ****         /** Flash Devices supported. (Both of these are more-or-less the same, just different sizes
  60:/Users/paulwang/Desktop/DaisyExamples/libDaisy/src/per/qspi.h ****         enum Device
  61:/Users/paulwang/Desktop/DaisyExamples/libDaisy/src/per/qspi.h ****         {
  62:/Users/paulwang/Desktop/DaisyExamples/libDaisy/src/per/qspi.h ****             IS25LP080D,  /**< & */
  63:/Users/paulwang/Desktop/DaisyExamples/libDaisy/src/per/qspi.h ****             IS25LP064A,  /**< & */
  64:/Users/paulwang/Desktop/DaisyExamples/libDaisy/src/per/qspi.h ****             DEVICE_LAST, /**< & */
  65:/Users/paulwang/Desktop/DaisyExamples/libDaisy/src/per/qspi.h ****         };
  66:/Users/paulwang/Desktop/DaisyExamples/libDaisy/src/per/qspi.h **** 
ARM GAS  /var/folders/6w/sx7v0gy94nj4l80r62zsklwh0000gn/T//cc5ARLDT.s 			page 28


  67:/Users/paulwang/Desktop/DaisyExamples/libDaisy/src/per/qspi.h ****         /** 
  68:/Users/paulwang/Desktop/DaisyExamples/libDaisy/src/per/qspi.h ****         Modes of operation.
  69:/Users/paulwang/Desktop/DaisyExamples/libDaisy/src/per/qspi.h ****         Memory Mapped mode: QSPI configured so that the QSPI can be
  70:/Users/paulwang/Desktop/DaisyExamples/libDaisy/src/per/qspi.h ****         read from starting address 0x90000000. Writing is not
  71:/Users/paulwang/Desktop/DaisyExamples/libDaisy/src/per/qspi.h ****         possible in this mode. \n 
  72:/Users/paulwang/Desktop/DaisyExamples/libDaisy/src/per/qspi.h ****         Indirect Polling mode: Device driver enabled. 
  73:/Users/paulwang/Desktop/DaisyExamples/libDaisy/src/per/qspi.h ****         */
  74:/Users/paulwang/Desktop/DaisyExamples/libDaisy/src/per/qspi.h ****         enum Mode
  75:/Users/paulwang/Desktop/DaisyExamples/libDaisy/src/per/qspi.h ****         {
  76:/Users/paulwang/Desktop/DaisyExamples/libDaisy/src/per/qspi.h ****             MEMORY_MAPPED,    /**< & */
  77:/Users/paulwang/Desktop/DaisyExamples/libDaisy/src/per/qspi.h ****             INDIRECT_POLLING, /**< & */
  78:/Users/paulwang/Desktop/DaisyExamples/libDaisy/src/per/qspi.h ****             MODE_LAST,
  79:/Users/paulwang/Desktop/DaisyExamples/libDaisy/src/per/qspi.h ****         };
  80:/Users/paulwang/Desktop/DaisyExamples/libDaisy/src/per/qspi.h **** 
  81:/Users/paulwang/Desktop/DaisyExamples/libDaisy/src/per/qspi.h ****         //SCK,  CE# (active low)
  82:/Users/paulwang/Desktop/DaisyExamples/libDaisy/src/per/qspi.h ****         struct
  83:/Users/paulwang/Desktop/DaisyExamples/libDaisy/src/per/qspi.h ****         {
  84:/Users/paulwang/Desktop/DaisyExamples/libDaisy/src/per/qspi.h ****             dsy_gpio_pin io0; /**< & */
  85:/Users/paulwang/Desktop/DaisyExamples/libDaisy/src/per/qspi.h ****             dsy_gpio_pin io1; /**< & */
  86:/Users/paulwang/Desktop/DaisyExamples/libDaisy/src/per/qspi.h ****             dsy_gpio_pin io2; /**< & */
  87:/Users/paulwang/Desktop/DaisyExamples/libDaisy/src/per/qspi.h ****             dsy_gpio_pin io3; /**< & */
  88:/Users/paulwang/Desktop/DaisyExamples/libDaisy/src/per/qspi.h ****             dsy_gpio_pin clk; /**< & */
  89:/Users/paulwang/Desktop/DaisyExamples/libDaisy/src/per/qspi.h ****             dsy_gpio_pin ncs; /**< & */
  90:/Users/paulwang/Desktop/DaisyExamples/libDaisy/src/per/qspi.h ****         } pin_config;
  91:/Users/paulwang/Desktop/DaisyExamples/libDaisy/src/per/qspi.h **** 
  92:/Users/paulwang/Desktop/DaisyExamples/libDaisy/src/per/qspi.h ****         Device device;
  93:/Users/paulwang/Desktop/DaisyExamples/libDaisy/src/per/qspi.h ****         Mode   mode;
  94:/Users/paulwang/Desktop/DaisyExamples/libDaisy/src/per/qspi.h ****     };
  95:/Users/paulwang/Desktop/DaisyExamples/libDaisy/src/per/qspi.h **** 
  96:/Users/paulwang/Desktop/DaisyExamples/libDaisy/src/per/qspi.h ****     /** 
  97:/Users/paulwang/Desktop/DaisyExamples/libDaisy/src/per/qspi.h ****         Initializes QSPI peripheral, and Resets, and prepares memory for access.
  98:/Users/paulwang/Desktop/DaisyExamples/libDaisy/src/per/qspi.h ****         \param config should be populated with the mode, device and pin_config before calling this 
  99:/Users/paulwang/Desktop/DaisyExamples/libDaisy/src/per/qspi.h ****         \return Result::OK or Result::ERR
 100:/Users/paulwang/Desktop/DaisyExamples/libDaisy/src/per/qspi.h ****         */
 101:/Users/paulwang/Desktop/DaisyExamples/libDaisy/src/per/qspi.h ****     Result Init(const Config& config);
 102:/Users/paulwang/Desktop/DaisyExamples/libDaisy/src/per/qspi.h **** 
 103:/Users/paulwang/Desktop/DaisyExamples/libDaisy/src/per/qspi.h ****     /** Returns the current config. */
 104:/Users/paulwang/Desktop/DaisyExamples/libDaisy/src/per/qspi.h ****     const Config& GetConfig() const;
 105:/Users/paulwang/Desktop/DaisyExamples/libDaisy/src/per/qspi.h **** 
 106:/Users/paulwang/Desktop/DaisyExamples/libDaisy/src/per/qspi.h ****     // Couldn't this just be called before anything else in init? That
 107:/Users/paulwang/Desktop/DaisyExamples/libDaisy/src/per/qspi.h ****     // would make manually calling it unnecessary.
 108:/Users/paulwang/Desktop/DaisyExamples/libDaisy/src/per/qspi.h ****     /** 
 109:/Users/paulwang/Desktop/DaisyExamples/libDaisy/src/per/qspi.h ****         Deinitializes the peripheral
 110:/Users/paulwang/Desktop/DaisyExamples/libDaisy/src/per/qspi.h ****         This should be called before reinitializing QSPI in a different mode.
 111:/Users/paulwang/Desktop/DaisyExamples/libDaisy/src/per/qspi.h ****         \return Result::OK or Result::ERR
 112:/Users/paulwang/Desktop/DaisyExamples/libDaisy/src/per/qspi.h ****         */
 113:/Users/paulwang/Desktop/DaisyExamples/libDaisy/src/per/qspi.h ****     Result DeInit();
 114:/Users/paulwang/Desktop/DaisyExamples/libDaisy/src/per/qspi.h **** 
 115:/Users/paulwang/Desktop/DaisyExamples/libDaisy/src/per/qspi.h ****     /** 
 116:/Users/paulwang/Desktop/DaisyExamples/libDaisy/src/per/qspi.h ****         Writes a single page to to the specified address on the QSPI chip.
 117:/Users/paulwang/Desktop/DaisyExamples/libDaisy/src/per/qspi.h ****         For IS25LP*, page size is 256 bytes.
 118:/Users/paulwang/Desktop/DaisyExamples/libDaisy/src/per/qspi.h ****         \param address Address to write to
 119:/Users/paulwang/Desktop/DaisyExamples/libDaisy/src/per/qspi.h ****         \param size Buffer size
 120:/Users/paulwang/Desktop/DaisyExamples/libDaisy/src/per/qspi.h ****         \param buffer Buffer to write
 121:/Users/paulwang/Desktop/DaisyExamples/libDaisy/src/per/qspi.h ****         \return Result::OK or Result::ERR
 122:/Users/paulwang/Desktop/DaisyExamples/libDaisy/src/per/qspi.h ****         */
 123:/Users/paulwang/Desktop/DaisyExamples/libDaisy/src/per/qspi.h ****     Result WritePage(uint32_t address, uint32_t size, uint8_t* buffer);
ARM GAS  /var/folders/6w/sx7v0gy94nj4l80r62zsklwh0000gn/T//cc5ARLDT.s 			page 29


 124:/Users/paulwang/Desktop/DaisyExamples/libDaisy/src/per/qspi.h **** 
 125:/Users/paulwang/Desktop/DaisyExamples/libDaisy/src/per/qspi.h ****     /** 
 126:/Users/paulwang/Desktop/DaisyExamples/libDaisy/src/per/qspi.h ****         Writes data in buffer to to the QSPI. Starting at address to address+size 
 127:/Users/paulwang/Desktop/DaisyExamples/libDaisy/src/per/qspi.h ****         \param address Address to write to
 128:/Users/paulwang/Desktop/DaisyExamples/libDaisy/src/per/qspi.h ****         \param size Buffer size
 129:/Users/paulwang/Desktop/DaisyExamples/libDaisy/src/per/qspi.h ****         \param buffer Buffer to write
 130:/Users/paulwang/Desktop/DaisyExamples/libDaisy/src/per/qspi.h ****         \return Result::OK or Result::ERR
 131:/Users/paulwang/Desktop/DaisyExamples/libDaisy/src/per/qspi.h ****         */
 132:/Users/paulwang/Desktop/DaisyExamples/libDaisy/src/per/qspi.h ****     Result Write(uint32_t address, uint32_t size, uint8_t* buffer);
 133:/Users/paulwang/Desktop/DaisyExamples/libDaisy/src/per/qspi.h **** 
 134:/Users/paulwang/Desktop/DaisyExamples/libDaisy/src/per/qspi.h ****     /** 
 135:/Users/paulwang/Desktop/DaisyExamples/libDaisy/src/per/qspi.h ****         Erases the area specified on the chip.
 136:/Users/paulwang/Desktop/DaisyExamples/libDaisy/src/per/qspi.h ****         Erasures will happen by 4K, 32K or 64K increments.
 137:/Users/paulwang/Desktop/DaisyExamples/libDaisy/src/per/qspi.h ****         Smallest erase possible is 4kB at a time. (on IS25LP*)
 138:/Users/paulwang/Desktop/DaisyExamples/libDaisy/src/per/qspi.h ****         \param start_addr Address to begin erasing from
 139:/Users/paulwang/Desktop/DaisyExamples/libDaisy/src/per/qspi.h ****         \param end_addr  Address to stop erasing at
 140:/Users/paulwang/Desktop/DaisyExamples/libDaisy/src/per/qspi.h ****         \return Result::OK or Result::ERR
 141:/Users/paulwang/Desktop/DaisyExamples/libDaisy/src/per/qspi.h ****         */
 142:/Users/paulwang/Desktop/DaisyExamples/libDaisy/src/per/qspi.h ****     Result Erase(uint32_t start_addr, uint32_t end_addr);
 143:/Users/paulwang/Desktop/DaisyExamples/libDaisy/src/per/qspi.h **** 
 144:/Users/paulwang/Desktop/DaisyExamples/libDaisy/src/per/qspi.h ****     /**  
 145:/Users/paulwang/Desktop/DaisyExamples/libDaisy/src/per/qspi.h ****          Erases a single sector of the chip.  
 146:/Users/paulwang/Desktop/DaisyExamples/libDaisy/src/per/qspi.h ****         TODO: Document the size of this function. 
 147:/Users/paulwang/Desktop/DaisyExamples/libDaisy/src/per/qspi.h ****         \param address Address of sector to erase
 148:/Users/paulwang/Desktop/DaisyExamples/libDaisy/src/per/qspi.h ****         \return Result::OK or Result::ERR
 149:/Users/paulwang/Desktop/DaisyExamples/libDaisy/src/per/qspi.h ****         */
 150:/Users/paulwang/Desktop/DaisyExamples/libDaisy/src/per/qspi.h ****     Result EraseSector(uint32_t address);
 151:/Users/paulwang/Desktop/DaisyExamples/libDaisy/src/per/qspi.h **** 
 152:/Users/paulwang/Desktop/DaisyExamples/libDaisy/src/per/qspi.h ****     /** Returns the current class status. Useful for debugging.
 153:/Users/paulwang/Desktop/DaisyExamples/libDaisy/src/per/qspi.h ****      *  \returns Status
 154:/Users/paulwang/Desktop/DaisyExamples/libDaisy/src/per/qspi.h ****      */
 155:/Users/paulwang/Desktop/DaisyExamples/libDaisy/src/per/qspi.h ****     Status GetStatus();
 156:/Users/paulwang/Desktop/DaisyExamples/libDaisy/src/per/qspi.h **** 
 157:/Users/paulwang/Desktop/DaisyExamples/libDaisy/src/per/qspi.h ****     /** Returns a pointer to the actual memory used 
 158:/Users/paulwang/Desktop/DaisyExamples/libDaisy/src/per/qspi.h ****      *  The memory at this address is read-only
 159:/Users/paulwang/Desktop/DaisyExamples/libDaisy/src/per/qspi.h ****      *  to write to it use the Write function.
 160:/Users/paulwang/Desktop/DaisyExamples/libDaisy/src/per/qspi.h ****      * 
 161:/Users/paulwang/Desktop/DaisyExamples/libDaisy/src/per/qspi.h ****      *  \param offset returns the pointer starting this 
 162:/Users/paulwang/Desktop/DaisyExamples/libDaisy/src/per/qspi.h ****      *                many bytes into the memory
 163:/Users/paulwang/Desktop/DaisyExamples/libDaisy/src/per/qspi.h ****     */
 164:/Users/paulwang/Desktop/DaisyExamples/libDaisy/src/per/qspi.h ****     void* GetData(uint32_t offset = 0);
 165:/Users/paulwang/Desktop/DaisyExamples/libDaisy/src/per/qspi.h **** 
 166:/Users/paulwang/Desktop/DaisyExamples/libDaisy/src/per/qspi.h ****     QSPIHandle() : pimpl_(nullptr) {}
 684              		.loc 8 166 5 view .LVU178
 685              	.LBE211:
 686              	.LBE210:
 687              	.LBE209:
 688              	.LBE208:
 689              	.LBE207:
 690              		.loc 7 115 1 is_stmt 0 view .LVU179
 691 0000 08B5     		push	{r3, lr}
 692              		.cfi_def_cfa_offset 8
 693              		.cfi_offset 3, -8
 694              		.cfi_offset 14, -4
 695              	.LBB237:
 696              	.LBB235:
 697              	.LBB232:
ARM GAS  /var/folders/6w/sx7v0gy94nj4l80r62zsklwh0000gn/T//cc5ARLDT.s 			page 30


 698              	.LBB230:
 699              	.LBB216:
 700              	.LBB212:
 701              	.LBB213:
 702              		.loc 8 166 34 view .LVU180
 703 0002 0848     		ldr	r0, .L23
 704 0004 0023     		movs	r3, #0
 705              	.LBE213:
 706              	.LBE212:
 707              	.LBE216:
 708              	.LBE230:
 709              	.LBE232:
   9:axis.cpp      **** Oscillator osc;
 710              		.loc 7 9 11 view .LVU181
 711 0006 084A     		ldr	r2, .L23+4
 712 0008 0849     		ldr	r1, .L23+8
 713              	.LBB233:
 714              	.LBB231:
 715              	.LBB217:
 716              	.LBB215:
 717              	.LBB214:
 718              		.loc 8 166 34 view .LVU182
 719 000a 0360     		str	r3, [r0]
 720              	.LVL45:
 721              		.loc 8 166 34 view .LVU183
 722              	.LBE214:
 723              	.LBE215:
 724              	.LBE217:
 725              	.LBB218:
 726              	.LBI218:
  95:/Users/paulwang/Desktop/DaisyExamples/libDaisy/src/hid/audio.h ****     ~AudioHandle() {}
 727              		.loc 5 95 5 is_stmt 1 view .LVU184
 728              	.LBB219:
 729              	.LBB220:
  95:/Users/paulwang/Desktop/DaisyExamples/libDaisy/src/hid/audio.h ****     ~AudioHandle() {}
 730              		.loc 5 95 35 is_stmt 0 view .LVU185
 731 000c 4361     		str	r3, [r0, #20]
 732              	.LVL46:
  95:/Users/paulwang/Desktop/DaisyExamples/libDaisy/src/hid/audio.h ****     ~AudioHandle() {}
 733              		.loc 5 95 35 view .LVU186
 734              	.LBE220:
 735              	.LBE219:
 736              	.LBE218:
 737              	.LBB221:
 738              	.LBI221:
 109:/Users/paulwang/Desktop/DaisyExamples/libDaisy/src/per/adc.h ****     ~AdcHandle() {}
 739              		.loc 4 109 5 is_stmt 1 view .LVU187
 109:/Users/paulwang/Desktop/DaisyExamples/libDaisy/src/per/adc.h ****     ~AdcHandle() {}
 740              		.loc 4 109 5 is_stmt 0 view .LVU188
 741              	.LBE221:
 742              	.LBB222:
 743              	.LBI222:
 744              		.file 9 "/Users/paulwang/Desktop/DaisyExamples/libDaisy/src/per/dac.h"
   1:/Users/paulwang/Desktop/DaisyExamples/libDaisy/src/per/dac.h **** #pragma once
   2:/Users/paulwang/Desktop/DaisyExamples/libDaisy/src/per/dac.h **** #ifndef DSY_DAC_H
   3:/Users/paulwang/Desktop/DaisyExamples/libDaisy/src/per/dac.h **** #define DSY_DAC_H
   4:/Users/paulwang/Desktop/DaisyExamples/libDaisy/src/per/dac.h **** 
ARM GAS  /var/folders/6w/sx7v0gy94nj4l80r62zsklwh0000gn/T//cc5ARLDT.s 			page 31


   5:/Users/paulwang/Desktop/DaisyExamples/libDaisy/src/per/dac.h **** #include "daisy_core.h"
   6:/Users/paulwang/Desktop/DaisyExamples/libDaisy/src/per/dac.h **** 
   7:/Users/paulwang/Desktop/DaisyExamples/libDaisy/src/per/dac.h **** namespace daisy
   8:/Users/paulwang/Desktop/DaisyExamples/libDaisy/src/per/dac.h **** {
   9:/Users/paulwang/Desktop/DaisyExamples/libDaisy/src/per/dac.h **** /** @brief DAC handle for Built-in DAC Peripheral 
  10:/Users/paulwang/Desktop/DaisyExamples/libDaisy/src/per/dac.h ****  *  @ingroup per_analog
  11:/Users/paulwang/Desktop/DaisyExamples/libDaisy/src/per/dac.h ****  ** 
  12:/Users/paulwang/Desktop/DaisyExamples/libDaisy/src/per/dac.h ****  ** For now only Normal Mode is supported,
  13:/Users/paulwang/Desktop/DaisyExamples/libDaisy/src/per/dac.h ****  ** Sample and hold mode provides reduced power consumption, but requires a bit more setup.
  14:/Users/paulwang/Desktop/DaisyExamples/libDaisy/src/per/dac.h ****  **
  15:/Users/paulwang/Desktop/DaisyExamples/libDaisy/src/per/dac.h ****  ** For now connecting the DAC through other internal peripherals is also not supported.
  16:/Users/paulwang/Desktop/DaisyExamples/libDaisy/src/per/dac.h ****  **
  17:/Users/paulwang/Desktop/DaisyExamples/libDaisy/src/per/dac.h ****  ** Since the DAC channels have dedicated pins we don't need to pass in a pin config like with
  18:/Users/paulwang/Desktop/DaisyExamples/libDaisy/src/per/dac.h ****  ** other modules. However, it is still important to not try to use the DAC pins for anything else.
  19:/Users/paulwang/Desktop/DaisyExamples/libDaisy/src/per/dac.h ****  ** DAC Channel 1 is on PA4, and DAC Channel 2 is on PA5
  20:/Users/paulwang/Desktop/DaisyExamples/libDaisy/src/per/dac.h ****  ***/
  21:/Users/paulwang/Desktop/DaisyExamples/libDaisy/src/per/dac.h **** class DacHandle
  22:/Users/paulwang/Desktop/DaisyExamples/libDaisy/src/per/dac.h **** {
  23:/Users/paulwang/Desktop/DaisyExamples/libDaisy/src/per/dac.h ****   public:
  24:/Users/paulwang/Desktop/DaisyExamples/libDaisy/src/per/dac.h ****     /** Return Values for the DacHandle class */
  25:/Users/paulwang/Desktop/DaisyExamples/libDaisy/src/per/dac.h ****     enum class Result
  26:/Users/paulwang/Desktop/DaisyExamples/libDaisy/src/per/dac.h ****     {
  27:/Users/paulwang/Desktop/DaisyExamples/libDaisy/src/per/dac.h ****         OK,
  28:/Users/paulwang/Desktop/DaisyExamples/libDaisy/src/per/dac.h ****         ERR,
  29:/Users/paulwang/Desktop/DaisyExamples/libDaisy/src/per/dac.h ****     };
  30:/Users/paulwang/Desktop/DaisyExamples/libDaisy/src/per/dac.h **** 
  31:/Users/paulwang/Desktop/DaisyExamples/libDaisy/src/per/dac.h ****     /** Selects which channel(s) will be configured for use. */
  32:/Users/paulwang/Desktop/DaisyExamples/libDaisy/src/per/dac.h ****     enum class Channel
  33:/Users/paulwang/Desktop/DaisyExamples/libDaisy/src/per/dac.h ****     {
  34:/Users/paulwang/Desktop/DaisyExamples/libDaisy/src/per/dac.h ****         ONE,
  35:/Users/paulwang/Desktop/DaisyExamples/libDaisy/src/per/dac.h ****         TWO,
  36:/Users/paulwang/Desktop/DaisyExamples/libDaisy/src/per/dac.h ****         BOTH,
  37:/Users/paulwang/Desktop/DaisyExamples/libDaisy/src/per/dac.h ****     };
  38:/Users/paulwang/Desktop/DaisyExamples/libDaisy/src/per/dac.h **** 
  39:/Users/paulwang/Desktop/DaisyExamples/libDaisy/src/per/dac.h ****     /** Sets the Mode for the DAC channels.
  40:/Users/paulwang/Desktop/DaisyExamples/libDaisy/src/per/dac.h ****      **
  41:/Users/paulwang/Desktop/DaisyExamples/libDaisy/src/per/dac.h ****      ** Polling mode uses the blocking mode to transmit a single value at a time.
  42:/Users/paulwang/Desktop/DaisyExamples/libDaisy/src/per/dac.h ****      **
  43:/Users/paulwang/Desktop/DaisyExamples/libDaisy/src/per/dac.h ****      ** DMA mode uses a buffer, and periodically transmits it triggering a 
  44:/Users/paulwang/Desktop/DaisyExamples/libDaisy/src/per/dac.h ****      ** callback to fill the buffer when it is ready for more samples.
  45:/Users/paulwang/Desktop/DaisyExamples/libDaisy/src/per/dac.h ****      ***/
  46:/Users/paulwang/Desktop/DaisyExamples/libDaisy/src/per/dac.h ****     enum class Mode
  47:/Users/paulwang/Desktop/DaisyExamples/libDaisy/src/per/dac.h ****     {
  48:/Users/paulwang/Desktop/DaisyExamples/libDaisy/src/per/dac.h ****         POLLING,
  49:/Users/paulwang/Desktop/DaisyExamples/libDaisy/src/per/dac.h ****         DMA,
  50:/Users/paulwang/Desktop/DaisyExamples/libDaisy/src/per/dac.h ****     };
  51:/Users/paulwang/Desktop/DaisyExamples/libDaisy/src/per/dac.h **** 
  52:/Users/paulwang/Desktop/DaisyExamples/libDaisy/src/per/dac.h ****     /** Sets the number of bits per sample transmitted out of the DAC.
  53:/Users/paulwang/Desktop/DaisyExamples/libDaisy/src/per/dac.h ****      ** The output range will be: 0V - VDDA
  54:/Users/paulwang/Desktop/DaisyExamples/libDaisy/src/per/dac.h ****      ** The resolution will be roughly: bitdepth / (VDDA - 0V) 
  55:/Users/paulwang/Desktop/DaisyExamples/libDaisy/src/per/dac.h ****      ***/
  56:/Users/paulwang/Desktop/DaisyExamples/libDaisy/src/per/dac.h ****     enum class BitDepth
  57:/Users/paulwang/Desktop/DaisyExamples/libDaisy/src/per/dac.h ****     {
  58:/Users/paulwang/Desktop/DaisyExamples/libDaisy/src/per/dac.h ****         BITS_8,
  59:/Users/paulwang/Desktop/DaisyExamples/libDaisy/src/per/dac.h ****         BITS_12
  60:/Users/paulwang/Desktop/DaisyExamples/libDaisy/src/per/dac.h ****     };
  61:/Users/paulwang/Desktop/DaisyExamples/libDaisy/src/per/dac.h **** 
ARM GAS  /var/folders/6w/sx7v0gy94nj4l80r62zsklwh0000gn/T//cc5ARLDT.s 			page 32


  62:/Users/paulwang/Desktop/DaisyExamples/libDaisy/src/per/dac.h ****     /** Sets whether the DAC output is buffered for higher drive ability. */
  63:/Users/paulwang/Desktop/DaisyExamples/libDaisy/src/per/dac.h ****     enum class BufferState
  64:/Users/paulwang/Desktop/DaisyExamples/libDaisy/src/per/dac.h ****     {
  65:/Users/paulwang/Desktop/DaisyExamples/libDaisy/src/per/dac.h ****         ENABLED,
  66:/Users/paulwang/Desktop/DaisyExamples/libDaisy/src/per/dac.h ****         DISABLED,
  67:/Users/paulwang/Desktop/DaisyExamples/libDaisy/src/per/dac.h ****     };
  68:/Users/paulwang/Desktop/DaisyExamples/libDaisy/src/per/dac.h **** 
  69:/Users/paulwang/Desktop/DaisyExamples/libDaisy/src/per/dac.h ****     /** Configuration structure for initializing the DAC structure. */
  70:/Users/paulwang/Desktop/DaisyExamples/libDaisy/src/per/dac.h ****     struct Config
  71:/Users/paulwang/Desktop/DaisyExamples/libDaisy/src/per/dac.h ****     {
  72:/Users/paulwang/Desktop/DaisyExamples/libDaisy/src/per/dac.h ****         /** Target Samplerate in Hz used to configure the internal 
  73:/Users/paulwang/Desktop/DaisyExamples/libDaisy/src/per/dac.h ****          ** timebase for DMA mode. Does nothing in POLLING mode.
  74:/Users/paulwang/Desktop/DaisyExamples/libDaisy/src/per/dac.h ****          ** If the value is 0 at Init time this will default to 48000Hz 
  75:/Users/paulwang/Desktop/DaisyExamples/libDaisy/src/per/dac.h ****          ** otherwise the driver will attempt meet the target.*/
  76:/Users/paulwang/Desktop/DaisyExamples/libDaisy/src/per/dac.h ****         uint32_t target_samplerate;
  77:/Users/paulwang/Desktop/DaisyExamples/libDaisy/src/per/dac.h **** 
  78:/Users/paulwang/Desktop/DaisyExamples/libDaisy/src/per/dac.h ****         Channel     chn;
  79:/Users/paulwang/Desktop/DaisyExamples/libDaisy/src/per/dac.h ****         Mode        mode;
  80:/Users/paulwang/Desktop/DaisyExamples/libDaisy/src/per/dac.h ****         BitDepth    bitdepth;
  81:/Users/paulwang/Desktop/DaisyExamples/libDaisy/src/per/dac.h ****         BufferState buff_state;
  82:/Users/paulwang/Desktop/DaisyExamples/libDaisy/src/per/dac.h ****     };
  83:/Users/paulwang/Desktop/DaisyExamples/libDaisy/src/per/dac.h **** 
  84:/Users/paulwang/Desktop/DaisyExamples/libDaisy/src/per/dac.h ****     DacHandle() : pimpl_(nullptr) {}
 745              		.loc 9 84 5 is_stmt 1 view .LVU189
 746              	.LBB223:
 747              	.LBB224:
 748              		.loc 9 84 33 is_stmt 0 view .LVU190
 749 000e 0362     		str	r3, [r0, #32]
 750              	.LVL47:
 751              		.loc 9 84 33 view .LVU191
 752              	.LBE224:
 753              	.LBE223:
 754              	.LBE222:
 755              	.LBB225:
 756              	.LBI225:
  40:/Users/paulwang/Desktop/DaisyExamples/libDaisy/src/hid/usb.h **** 
 757              		.loc 3 40 5 is_stmt 1 view .LVU192
  40:/Users/paulwang/Desktop/DaisyExamples/libDaisy/src/hid/usb.h **** 
 758              		.loc 3 40 5 is_stmt 0 view .LVU193
 759              	.LBE225:
 760              	.LBB226:
 761              	.LBI226:
  96:/Users/paulwang/Desktop/DaisyExamples/libDaisy/src/sys/system.h ****     ~System() {}
 762              		.loc 2 96 5 is_stmt 1 view .LVU194
  96:/Users/paulwang/Desktop/DaisyExamples/libDaisy/src/sys/system.h ****     ~System() {}
 763              		.loc 2 96 5 is_stmt 0 view .LVU195
 764              	.LBE226:
 765              	.LBB227:
 766              	.LBI227:
 767              		.file 10 "/Users/paulwang/Desktop/DaisyExamples/libDaisy/src/per/sai.h"
   1:/Users/paulwang/Desktop/DaisyExamples/libDaisy/src/per/sai.h **** #pragma once
   2:/Users/paulwang/Desktop/DaisyExamples/libDaisy/src/per/sai.h **** #ifndef DSY_SAI_H
   3:/Users/paulwang/Desktop/DaisyExamples/libDaisy/src/per/sai.h **** #define DSY_SAI_H
   4:/Users/paulwang/Desktop/DaisyExamples/libDaisy/src/per/sai.h **** 
   5:/Users/paulwang/Desktop/DaisyExamples/libDaisy/src/per/sai.h **** #include "daisy_core.h"
   6:/Users/paulwang/Desktop/DaisyExamples/libDaisy/src/per/sai.h **** 
   7:/Users/paulwang/Desktop/DaisyExamples/libDaisy/src/per/sai.h **** namespace daisy
ARM GAS  /var/folders/6w/sx7v0gy94nj4l80r62zsklwh0000gn/T//cc5ARLDT.s 			page 33


   8:/Users/paulwang/Desktop/DaisyExamples/libDaisy/src/per/sai.h **** {
   9:/Users/paulwang/Desktop/DaisyExamples/libDaisy/src/per/sai.h **** /** 
  10:/Users/paulwang/Desktop/DaisyExamples/libDaisy/src/per/sai.h ****  * Support for I2S Audio Protocol with different bit-depth, samplerate options
  11:/Users/paulwang/Desktop/DaisyExamples/libDaisy/src/per/sai.h ****  * Allows for master or slave, as well as freedom of selecting direction, 
  12:/Users/paulwang/Desktop/DaisyExamples/libDaisy/src/per/sai.h ****  * and other behavior for each peripheral, and block.
  13:/Users/paulwang/Desktop/DaisyExamples/libDaisy/src/per/sai.h ****  * 
  14:/Users/paulwang/Desktop/DaisyExamples/libDaisy/src/per/sai.h ****  * DMA Transfer commands must use buffers located within non-cached memory or use cache maintenance
  15:/Users/paulwang/Desktop/DaisyExamples/libDaisy/src/per/sai.h ****  * To declare an unitialized global element in the DMA memory section:
  16:/Users/paulwang/Desktop/DaisyExamples/libDaisy/src/per/sai.h ****  *    int32_t DSY_DMA_BUFFER_SECTOR my_buffer[96];
  17:/Users/paulwang/Desktop/DaisyExamples/libDaisy/src/per/sai.h ****  *
  18:/Users/paulwang/Desktop/DaisyExamples/libDaisy/src/per/sai.h ****  * Callback functions will be called once per half of the buffer. In the above example, 
  19:/Users/paulwang/Desktop/DaisyExamples/libDaisy/src/per/sai.h ****  * the callback function would be called once for every 48 samples.
  20:/Users/paulwang/Desktop/DaisyExamples/libDaisy/src/per/sai.h ****  * 
  21:/Users/paulwang/Desktop/DaisyExamples/libDaisy/src/per/sai.h ****  * Use SAI Handle like this:
  22:/Users/paulwang/Desktop/DaisyExamples/libDaisy/src/per/sai.h ****  * 
  23:/Users/paulwang/Desktop/DaisyExamples/libDaisy/src/per/sai.h ****  *  SaiHandle::Config sai_config;
  24:/Users/paulwang/Desktop/DaisyExamples/libDaisy/src/per/sai.h ****  *  sai_config.periph          = SaiHandle::Config::Peripheral::SAI_1;
  25:/Users/paulwang/Desktop/DaisyExamples/libDaisy/src/per/sai.h ****  *  sai_config.sr              = SaiHandle::Config::SampleRate::SAI_48KHZ;
  26:/Users/paulwang/Desktop/DaisyExamples/libDaisy/src/per/sai.h ****  *  sai_config.bit_depth       = SaiHandle::Config::BitDepth::SAI_24BIT;
  27:/Users/paulwang/Desktop/DaisyExamples/libDaisy/src/per/sai.h ****  *  sai_config.a_sync          = SaiHandle::Config::Sync::MASTER;
  28:/Users/paulwang/Desktop/DaisyExamples/libDaisy/src/per/sai.h ****  *  sai_config.b_sync          = SaiHandle::Config::Sync::SLAVE;
  29:/Users/paulwang/Desktop/DaisyExamples/libDaisy/src/per/sai.h ****  *  sai_config.a_dir           = SaiHandle::Config::Direction::RECEIVE;
  30:/Users/paulwang/Desktop/DaisyExamples/libDaisy/src/per/sai.h ****  *  sai_config.b_dir           = SaiHandle::Config::Direction::TRANSMIT;
  31:/Users/paulwang/Desktop/DaisyExamples/libDaisy/src/per/sai.h ****  *  sai_config.pin_config.fs   = {DSY_GPIOE, 4};
  32:/Users/paulwang/Desktop/DaisyExamples/libDaisy/src/per/sai.h ****  *  sai_config.pin_config.mclk = {DSY_GPIOE, 2};
  33:/Users/paulwang/Desktop/DaisyExamples/libDaisy/src/per/sai.h ****  *  sai_config.pin_config.sck  = {DSY_GPIOE, 5};
  34:/Users/paulwang/Desktop/DaisyExamples/libDaisy/src/per/sai.h ****  *  sai_config.pin_config.sa   = {DSY_GPIOE, 6};
  35:/Users/paulwang/Desktop/DaisyExamples/libDaisy/src/per/sai.h ****  *  sai_config.pin_config.sb   = {DSY_GPIOE, 3};
  36:/Users/paulwang/Desktop/DaisyExamples/libDaisy/src/per/sai.h ****  *  // Then Initialize
  37:/Users/paulwang/Desktop/DaisyExamples/libDaisy/src/per/sai.h ****  *  SaiHandle sai;
  38:/Users/paulwang/Desktop/DaisyExamples/libDaisy/src/per/sai.h ****  *  sai.Init(sai_config);
  39:/Users/paulwang/Desktop/DaisyExamples/libDaisy/src/per/sai.h ****  *  // Now you can use it:
  40:/Users/paulwang/Desktop/DaisyExamples/libDaisy/src/per/sai.h ****  *  sai.StartDma(. . .);
  41:/Users/paulwang/Desktop/DaisyExamples/libDaisy/src/per/sai.h ****  */
  42:/Users/paulwang/Desktop/DaisyExamples/libDaisy/src/per/sai.h **** class SaiHandle
  43:/Users/paulwang/Desktop/DaisyExamples/libDaisy/src/per/sai.h **** {
  44:/Users/paulwang/Desktop/DaisyExamples/libDaisy/src/per/sai.h ****   public:
  45:/Users/paulwang/Desktop/DaisyExamples/libDaisy/src/per/sai.h ****     /** Contains settings for initialising an SAI Interface */
  46:/Users/paulwang/Desktop/DaisyExamples/libDaisy/src/per/sai.h ****     struct Config
  47:/Users/paulwang/Desktop/DaisyExamples/libDaisy/src/per/sai.h ****     {
  48:/Users/paulwang/Desktop/DaisyExamples/libDaisy/src/per/sai.h ****         /** Specifies the internal peripheral to use (mapped to different hardware pins) */
  49:/Users/paulwang/Desktop/DaisyExamples/libDaisy/src/per/sai.h ****         enum class Peripheral
  50:/Users/paulwang/Desktop/DaisyExamples/libDaisy/src/per/sai.h ****         {
  51:/Users/paulwang/Desktop/DaisyExamples/libDaisy/src/per/sai.h ****             SAI_1,
  52:/Users/paulwang/Desktop/DaisyExamples/libDaisy/src/per/sai.h ****             SAI_2,
  53:/Users/paulwang/Desktop/DaisyExamples/libDaisy/src/per/sai.h ****         };
  54:/Users/paulwang/Desktop/DaisyExamples/libDaisy/src/per/sai.h **** 
  55:/Users/paulwang/Desktop/DaisyExamples/libDaisy/src/per/sai.h ****         /** Rate at which samples will be streaming to/from the device. */
  56:/Users/paulwang/Desktop/DaisyExamples/libDaisy/src/per/sai.h ****         enum class SampleRate
  57:/Users/paulwang/Desktop/DaisyExamples/libDaisy/src/per/sai.h ****         {
  58:/Users/paulwang/Desktop/DaisyExamples/libDaisy/src/per/sai.h ****             SAI_8KHZ,
  59:/Users/paulwang/Desktop/DaisyExamples/libDaisy/src/per/sai.h ****             SAI_16KHZ,
  60:/Users/paulwang/Desktop/DaisyExamples/libDaisy/src/per/sai.h ****             SAI_32KHZ,
  61:/Users/paulwang/Desktop/DaisyExamples/libDaisy/src/per/sai.h ****             SAI_48KHZ,
  62:/Users/paulwang/Desktop/DaisyExamples/libDaisy/src/per/sai.h ****             SAI_96KHZ,
  63:/Users/paulwang/Desktop/DaisyExamples/libDaisy/src/per/sai.h ****         };
  64:/Users/paulwang/Desktop/DaisyExamples/libDaisy/src/per/sai.h **** 
ARM GAS  /var/folders/6w/sx7v0gy94nj4l80r62zsklwh0000gn/T//cc5ARLDT.s 			page 34


  65:/Users/paulwang/Desktop/DaisyExamples/libDaisy/src/per/sai.h ****         /** Bit Depth that the hardware expects to be transferred to/from the device. */
  66:/Users/paulwang/Desktop/DaisyExamples/libDaisy/src/per/sai.h ****         enum class BitDepth
  67:/Users/paulwang/Desktop/DaisyExamples/libDaisy/src/per/sai.h ****         {
  68:/Users/paulwang/Desktop/DaisyExamples/libDaisy/src/per/sai.h ****             SAI_16BIT,
  69:/Users/paulwang/Desktop/DaisyExamples/libDaisy/src/per/sai.h ****             SAI_24BIT,
  70:/Users/paulwang/Desktop/DaisyExamples/libDaisy/src/per/sai.h ****             SAI_32BIT,
  71:/Users/paulwang/Desktop/DaisyExamples/libDaisy/src/per/sai.h ****         };
  72:/Users/paulwang/Desktop/DaisyExamples/libDaisy/src/per/sai.h **** 
  73:/Users/paulwang/Desktop/DaisyExamples/libDaisy/src/per/sai.h ****         /** Specifies whether a particular block is the master or the slave 
  74:/Users/paulwang/Desktop/DaisyExamples/libDaisy/src/per/sai.h ****          ** If both are set to slave, no MCLK signal will be used, and it is
  75:/Users/paulwang/Desktop/DaisyExamples/libDaisy/src/per/sai.h ****          ** expected that the codec will have its own xtal.
  76:/Users/paulwang/Desktop/DaisyExamples/libDaisy/src/per/sai.h ****          */
  77:/Users/paulwang/Desktop/DaisyExamples/libDaisy/src/per/sai.h ****         enum class Sync
  78:/Users/paulwang/Desktop/DaisyExamples/libDaisy/src/per/sai.h ****         {
  79:/Users/paulwang/Desktop/DaisyExamples/libDaisy/src/per/sai.h ****             MASTER,
  80:/Users/paulwang/Desktop/DaisyExamples/libDaisy/src/per/sai.h ****             SLAVE,
  81:/Users/paulwang/Desktop/DaisyExamples/libDaisy/src/per/sai.h ****         };
  82:/Users/paulwang/Desktop/DaisyExamples/libDaisy/src/per/sai.h **** 
  83:/Users/paulwang/Desktop/DaisyExamples/libDaisy/src/per/sai.h ****         /** Specifies the direction for each peripheral block. */
  84:/Users/paulwang/Desktop/DaisyExamples/libDaisy/src/per/sai.h ****         enum class Direction
  85:/Users/paulwang/Desktop/DaisyExamples/libDaisy/src/per/sai.h ****         {
  86:/Users/paulwang/Desktop/DaisyExamples/libDaisy/src/per/sai.h ****             TRANSMIT,
  87:/Users/paulwang/Desktop/DaisyExamples/libDaisy/src/per/sai.h ****             RECEIVE,
  88:/Users/paulwang/Desktop/DaisyExamples/libDaisy/src/per/sai.h ****         };
  89:/Users/paulwang/Desktop/DaisyExamples/libDaisy/src/per/sai.h **** 
  90:/Users/paulwang/Desktop/DaisyExamples/libDaisy/src/per/sai.h ****         Peripheral periph;
  91:/Users/paulwang/Desktop/DaisyExamples/libDaisy/src/per/sai.h ****         struct
  92:/Users/paulwang/Desktop/DaisyExamples/libDaisy/src/per/sai.h ****         {
  93:/Users/paulwang/Desktop/DaisyExamples/libDaisy/src/per/sai.h ****             dsy_gpio_pin mclk, fs, sck, sa, sb;
  94:/Users/paulwang/Desktop/DaisyExamples/libDaisy/src/per/sai.h ****         } pin_config;
  95:/Users/paulwang/Desktop/DaisyExamples/libDaisy/src/per/sai.h ****         SampleRate sr;
  96:/Users/paulwang/Desktop/DaisyExamples/libDaisy/src/per/sai.h ****         BitDepth   bit_depth;
  97:/Users/paulwang/Desktop/DaisyExamples/libDaisy/src/per/sai.h ****         Sync       a_sync, b_sync;
  98:/Users/paulwang/Desktop/DaisyExamples/libDaisy/src/per/sai.h ****         Direction  a_dir, b_dir;
  99:/Users/paulwang/Desktop/DaisyExamples/libDaisy/src/per/sai.h ****     };
 100:/Users/paulwang/Desktop/DaisyExamples/libDaisy/src/per/sai.h **** 
 101:/Users/paulwang/Desktop/DaisyExamples/libDaisy/src/per/sai.h ****     /** Return values for SAI functions */
 102:/Users/paulwang/Desktop/DaisyExamples/libDaisy/src/per/sai.h ****     enum class Result
 103:/Users/paulwang/Desktop/DaisyExamples/libDaisy/src/per/sai.h ****     {
 104:/Users/paulwang/Desktop/DaisyExamples/libDaisy/src/per/sai.h ****         OK,
 105:/Users/paulwang/Desktop/DaisyExamples/libDaisy/src/per/sai.h ****         ERR,
 106:/Users/paulwang/Desktop/DaisyExamples/libDaisy/src/per/sai.h ****     };
 107:/Users/paulwang/Desktop/DaisyExamples/libDaisy/src/per/sai.h **** 
 108:/Users/paulwang/Desktop/DaisyExamples/libDaisy/src/per/sai.h ****     SaiHandle() : pimpl_(nullptr) {}
 768              		.loc 10 108 5 is_stmt 1 view .LVU196
 769              	.LBB228:
 770              	.LBB229:
 771              		.loc 10 108 33 is_stmt 0 view .LVU197
 772 0010 C363     		str	r3, [r0, #60]
 773              	.LVL48:
 774              		.loc 10 108 33 view .LVU198
 775              	.LBE229:
 776              	.LBE228:
 777              	.LBE227:
 778              	.LBE231:
 779              	.LBE233:
   9:axis.cpp      **** Oscillator osc;
ARM GAS  /var/folders/6w/sx7v0gy94nj4l80r62zsklwh0000gn/T//cc5ARLDT.s 			page 35


 780              		.loc 7 9 11 view .LVU199
 781 0012 FFF7FEFF 		bl	__aeabi_atexit
 782              	.LVL49:
 783              	.LBB234:
 784              	.LBI234:
  23:/Users/paulwang/Desktop/DaisyExamples/DaisySP/Source/Synthesis/oscillator.h ****     ~Oscillator() {}
 785              		.loc 6 23 5 is_stmt 1 view .LVU200
  23:/Users/paulwang/Desktop/DaisyExamples/DaisySP/Source/Synthesis/oscillator.h ****     ~Oscillator() {}
 786              		.loc 6 23 5 is_stmt 0 view .LVU201
 787              	.LBE234:
  10:axis.cpp      **** SensorData data;
 788              		.loc 7 10 12 view .LVU202
 789 0016 044A     		ldr	r2, .L23+4
 790 0018 0549     		ldr	r1, .L23+12
 791 001a 0648     		ldr	r0, .L23+16
 792              	.LBE235:
 793              	.LBE237:
 794              		.loc 7 115 1 view .LVU203
 795 001c BDE80840 		pop	{r3, lr}
 796              		.cfi_restore 14
 797              		.cfi_restore 3
 798              		.cfi_def_cfa_offset 0
 799              	.LBB238:
 800              	.LBB236:
  10:axis.cpp      **** SensorData data;
 801              		.loc 7 10 12 view .LVU204
 802 0020 FFF7FEBF 		b	__aeabi_atexit
 803              	.LVL50:
 804              	.L24:
 805              		.align	2
 806              	.L23:
 807 0024 00000000 		.word	.LANCHOR1
 808 0028 00000000 		.word	__dso_handle
 809 002c 00000000 		.word	_ZN5daisy9DaisySeedD1Ev
 810 0030 00000000 		.word	_ZN7daisysp10OscillatorD1Ev
 811 0034 00000000 		.word	.LANCHOR2
 812              	.LBE236:
 813              	.LBE238:
 814              		.cfi_endproc
 815              	.LFE5249:
 817              		.section	.init_array,"aw",%init_array
 818              		.align	2
 819 0000 00000000 		.word	_GLOBAL__sub_I_hw(target1)
 820              		.global	data
 821              		.global	osc
 822              		.global	hw
 823              		.section	.bss.data,"aw",%nobits
 824              		.align	2
 825              		.set	.LANCHOR0,. + 0
 828              	data:
 829 0000 00000000 		.space	44
 829      00000000 
 829      00000000 
 829      00000000 
 829      00000000 
 830              		.section	.bss.hw,"aw",%nobits
 831              		.align	2
ARM GAS  /var/folders/6w/sx7v0gy94nj4l80r62zsklwh0000gn/T//cc5ARLDT.s 			page 36


 832              		.set	.LANCHOR1,. + 0
 835              	hw:
 836 0000 00000000 		.space	64
 836      00000000 
 836      00000000 
 836      00000000 
 836      00000000 
 837              		.section	.bss.osc,"aw",%nobits
 838              		.align	2
 839              		.set	.LANCHOR2,. + 0
 842              	osc:
 843 0000 00000000 		.space	44
 843      00000000 
 843      00000000 
 843      00000000 
 843      00000000 
 844              		.text
 845              	.Letext0:
 846              		.file 11 "/Library/DaisyToolchain/0.2.0/arm/arm-none-eabi/include/machine/_default_types.h"
 847              		.file 12 "/Library/DaisyToolchain/0.2.0/arm/arm-none-eabi/include/sys/_stdint.h"
 848              		.file 13 "/Library/DaisyToolchain/0.2.0/arm/arm-none-eabi/include/stdint.h"
 849              		.file 14 "/Library/DaisyToolchain/0.2.0/arm/lib/gcc/arm-none-eabi/10.3.1/include/stddef.h"
 850              		.file 15 "/Library/DaisyToolchain/0.2.0/arm/arm-none-eabi/include/c++/10.3.1/cmath"
 851              		.file 16 "/Library/DaisyToolchain/0.2.0/arm/arm-none-eabi/include/c++/10.3.1/bits/std_abs.h"
 852              		.file 17 "/Library/DaisyToolchain/0.2.0/arm/arm-none-eabi/include/c++/10.3.1/cstdlib"
 853              		.file 18 "/Library/DaisyToolchain/0.2.0/arm/arm-none-eabi/include/c++/10.3.1/cstdint"
 854              		.file 19 "/Library/DaisyToolchain/0.2.0/arm/arm-none-eabi/include/c++/10.3.1/type_traits"
 855              		.file 20 "/Library/DaisyToolchain/0.2.0/arm/arm-none-eabi/include/c++/10.3.1/debug/debug.h"
 856              		.file 21 "/Library/DaisyToolchain/0.2.0/arm/arm-none-eabi/include/c++/10.3.1/arm-none-eabi/thumb/v
 857              		.file 22 "/Library/DaisyToolchain/0.2.0/arm/arm-none-eabi/include/c++/10.3.1/bits/algorithmfwd.h"
 858              		.file 23 "/Library/DaisyToolchain/0.2.0/arm/arm-none-eabi/include/c++/10.3.1/bits/stl_pair.h"
 859              		.file 24 "/Library/DaisyToolchain/0.2.0/arm/arm-none-eabi/include/c++/10.3.1/bits/exception_ptr.h"
 860              		.file 25 "/Library/DaisyToolchain/0.2.0/arm/arm-none-eabi/include/c++/10.3.1/cstdarg"
 861              		.file 26 "/Library/DaisyToolchain/0.2.0/arm/arm-none-eabi/include/c++/10.3.1/cstdio"
 862              		.file 27 "/Library/DaisyToolchain/0.2.0/arm/arm-none-eabi/include/c++/10.3.1/cstring"
 863              		.file 28 "/Library/DaisyToolchain/0.2.0/arm/arm-none-eabi/include/c++/10.3.1/cwchar"
 864              		.file 29 "/Library/DaisyToolchain/0.2.0/arm/arm-none-eabi/include/c++/10.3.1/clocale"
 865              		.file 30 "/Library/DaisyToolchain/0.2.0/arm/arm-none-eabi/include/c++/10.3.1/bits/basic_string.h"
 866              		.file 31 "/Library/DaisyToolchain/0.2.0/arm/arm-none-eabi/include/c++/10.3.1/bits/stl_iterator.h"
 867              		.file 32 "/Library/DaisyToolchain/0.2.0/arm/arm-none-eabi/include/c++/10.3.1/bits/predefined_ops.h
 868              		.file 33 "/Library/DaisyToolchain/0.2.0/arm/arm-none-eabi/include/sys/_types.h"
 869              		.file 34 "/Library/DaisyToolchain/0.2.0/arm/arm-none-eabi/include/sys/reent.h"
 870              		.file 35 "/Library/DaisyToolchain/0.2.0/arm/arm-none-eabi/include/sys/lock.h"
 871              		.file 36 "/Library/DaisyToolchain/0.2.0/arm/arm-none-eabi/include/math.h"
 872              		.file 37 "/Library/DaisyToolchain/0.2.0/arm/arm-none-eabi/include/stdlib.h"
 873              		.file 38 "/Library/DaisyToolchain/0.2.0/arm/arm-none-eabi/include/c++/10.3.1/math.h"
 874              		.file 39 "mpu6050.h"
 875              		.file 40 "/Library/DaisyToolchain/0.2.0/arm/arm-none-eabi/include/c++/10.3.1/stdlib.h"
 876              		.file 41 "/Users/paulwang/Desktop/DaisyExamples/libDaisy/src/daisy_core.h"
 877              		.file 42 "/Users/paulwang/Desktop/DaisyExamples/libDaisy/src/per/tim.h"
 878              		.file 43 "/Users/paulwang/Desktop/DaisyExamples/libDaisy/src/hid/logger_impl.h"
 879              		.file 44 "/Users/paulwang/Desktop/DaisyExamples/libDaisy/src/util/wav_format.h"
 880              		.file 45 "/Users/paulwang/Desktop/DaisyExamples/libDaisy/src/dev/max11300.h"
 881              		.file 46 "/Users/paulwang/Desktop/DaisyExamples/libDaisy/src/hid/logger.h"
 882              		.file 47 "/Users/paulwang/Desktop/DaisyExamples/libDaisy/src/per/gpio.h"
 883              		.file 48 "/Users/paulwang/Desktop/DaisyExamples/libDaisy/src/dev/sdram.h"
 884              		.file 49 "/Library/DaisyToolchain/0.2.0/arm/lib/gcc/arm-none-eabi/10.3.1/include/stdarg.h"
ARM GAS  /var/folders/6w/sx7v0gy94nj4l80r62zsklwh0000gn/T//cc5ARLDT.s 			page 37


 885              		.file 50 "/Library/DaisyToolchain/0.2.0/arm/arm-none-eabi/include/stdio.h"
 886              		.file 51 "/Library/DaisyToolchain/0.2.0/arm/arm-none-eabi/include/string.h"
 887              		.file 52 "/Users/paulwang/Desktop/DaisyExamples/DaisySP/Source/Control/adenv.h"
 888              		.file 53 "/Users/paulwang/Desktop/DaisyExamples/DaisySP/Source/Utility/dsp.h"
 889              		.file 54 "/Library/DaisyToolchain/0.2.0/arm/arm-none-eabi/include/wchar.h"
 890              		.file 55 "/Library/DaisyToolchain/0.2.0/arm/arm-none-eabi/include/locale.h"
 891              		.file 56 "<built-in>"
 892              		.file 57 "/Users/paulwang/Desktop/DaisyExamples/libDaisy/src/dev/sr_595.h"
ARM GAS  /var/folders/6w/sx7v0gy94nj4l80r62zsklwh0000gn/T//cc5ARLDT.s 			page 38

