ARM GAS  /tmp/ccJku0Fb.s 			page 1


   1              		.cpu cortex-m7
   2              		.eabi_attribute 28, 1
   3              		.eabi_attribute 20, 1
   4              		.eabi_attribute 21, 1
   5              		.eabi_attribute 23, 3
   6              		.eabi_attribute 24, 1
   7              		.eabi_attribute 25, 1
   8              		.eabi_attribute 26, 1
   9              		.eabi_attribute 30, 2
  10              		.eabi_attribute 34, 1
  11              		.eabi_attribute 18, 4
  12              		.file	"I2C.cpp"
  13              		.text
  14              	.Ltext0:
  15              		.cfi_sections	.debug_frame
  16              		.section	.text._ZN5daisy9DaisySeedD2Ev,"axG",%progbits,_ZN5daisy9DaisySeedD5Ev,comdat
  17              		.align	1
  18              		.p2align 2,,3
  19              		.weak	_ZN5daisy9DaisySeedD2Ev
  20              		.arch armv7e-m
  21              		.syntax unified
  22              		.thumb
  23              		.thumb_func
  24              		.fpu fpv5-d16
  26              	_ZN5daisy9DaisySeedD2Ev:
  27              	.LVL0:
  28              	.LFB2555:
  29              		.file 1 "/home/nahomts/Desktop/DaisyExamples/libDaisy/src/daisy_seed.h"
   1:/home/nahomts/Desktop/DaisyExamples/libDaisy/src/daisy_seed.h **** #pragma once
   2:/home/nahomts/Desktop/DaisyExamples/libDaisy/src/daisy_seed.h **** #ifndef DSY_SEED_H
   3:/home/nahomts/Desktop/DaisyExamples/libDaisy/src/daisy_seed.h **** #define DSY_SEED_H
   4:/home/nahomts/Desktop/DaisyExamples/libDaisy/src/daisy_seed.h **** 
   5:/home/nahomts/Desktop/DaisyExamples/libDaisy/src/daisy_seed.h **** #include "daisy.h"
   6:/home/nahomts/Desktop/DaisyExamples/libDaisy/src/daisy_seed.h **** 
   7:/home/nahomts/Desktop/DaisyExamples/libDaisy/src/daisy_seed.h **** //Uncomment this out if you're still using the rev2 hardware
   8:/home/nahomts/Desktop/DaisyExamples/libDaisy/src/daisy_seed.h **** //#define SEED_REV2
   9:/home/nahomts/Desktop/DaisyExamples/libDaisy/src/daisy_seed.h **** 
  10:/home/nahomts/Desktop/DaisyExamples/libDaisy/src/daisy_seed.h **** namespace daisy
  11:/home/nahomts/Desktop/DaisyExamples/libDaisy/src/daisy_seed.h **** {
  12:/home/nahomts/Desktop/DaisyExamples/libDaisy/src/daisy_seed.h **** /**
  13:/home/nahomts/Desktop/DaisyExamples/libDaisy/src/daisy_seed.h ****    @brief This is the higher-level interface for the Daisy board. \n 
  14:/home/nahomts/Desktop/DaisyExamples/libDaisy/src/daisy_seed.h ****     All basic peripheral configuration/initialization is setup here. \n
  15:/home/nahomts/Desktop/DaisyExamples/libDaisy/src/daisy_seed.h **** 
  16:/home/nahomts/Desktop/DaisyExamples/libDaisy/src/daisy_seed.h ****    @ingroup boards
  17:/home/nahomts/Desktop/DaisyExamples/libDaisy/src/daisy_seed.h **** */
  18:/home/nahomts/Desktop/DaisyExamples/libDaisy/src/daisy_seed.h **** class DaisySeed
  19:/home/nahomts/Desktop/DaisyExamples/libDaisy/src/daisy_seed.h **** {
  20:/home/nahomts/Desktop/DaisyExamples/libDaisy/src/daisy_seed.h ****   public:
  21:/home/nahomts/Desktop/DaisyExamples/libDaisy/src/daisy_seed.h ****     DaisySeed() {}
  22:/home/nahomts/Desktop/DaisyExamples/libDaisy/src/daisy_seed.h ****     ~DaisySeed() {}
  30              		.loc 1 22 5 view -0
  31              		.cfi_startproc
  32              		@ args = 0, pretend = 0, frame = 0
  33              		@ frame_needed = 0, uses_anonymous_args = 0
  34              		@ link register save eliminated.
  35              	.LBB105:
  36              	.LBI105:
ARM GAS  /tmp/ccJku0Fb.s 			page 2


  37              		.file 2 "/home/nahomts/Desktop/DaisyExamples/libDaisy/src/sys/system.h"
   1:/home/nahomts/Desktop/DaisyExamples/libDaisy/src/sys/system.h **** #ifndef DSY_SYSTEM_H
   2:/home/nahomts/Desktop/DaisyExamples/libDaisy/src/sys/system.h **** #define DSY_SYSTEM_H
   3:/home/nahomts/Desktop/DaisyExamples/libDaisy/src/sys/system.h **** 
   4:/home/nahomts/Desktop/DaisyExamples/libDaisy/src/sys/system.h **** #ifndef UNIT_TEST // for unit tests, a dummy implementation is provided below
   5:/home/nahomts/Desktop/DaisyExamples/libDaisy/src/sys/system.h **** 
   6:/home/nahomts/Desktop/DaisyExamples/libDaisy/src/sys/system.h **** #include <cstdint>
   7:/home/nahomts/Desktop/DaisyExamples/libDaisy/src/sys/system.h **** #include "per/tim.h"
   8:/home/nahomts/Desktop/DaisyExamples/libDaisy/src/sys/system.h **** 
   9:/home/nahomts/Desktop/DaisyExamples/libDaisy/src/sys/system.h **** namespace daisy
  10:/home/nahomts/Desktop/DaisyExamples/libDaisy/src/sys/system.h **** {
  11:/home/nahomts/Desktop/DaisyExamples/libDaisy/src/sys/system.h **** /** A handle for interacting with the Core System.
  12:/home/nahomts/Desktop/DaisyExamples/libDaisy/src/sys/system.h ****  ** This includes the Clock tree, MPU, global DMA initialization,
  13:/home/nahomts/Desktop/DaisyExamples/libDaisy/src/sys/system.h ****  ** cache handling, and any other necessary global initiailzation
  14:/home/nahomts/Desktop/DaisyExamples/libDaisy/src/sys/system.h ****  **
  15:/home/nahomts/Desktop/DaisyExamples/libDaisy/src/sys/system.h ****  ** @author shensley
  16:/home/nahomts/Desktop/DaisyExamples/libDaisy/src/sys/system.h ****  ** @ingroup system
  17:/home/nahomts/Desktop/DaisyExamples/libDaisy/src/sys/system.h ****  */
  18:/home/nahomts/Desktop/DaisyExamples/libDaisy/src/sys/system.h **** class System
  19:/home/nahomts/Desktop/DaisyExamples/libDaisy/src/sys/system.h **** {
  20:/home/nahomts/Desktop/DaisyExamples/libDaisy/src/sys/system.h ****   public:
  21:/home/nahomts/Desktop/DaisyExamples/libDaisy/src/sys/system.h ****     /** Contains settings for initializing the System */
  22:/home/nahomts/Desktop/DaisyExamples/libDaisy/src/sys/system.h ****     struct Config
  23:/home/nahomts/Desktop/DaisyExamples/libDaisy/src/sys/system.h ****     {
  24:/home/nahomts/Desktop/DaisyExamples/libDaisy/src/sys/system.h ****         /** Specifies the system clock frequency that feeds APB/AHB clocks, etc. */
  25:/home/nahomts/Desktop/DaisyExamples/libDaisy/src/sys/system.h ****         enum class SysClkFreq
  26:/home/nahomts/Desktop/DaisyExamples/libDaisy/src/sys/system.h ****         {
  27:/home/nahomts/Desktop/DaisyExamples/libDaisy/src/sys/system.h ****             FREQ_400MHZ,
  28:/home/nahomts/Desktop/DaisyExamples/libDaisy/src/sys/system.h ****             FREQ_480MHZ,
  29:/home/nahomts/Desktop/DaisyExamples/libDaisy/src/sys/system.h ****         };
  30:/home/nahomts/Desktop/DaisyExamples/libDaisy/src/sys/system.h **** 
  31:/home/nahomts/Desktop/DaisyExamples/libDaisy/src/sys/system.h ****         /** Method to call on the struct to set to defaults
  32:/home/nahomts/Desktop/DaisyExamples/libDaisy/src/sys/system.h ****          ** CPU Freq set to 400MHz
  33:/home/nahomts/Desktop/DaisyExamples/libDaisy/src/sys/system.h ****          ** Cache Enabled
  34:/home/nahomts/Desktop/DaisyExamples/libDaisy/src/sys/system.h ****          ** */
  35:/home/nahomts/Desktop/DaisyExamples/libDaisy/src/sys/system.h ****         void Defaults()
  36:/home/nahomts/Desktop/DaisyExamples/libDaisy/src/sys/system.h ****         {
  37:/home/nahomts/Desktop/DaisyExamples/libDaisy/src/sys/system.h ****             cpu_freq    = SysClkFreq::FREQ_400MHZ;
  38:/home/nahomts/Desktop/DaisyExamples/libDaisy/src/sys/system.h ****             use_dcache  = true;
  39:/home/nahomts/Desktop/DaisyExamples/libDaisy/src/sys/system.h ****             use_icache  = true;
  40:/home/nahomts/Desktop/DaisyExamples/libDaisy/src/sys/system.h ****             skip_clocks = false;
  41:/home/nahomts/Desktop/DaisyExamples/libDaisy/src/sys/system.h ****         }
  42:/home/nahomts/Desktop/DaisyExamples/libDaisy/src/sys/system.h **** 
  43:/home/nahomts/Desktop/DaisyExamples/libDaisy/src/sys/system.h ****         /** Method to call on the struct to set to boost mode:
  44:/home/nahomts/Desktop/DaisyExamples/libDaisy/src/sys/system.h ****          ** CPU Freq set to 480MHz
  45:/home/nahomts/Desktop/DaisyExamples/libDaisy/src/sys/system.h ****          ** Cache Enabled
  46:/home/nahomts/Desktop/DaisyExamples/libDaisy/src/sys/system.h ****          ** */
  47:/home/nahomts/Desktop/DaisyExamples/libDaisy/src/sys/system.h ****         void Boost()
  48:/home/nahomts/Desktop/DaisyExamples/libDaisy/src/sys/system.h ****         {
  49:/home/nahomts/Desktop/DaisyExamples/libDaisy/src/sys/system.h ****             cpu_freq    = SysClkFreq::FREQ_480MHZ;
  50:/home/nahomts/Desktop/DaisyExamples/libDaisy/src/sys/system.h ****             use_dcache  = true;
  51:/home/nahomts/Desktop/DaisyExamples/libDaisy/src/sys/system.h ****             use_icache  = true;
  52:/home/nahomts/Desktop/DaisyExamples/libDaisy/src/sys/system.h ****             skip_clocks = false;
  53:/home/nahomts/Desktop/DaisyExamples/libDaisy/src/sys/system.h ****         }
  54:/home/nahomts/Desktop/DaisyExamples/libDaisy/src/sys/system.h **** 
  55:/home/nahomts/Desktop/DaisyExamples/libDaisy/src/sys/system.h ****         SysClkFreq cpu_freq;
  56:/home/nahomts/Desktop/DaisyExamples/libDaisy/src/sys/system.h ****         bool       use_dcache;
ARM GAS  /tmp/ccJku0Fb.s 			page 3


  57:/home/nahomts/Desktop/DaisyExamples/libDaisy/src/sys/system.h ****         bool       use_icache;
  58:/home/nahomts/Desktop/DaisyExamples/libDaisy/src/sys/system.h ****         bool       skip_clocks;
  59:/home/nahomts/Desktop/DaisyExamples/libDaisy/src/sys/system.h ****     };
  60:/home/nahomts/Desktop/DaisyExamples/libDaisy/src/sys/system.h **** 
  61:/home/nahomts/Desktop/DaisyExamples/libDaisy/src/sys/system.h ****     /** Describes the different regions of memory available to the Daisy */
  62:/home/nahomts/Desktop/DaisyExamples/libDaisy/src/sys/system.h ****     enum MemoryRegion
  63:/home/nahomts/Desktop/DaisyExamples/libDaisy/src/sys/system.h ****     {
  64:/home/nahomts/Desktop/DaisyExamples/libDaisy/src/sys/system.h ****         INTERNAL_FLASH = 0,
  65:/home/nahomts/Desktop/DaisyExamples/libDaisy/src/sys/system.h ****         ITCMRAM,
  66:/home/nahomts/Desktop/DaisyExamples/libDaisy/src/sys/system.h ****         DTCMRAM,
  67:/home/nahomts/Desktop/DaisyExamples/libDaisy/src/sys/system.h ****         SRAM_D1,
  68:/home/nahomts/Desktop/DaisyExamples/libDaisy/src/sys/system.h ****         SRAM_D2,
  69:/home/nahomts/Desktop/DaisyExamples/libDaisy/src/sys/system.h ****         SRAM_D3,
  70:/home/nahomts/Desktop/DaisyExamples/libDaisy/src/sys/system.h ****         SDRAM,
  71:/home/nahomts/Desktop/DaisyExamples/libDaisy/src/sys/system.h ****         QSPI,
  72:/home/nahomts/Desktop/DaisyExamples/libDaisy/src/sys/system.h ****         INVALID_ADDRESS,
  73:/home/nahomts/Desktop/DaisyExamples/libDaisy/src/sys/system.h ****     };
  74:/home/nahomts/Desktop/DaisyExamples/libDaisy/src/sys/system.h **** 
  75:/home/nahomts/Desktop/DaisyExamples/libDaisy/src/sys/system.h ****     /** Bootloader struct for controlling bootloading parameters */
  76:/home/nahomts/Desktop/DaisyExamples/libDaisy/src/sys/system.h ****     struct BootInfo
  77:/home/nahomts/Desktop/DaisyExamples/libDaisy/src/sys/system.h ****     {
  78:/home/nahomts/Desktop/DaisyExamples/libDaisy/src/sys/system.h ****         enum class Type : uint32_t
  79:/home/nahomts/Desktop/DaisyExamples/libDaisy/src/sys/system.h ****         {
  80:/home/nahomts/Desktop/DaisyExamples/libDaisy/src/sys/system.h ****             INVALID      = 0x00000000,
  81:/home/nahomts/Desktop/DaisyExamples/libDaisy/src/sys/system.h ****             JUMP         = 0xDEADBEEF,
  82:/home/nahomts/Desktop/DaisyExamples/libDaisy/src/sys/system.h ****             SKIP_TIMEOUT = 0x5AFEB007,
  83:/home/nahomts/Desktop/DaisyExamples/libDaisy/src/sys/system.h ****             INF_TIMEOUT  = 0xB0074EFA,
  84:/home/nahomts/Desktop/DaisyExamples/libDaisy/src/sys/system.h ****         } status;
  85:/home/nahomts/Desktop/DaisyExamples/libDaisy/src/sys/system.h ****         uint32_t data;
  86:/home/nahomts/Desktop/DaisyExamples/libDaisy/src/sys/system.h ****         enum class Version : uint32_t
  87:/home/nahomts/Desktop/DaisyExamples/libDaisy/src/sys/system.h ****         {
  88:/home/nahomts/Desktop/DaisyExamples/libDaisy/src/sys/system.h ****             LT_v6_0 = 0, // Less than v6.0
  89:/home/nahomts/Desktop/DaisyExamples/libDaisy/src/sys/system.h ****             NONE,        // No bootloader present
  90:/home/nahomts/Desktop/DaisyExamples/libDaisy/src/sys/system.h ****             v6_0,        // v6.0
  91:/home/nahomts/Desktop/DaisyExamples/libDaisy/src/sys/system.h ****             v6_1,        // v6.1 or greater
  92:/home/nahomts/Desktop/DaisyExamples/libDaisy/src/sys/system.h ****             LAST
  93:/home/nahomts/Desktop/DaisyExamples/libDaisy/src/sys/system.h ****         } version;
  94:/home/nahomts/Desktop/DaisyExamples/libDaisy/src/sys/system.h ****     };
  95:/home/nahomts/Desktop/DaisyExamples/libDaisy/src/sys/system.h **** 
  96:/home/nahomts/Desktop/DaisyExamples/libDaisy/src/sys/system.h ****     System() {}
  97:/home/nahomts/Desktop/DaisyExamples/libDaisy/src/sys/system.h ****     ~System() {}
  38              		.loc 2 97 5 view .LVU1
  39              		.loc 2 97 5 is_stmt 0 view .LVU2
  40              	.LBE105:
  41              	.LBB106:
  42              	.LBI106:
  43              		.file 3 "/home/nahomts/Desktop/DaisyExamples/libDaisy/src/hid/usb.h"
   1:/home/nahomts/Desktop/DaisyExamples/libDaisy/src/hid/usb.h **** #pragma once
   2:/home/nahomts/Desktop/DaisyExamples/libDaisy/src/hid/usb.h **** #ifndef DSY_HID_USB_H
   3:/home/nahomts/Desktop/DaisyExamples/libDaisy/src/hid/usb.h **** #define DSY_HID_USB_H
   4:/home/nahomts/Desktop/DaisyExamples/libDaisy/src/hid/usb.h **** #include <stdint.h>
   5:/home/nahomts/Desktop/DaisyExamples/libDaisy/src/hid/usb.h **** #include <stdlib.h>
   6:/home/nahomts/Desktop/DaisyExamples/libDaisy/src/hid/usb.h **** 
   7:/home/nahomts/Desktop/DaisyExamples/libDaisy/src/hid/usb.h **** namespace daisy
   8:/home/nahomts/Desktop/DaisyExamples/libDaisy/src/hid/usb.h **** /** @addtogroup human_interface
   9:/home/nahomts/Desktop/DaisyExamples/libDaisy/src/hid/usb.h ****     @{
  10:/home/nahomts/Desktop/DaisyExamples/libDaisy/src/hid/usb.h **** */
ARM GAS  /tmp/ccJku0Fb.s 			page 4


  11:/home/nahomts/Desktop/DaisyExamples/libDaisy/src/hid/usb.h **** 
  12:/home/nahomts/Desktop/DaisyExamples/libDaisy/src/hid/usb.h **** {
  13:/home/nahomts/Desktop/DaisyExamples/libDaisy/src/hid/usb.h **** /** 
  14:/home/nahomts/Desktop/DaisyExamples/libDaisy/src/hid/usb.h ****     @brief Interface for initializing and using the USB Peripherals on the daisy
  15:/home/nahomts/Desktop/DaisyExamples/libDaisy/src/hid/usb.h ****     @author Stephen Hensley
  16:/home/nahomts/Desktop/DaisyExamples/libDaisy/src/hid/usb.h ****     @date December 2019
  17:/home/nahomts/Desktop/DaisyExamples/libDaisy/src/hid/usb.h **** */
  18:/home/nahomts/Desktop/DaisyExamples/libDaisy/src/hid/usb.h **** class UsbHandle
  19:/home/nahomts/Desktop/DaisyExamples/libDaisy/src/hid/usb.h **** {
  20:/home/nahomts/Desktop/DaisyExamples/libDaisy/src/hid/usb.h ****   public:
  21:/home/nahomts/Desktop/DaisyExamples/libDaisy/src/hid/usb.h ****     /** Return values for USBHandle Functions */
  22:/home/nahomts/Desktop/DaisyExamples/libDaisy/src/hid/usb.h ****     enum class Result
  23:/home/nahomts/Desktop/DaisyExamples/libDaisy/src/hid/usb.h ****     {
  24:/home/nahomts/Desktop/DaisyExamples/libDaisy/src/hid/usb.h ****         OK,
  25:/home/nahomts/Desktop/DaisyExamples/libDaisy/src/hid/usb.h ****         ERR,
  26:/home/nahomts/Desktop/DaisyExamples/libDaisy/src/hid/usb.h ****     };
  27:/home/nahomts/Desktop/DaisyExamples/libDaisy/src/hid/usb.h **** 
  28:/home/nahomts/Desktop/DaisyExamples/libDaisy/src/hid/usb.h ****     /** Specified which of the two USB Peripherals to initialize. */
  29:/home/nahomts/Desktop/DaisyExamples/libDaisy/src/hid/usb.h ****     enum UsbPeriph
  30:/home/nahomts/Desktop/DaisyExamples/libDaisy/src/hid/usb.h ****     {
  31:/home/nahomts/Desktop/DaisyExamples/libDaisy/src/hid/usb.h ****         FS_INTERNAL, /**< Internal pin */
  32:/home/nahomts/Desktop/DaisyExamples/libDaisy/src/hid/usb.h ****         FS_EXTERNAL, /**< FS External D+ pin is Pin 38 (GPIO32). FS External D- pin is Pin 37 (GPIO
  33:/home/nahomts/Desktop/DaisyExamples/libDaisy/src/hid/usb.h ****         FS_BOTH,     /**< Both */
  34:/home/nahomts/Desktop/DaisyExamples/libDaisy/src/hid/usb.h ****     };
  35:/home/nahomts/Desktop/DaisyExamples/libDaisy/src/hid/usb.h **** 
  36:/home/nahomts/Desktop/DaisyExamples/libDaisy/src/hid/usb.h **** 
  37:/home/nahomts/Desktop/DaisyExamples/libDaisy/src/hid/usb.h ****     /** Function called upon reception of a buffer */
  38:/home/nahomts/Desktop/DaisyExamples/libDaisy/src/hid/usb.h ****     typedef void (*ReceiveCallback)(uint8_t* buff, uint32_t* len);
  39:/home/nahomts/Desktop/DaisyExamples/libDaisy/src/hid/usb.h **** 
  40:/home/nahomts/Desktop/DaisyExamples/libDaisy/src/hid/usb.h ****     UsbHandle() {}
  41:/home/nahomts/Desktop/DaisyExamples/libDaisy/src/hid/usb.h **** 
  42:/home/nahomts/Desktop/DaisyExamples/libDaisy/src/hid/usb.h ****     ~UsbHandle() {}
  44              		.loc 3 42 5 is_stmt 1 view .LVU3
  45              		.loc 3 42 5 is_stmt 0 view .LVU4
  46              	.LBE106:
  47              	.LBB107:
  48              	.LBI107:
  49              		.file 4 "/home/nahomts/Desktop/DaisyExamples/libDaisy/src/per/adc.h"
   1:/home/nahomts/Desktop/DaisyExamples/libDaisy/src/per/adc.h **** #pragma once
   2:/home/nahomts/Desktop/DaisyExamples/libDaisy/src/per/adc.h **** #ifndef DSY_ADC_H
   3:/home/nahomts/Desktop/DaisyExamples/libDaisy/src/per/adc.h **** #define DSY_ADC_H /**< Macro */
   4:/home/nahomts/Desktop/DaisyExamples/libDaisy/src/per/adc.h **** #include <stdint.h>
   5:/home/nahomts/Desktop/DaisyExamples/libDaisy/src/per/adc.h **** #include <stdlib.h>
   6:/home/nahomts/Desktop/DaisyExamples/libDaisy/src/per/adc.h **** #include "daisy_core.h"
   7:/home/nahomts/Desktop/DaisyExamples/libDaisy/src/per/adc.h **** #include "per/gpio.h"
   8:/home/nahomts/Desktop/DaisyExamples/libDaisy/src/per/adc.h **** 
   9:/home/nahomts/Desktop/DaisyExamples/libDaisy/src/per/adc.h **** #define DSY_ADC_MAX_CHANNELS 16 /**< Maximum number of ADC channels */
  10:/home/nahomts/Desktop/DaisyExamples/libDaisy/src/per/adc.h **** 
  11:/home/nahomts/Desktop/DaisyExamples/libDaisy/src/per/adc.h **** namespace daisy
  12:/home/nahomts/Desktop/DaisyExamples/libDaisy/src/per/adc.h **** {
  13:/home/nahomts/Desktop/DaisyExamples/libDaisy/src/per/adc.h **** /** @addtogroup per_analog
  14:/home/nahomts/Desktop/DaisyExamples/libDaisy/src/per/adc.h ****     @{
  15:/home/nahomts/Desktop/DaisyExamples/libDaisy/src/per/adc.h **** */
  16:/home/nahomts/Desktop/DaisyExamples/libDaisy/src/per/adc.h **** 
  17:/home/nahomts/Desktop/DaisyExamples/libDaisy/src/per/adc.h **** /* While there may not be many configuration options here,
  18:/home/nahomts/Desktop/DaisyExamples/libDaisy/src/per/adc.h **** using a struct like this allows us to add more configuration
  19:/home/nahomts/Desktop/DaisyExamples/libDaisy/src/per/adc.h **** later without breaking existing functionality.
ARM GAS  /tmp/ccJku0Fb.s 			page 5


  20:/home/nahomts/Desktop/DaisyExamples/libDaisy/src/per/adc.h **** */
  21:/home/nahomts/Desktop/DaisyExamples/libDaisy/src/per/adc.h **** 
  22:/home/nahomts/Desktop/DaisyExamples/libDaisy/src/per/adc.h **** /** @brief   Configuration Structure for an ADC Channel 
  23:/home/nahomts/Desktop/DaisyExamples/libDaisy/src/per/adc.h ****  *  @details This can be used to configure a a single input, 
  24:/home/nahomts/Desktop/DaisyExamples/libDaisy/src/per/adc.h ****  *           or a multiplexed input, allowing up to 8 inputs on 
  25:/home/nahomts/Desktop/DaisyExamples/libDaisy/src/per/adc.h ****  *           one channel.
  26:/home/nahomts/Desktop/DaisyExamples/libDaisy/src/per/adc.h ****  *  @note    Sharing data lines to multiple muxes _is_ possible, but
  27:/home/nahomts/Desktop/DaisyExamples/libDaisy/src/per/adc.h ****  *           each channel sharing data lines must be set to the maximum
  28:/home/nahomts/Desktop/DaisyExamples/libDaisy/src/per/adc.h ****  *           number of channels, even if some multiplexers have fewer
  29:/home/nahomts/Desktop/DaisyExamples/libDaisy/src/per/adc.h ****  *           inputs connected.
  30:/home/nahomts/Desktop/DaisyExamples/libDaisy/src/per/adc.h **** */
  31:/home/nahomts/Desktop/DaisyExamples/libDaisy/src/per/adc.h **** struct AdcChannelConfig
  32:/home/nahomts/Desktop/DaisyExamples/libDaisy/src/per/adc.h **** {
  33:/home/nahomts/Desktop/DaisyExamples/libDaisy/src/per/adc.h ****     /** Which pin to use for multiplexing */
  34:/home/nahomts/Desktop/DaisyExamples/libDaisy/src/per/adc.h ****     enum MuxPin
  35:/home/nahomts/Desktop/DaisyExamples/libDaisy/src/per/adc.h ****     {
  36:/home/nahomts/Desktop/DaisyExamples/libDaisy/src/per/adc.h ****         MUX_SEL_0,    /**< & */
  37:/home/nahomts/Desktop/DaisyExamples/libDaisy/src/per/adc.h ****         MUX_SEL_1,    /**< & */
  38:/home/nahomts/Desktop/DaisyExamples/libDaisy/src/per/adc.h ****         MUX_SEL_2,    /**< & */
  39:/home/nahomts/Desktop/DaisyExamples/libDaisy/src/per/adc.h ****         MUX_SEL_LAST, /**< & */
  40:/home/nahomts/Desktop/DaisyExamples/libDaisy/src/per/adc.h ****     };
  41:/home/nahomts/Desktop/DaisyExamples/libDaisy/src/per/adc.h **** 
  42:/home/nahomts/Desktop/DaisyExamples/libDaisy/src/per/adc.h ****     /** \brief per channel conversion speed added to fixed time based on bitdepth, etc. */
  43:/home/nahomts/Desktop/DaisyExamples/libDaisy/src/per/adc.h ****     enum ConversionSpeed
  44:/home/nahomts/Desktop/DaisyExamples/libDaisy/src/per/adc.h ****     {
  45:/home/nahomts/Desktop/DaisyExamples/libDaisy/src/per/adc.h ****         SPEED_1CYCLES_5,
  46:/home/nahomts/Desktop/DaisyExamples/libDaisy/src/per/adc.h ****         SPEED_2CYCLES_5,
  47:/home/nahomts/Desktop/DaisyExamples/libDaisy/src/per/adc.h ****         SPEED_8CYCLES_5,
  48:/home/nahomts/Desktop/DaisyExamples/libDaisy/src/per/adc.h ****         SPEED_16CYCLES_5,
  49:/home/nahomts/Desktop/DaisyExamples/libDaisy/src/per/adc.h ****         SPEED_32CYCLES_5,
  50:/home/nahomts/Desktop/DaisyExamples/libDaisy/src/per/adc.h ****         SPEED_64CYCLES_5,
  51:/home/nahomts/Desktop/DaisyExamples/libDaisy/src/per/adc.h ****         SPEED_387CYCLES_5,
  52:/home/nahomts/Desktop/DaisyExamples/libDaisy/src/per/adc.h ****         SPEED_810CYCLES_5,
  53:/home/nahomts/Desktop/DaisyExamples/libDaisy/src/per/adc.h ****     };
  54:/home/nahomts/Desktop/DaisyExamples/libDaisy/src/per/adc.h **** 
  55:/home/nahomts/Desktop/DaisyExamples/libDaisy/src/per/adc.h ****     /** Initializes a single ADC pin as an ADC. 
  56:/home/nahomts/Desktop/DaisyExamples/libDaisy/src/per/adc.h ****     \param pin Pin to init.
  57:/home/nahomts/Desktop/DaisyExamples/libDaisy/src/per/adc.h ****     \param speed conversion speed for this pin defaults to 8.5 cycles
  58:/home/nahomts/Desktop/DaisyExamples/libDaisy/src/per/adc.h ****      */
  59:/home/nahomts/Desktop/DaisyExamples/libDaisy/src/per/adc.h ****     void InitSingle(dsy_gpio_pin pin, ConversionSpeed speed = SPEED_8CYCLES_5);
  60:/home/nahomts/Desktop/DaisyExamples/libDaisy/src/per/adc.h **** 
  61:/home/nahomts/Desktop/DaisyExamples/libDaisy/src/per/adc.h ****     /** 
  62:/home/nahomts/Desktop/DaisyExamples/libDaisy/src/per/adc.h ****     Initializes a single ADC pin as a Multiplexed ADC.
  63:/home/nahomts/Desktop/DaisyExamples/libDaisy/src/per/adc.h ****     Requires a CD405X Multiplexer connected to the pin.
  64:/home/nahomts/Desktop/DaisyExamples/libDaisy/src/per/adc.h ****     You only need to supply the mux pins that are required,
  65:/home/nahomts/Desktop/DaisyExamples/libDaisy/src/per/adc.h ****     e.g. a 4052 mux would only require mux_0 and mux_1.
  66:/home/nahomts/Desktop/DaisyExamples/libDaisy/src/per/adc.h ****     Internal Callbacks handle the pin addressing.
  67:/home/nahomts/Desktop/DaisyExamples/libDaisy/src/per/adc.h ****     \param adc_pin &
  68:/home/nahomts/Desktop/DaisyExamples/libDaisy/src/per/adc.h ****     \param mux_channels must be 1-8
  69:/home/nahomts/Desktop/DaisyExamples/libDaisy/src/per/adc.h ****     \param mux_0 First mux pin
  70:/home/nahomts/Desktop/DaisyExamples/libDaisy/src/per/adc.h ****     \param mux_1 Second mux pin
  71:/home/nahomts/Desktop/DaisyExamples/libDaisy/src/per/adc.h ****     \param mux_2 Third mux pin
  72:/home/nahomts/Desktop/DaisyExamples/libDaisy/src/per/adc.h ****     \param speed conversion speed for this pin defaults to 8.5 cycles
  73:/home/nahomts/Desktop/DaisyExamples/libDaisy/src/per/adc.h ****     */
  74:/home/nahomts/Desktop/DaisyExamples/libDaisy/src/per/adc.h ****     void InitMux(dsy_gpio_pin    adc_pin,
  75:/home/nahomts/Desktop/DaisyExamples/libDaisy/src/per/adc.h ****                  size_t          mux_channels,
  76:/home/nahomts/Desktop/DaisyExamples/libDaisy/src/per/adc.h ****                  dsy_gpio_pin    mux_0,
ARM GAS  /tmp/ccJku0Fb.s 			page 6


  77:/home/nahomts/Desktop/DaisyExamples/libDaisy/src/per/adc.h ****                  dsy_gpio_pin    mux_1 = {DSY_GPIOX, 0},
  78:/home/nahomts/Desktop/DaisyExamples/libDaisy/src/per/adc.h ****                  dsy_gpio_pin    mux_2 = {DSY_GPIOX, 0},
  79:/home/nahomts/Desktop/DaisyExamples/libDaisy/src/per/adc.h ****                  ConversionSpeed speed = SPEED_8CYCLES_5);
  80:/home/nahomts/Desktop/DaisyExamples/libDaisy/src/per/adc.h **** 
  81:/home/nahomts/Desktop/DaisyExamples/libDaisy/src/per/adc.h ****     dsy_gpio        pin_;                   /**< & */
  82:/home/nahomts/Desktop/DaisyExamples/libDaisy/src/per/adc.h ****     dsy_gpio        mux_pin_[MUX_SEL_LAST]; /**< & */
  83:/home/nahomts/Desktop/DaisyExamples/libDaisy/src/per/adc.h ****     uint8_t         mux_channels_;          /**< & */
  84:/home/nahomts/Desktop/DaisyExamples/libDaisy/src/per/adc.h ****     ConversionSpeed speed_;
  85:/home/nahomts/Desktop/DaisyExamples/libDaisy/src/per/adc.h **** };
  86:/home/nahomts/Desktop/DaisyExamples/libDaisy/src/per/adc.h **** 
  87:/home/nahomts/Desktop/DaisyExamples/libDaisy/src/per/adc.h **** /**
  88:/home/nahomts/Desktop/DaisyExamples/libDaisy/src/per/adc.h ****    @brief Handler for analog to digital conversion
  89:/home/nahomts/Desktop/DaisyExamples/libDaisy/src/per/adc.h **** */
  90:/home/nahomts/Desktop/DaisyExamples/libDaisy/src/per/adc.h **** class AdcHandle
  91:/home/nahomts/Desktop/DaisyExamples/libDaisy/src/per/adc.h **** {
  92:/home/nahomts/Desktop/DaisyExamples/libDaisy/src/per/adc.h ****   public:
  93:/home/nahomts/Desktop/DaisyExamples/libDaisy/src/per/adc.h ****     /** Supported oversampling amounts */
  94:/home/nahomts/Desktop/DaisyExamples/libDaisy/src/per/adc.h ****     enum OverSampling
  95:/home/nahomts/Desktop/DaisyExamples/libDaisy/src/per/adc.h ****     {
  96:/home/nahomts/Desktop/DaisyExamples/libDaisy/src/per/adc.h ****         OVS_NONE, /**< & */
  97:/home/nahomts/Desktop/DaisyExamples/libDaisy/src/per/adc.h ****         OVS_4,    /**< & */
  98:/home/nahomts/Desktop/DaisyExamples/libDaisy/src/per/adc.h ****         OVS_8,    /**< & */
  99:/home/nahomts/Desktop/DaisyExamples/libDaisy/src/per/adc.h ****         OVS_16,   /**< & */
 100:/home/nahomts/Desktop/DaisyExamples/libDaisy/src/per/adc.h ****         OVS_32,   /**< & */
 101:/home/nahomts/Desktop/DaisyExamples/libDaisy/src/per/adc.h ****         OVS_64,   /**< & */
 102:/home/nahomts/Desktop/DaisyExamples/libDaisy/src/per/adc.h ****         OVS_128,  /**< & */
 103:/home/nahomts/Desktop/DaisyExamples/libDaisy/src/per/adc.h ****         OVS_256,  /**< & */
 104:/home/nahomts/Desktop/DaisyExamples/libDaisy/src/per/adc.h ****         OVS_512,  /**< & */
 105:/home/nahomts/Desktop/DaisyExamples/libDaisy/src/per/adc.h ****         OVS_1024, /**< & */
 106:/home/nahomts/Desktop/DaisyExamples/libDaisy/src/per/adc.h ****         OVS_LAST, /**< & */
 107:/home/nahomts/Desktop/DaisyExamples/libDaisy/src/per/adc.h ****     };
 108:/home/nahomts/Desktop/DaisyExamples/libDaisy/src/per/adc.h **** 
 109:/home/nahomts/Desktop/DaisyExamples/libDaisy/src/per/adc.h ****     AdcHandle() {}
 110:/home/nahomts/Desktop/DaisyExamples/libDaisy/src/per/adc.h ****     ~AdcHandle() {}
  50              		.loc 4 110 5 is_stmt 1 view .LVU5
  51              		.loc 4 110 5 is_stmt 0 view .LVU6
  52              	.LBE107:
  53              	.LBB108:
  54              	.LBI108:
  55              		.file 5 "/home/nahomts/Desktop/DaisyExamples/libDaisy/src/hid/audio.h"
   1:/home/nahomts/Desktop/DaisyExamples/libDaisy/src/hid/audio.h **** #ifndef DSY_AUDIO_H
   2:/home/nahomts/Desktop/DaisyExamples/libDaisy/src/hid/audio.h **** #define DSY_AUDIO_H /**< & */
   3:/home/nahomts/Desktop/DaisyExamples/libDaisy/src/hid/audio.h **** 
   4:/home/nahomts/Desktop/DaisyExamples/libDaisy/src/hid/audio.h **** #include "per/sai.h"
   5:/home/nahomts/Desktop/DaisyExamples/libDaisy/src/hid/audio.h **** 
   6:/home/nahomts/Desktop/DaisyExamples/libDaisy/src/hid/audio.h **** namespace daisy
   7:/home/nahomts/Desktop/DaisyExamples/libDaisy/src/hid/audio.h **** {
   8:/home/nahomts/Desktop/DaisyExamples/libDaisy/src/hid/audio.h **** /** @brief Audio Engine Handle
   9:/home/nahomts/Desktop/DaisyExamples/libDaisy/src/hid/audio.h ****  *  @ingroup audio 
  10:/home/nahomts/Desktop/DaisyExamples/libDaisy/src/hid/audio.h ****  *  @details This class allows for higher level access to an audio engine.
  11:/home/nahomts/Desktop/DaisyExamples/libDaisy/src/hid/audio.h ****  *           If you're using a SOM like the DaisySeed or DaisyPatchSM (or any 
  12:/home/nahomts/Desktop/DaisyExamples/libDaisy/src/hid/audio.h ****  *            board that includes one of those objects) then the intialization
  13:/home/nahomts/Desktop/DaisyExamples/libDaisy/src/hid/audio.h ****  *            is already taken  care of.
  14:/home/nahomts/Desktop/DaisyExamples/libDaisy/src/hid/audio.h ****  *           If you're setting up your own custom hardware, or need to make changes
  15:/home/nahomts/Desktop/DaisyExamples/libDaisy/src/hid/audio.h ****  *           you will have to take the following steps:
  16:/home/nahomts/Desktop/DaisyExamples/libDaisy/src/hid/audio.h ****  *             1. Create and Initialize an SaiHandle or two depending on your requirements
  17:/home/nahomts/Desktop/DaisyExamples/libDaisy/src/hid/audio.h ****  *             2. Initialize the Audio Handle with the desired settings and the Initialized SaiHand
ARM GAS  /tmp/ccJku0Fb.s 			page 7


  18:/home/nahomts/Desktop/DaisyExamples/libDaisy/src/hid/audio.h ****  *             3. If the connected codec requires special configuration or initialization, do so
  19:/home/nahomts/Desktop/DaisyExamples/libDaisy/src/hid/audio.h ****  *             4. Write a callback method using either the AudioCallback or the InterleavingAudioCa
  20:/home/nahomts/Desktop/DaisyExamples/libDaisy/src/hid/audio.h ****  *             5. Start the Audio using one of the StartAudio function
  21:/home/nahomts/Desktop/DaisyExamples/libDaisy/src/hid/audio.h ****  */
  22:/home/nahomts/Desktop/DaisyExamples/libDaisy/src/hid/audio.h **** class AudioHandle
  23:/home/nahomts/Desktop/DaisyExamples/libDaisy/src/hid/audio.h **** {
  24:/home/nahomts/Desktop/DaisyExamples/libDaisy/src/hid/audio.h ****   public:
  25:/home/nahomts/Desktop/DaisyExamples/libDaisy/src/hid/audio.h ****     /** Manually configurable details about the Audio Engine */
  26:/home/nahomts/Desktop/DaisyExamples/libDaisy/src/hid/audio.h ****     /** TODO: Figure out how to get samplerate in here. */
  27:/home/nahomts/Desktop/DaisyExamples/libDaisy/src/hid/audio.h ****     struct Config
  28:/home/nahomts/Desktop/DaisyExamples/libDaisy/src/hid/audio.h ****     {
  29:/home/nahomts/Desktop/DaisyExamples/libDaisy/src/hid/audio.h ****         /** number of samples to process per callback */
  30:/home/nahomts/Desktop/DaisyExamples/libDaisy/src/hid/audio.h ****         size_t blocksize;
  31:/home/nahomts/Desktop/DaisyExamples/libDaisy/src/hid/audio.h **** 
  32:/home/nahomts/Desktop/DaisyExamples/libDaisy/src/hid/audio.h ****         /**< Sample rate of audio */
  33:/home/nahomts/Desktop/DaisyExamples/libDaisy/src/hid/audio.h ****         SaiHandle::Config::SampleRate samplerate;
  34:/home/nahomts/Desktop/DaisyExamples/libDaisy/src/hid/audio.h **** 
  35:/home/nahomts/Desktop/DaisyExamples/libDaisy/src/hid/audio.h ****         /** factor for adjustment before and after callback for hardware that may have extra headro
  36:/home/nahomts/Desktop/DaisyExamples/libDaisy/src/hid/audio.h ****         float postgain;
  37:/home/nahomts/Desktop/DaisyExamples/libDaisy/src/hid/audio.h **** 
  38:/home/nahomts/Desktop/DaisyExamples/libDaisy/src/hid/audio.h ****         /** factor for additional one-sided compensation to audio path for hardware that may
  39:/home/nahomts/Desktop/DaisyExamples/libDaisy/src/hid/audio.h ****          *  have unequal input/output ranges
  40:/home/nahomts/Desktop/DaisyExamples/libDaisy/src/hid/audio.h ****          */
  41:/home/nahomts/Desktop/DaisyExamples/libDaisy/src/hid/audio.h ****         float output_compensation;
  42:/home/nahomts/Desktop/DaisyExamples/libDaisy/src/hid/audio.h **** 
  43:/home/nahomts/Desktop/DaisyExamples/libDaisy/src/hid/audio.h ****         /** Sets default values for config struct */
  44:/home/nahomts/Desktop/DaisyExamples/libDaisy/src/hid/audio.h ****         Config()
  45:/home/nahomts/Desktop/DaisyExamples/libDaisy/src/hid/audio.h ****         : blocksize(48),
  46:/home/nahomts/Desktop/DaisyExamples/libDaisy/src/hid/audio.h ****           samplerate(SaiHandle::Config::SampleRate::SAI_48KHZ),
  47:/home/nahomts/Desktop/DaisyExamples/libDaisy/src/hid/audio.h ****           postgain(1.f),
  48:/home/nahomts/Desktop/DaisyExamples/libDaisy/src/hid/audio.h ****           output_compensation(1.f)
  49:/home/nahomts/Desktop/DaisyExamples/libDaisy/src/hid/audio.h ****         {
  50:/home/nahomts/Desktop/DaisyExamples/libDaisy/src/hid/audio.h ****         }
  51:/home/nahomts/Desktop/DaisyExamples/libDaisy/src/hid/audio.h ****     };
  52:/home/nahomts/Desktop/DaisyExamples/libDaisy/src/hid/audio.h **** 
  53:/home/nahomts/Desktop/DaisyExamples/libDaisy/src/hid/audio.h ****     enum class Result
  54:/home/nahomts/Desktop/DaisyExamples/libDaisy/src/hid/audio.h ****     {
  55:/home/nahomts/Desktop/DaisyExamples/libDaisy/src/hid/audio.h ****         OK,
  56:/home/nahomts/Desktop/DaisyExamples/libDaisy/src/hid/audio.h ****         ERR,
  57:/home/nahomts/Desktop/DaisyExamples/libDaisy/src/hid/audio.h ****     };
  58:/home/nahomts/Desktop/DaisyExamples/libDaisy/src/hid/audio.h **** 
  59:/home/nahomts/Desktop/DaisyExamples/libDaisy/src/hid/audio.h ****     /** Non-Interleaving input buffer
  60:/home/nahomts/Desktop/DaisyExamples/libDaisy/src/hid/audio.h ****      * Buffer arranged by float[chn][sample] 
  61:/home/nahomts/Desktop/DaisyExamples/libDaisy/src/hid/audio.h ****      * const so that the user can't modify the input
  62:/home/nahomts/Desktop/DaisyExamples/libDaisy/src/hid/audio.h ****      */
  63:/home/nahomts/Desktop/DaisyExamples/libDaisy/src/hid/audio.h ****     typedef const float* const* InputBuffer;
  64:/home/nahomts/Desktop/DaisyExamples/libDaisy/src/hid/audio.h **** 
  65:/home/nahomts/Desktop/DaisyExamples/libDaisy/src/hid/audio.h ****     /** Non-Interleaving output buffer
  66:/home/nahomts/Desktop/DaisyExamples/libDaisy/src/hid/audio.h ****      * Arranged by float[chn][sample] 
  67:/home/nahomts/Desktop/DaisyExamples/libDaisy/src/hid/audio.h ****      */
  68:/home/nahomts/Desktop/DaisyExamples/libDaisy/src/hid/audio.h ****     typedef float** OutputBuffer;
  69:/home/nahomts/Desktop/DaisyExamples/libDaisy/src/hid/audio.h **** 
  70:/home/nahomts/Desktop/DaisyExamples/libDaisy/src/hid/audio.h ****     /** Type for a Non-Interleaving audio callback 
  71:/home/nahomts/Desktop/DaisyExamples/libDaisy/src/hid/audio.h ****      * Non-Interleaving audio callbacks in daisy will be of this type
  72:/home/nahomts/Desktop/DaisyExamples/libDaisy/src/hid/audio.h ****      */
  73:/home/nahomts/Desktop/DaisyExamples/libDaisy/src/hid/audio.h ****     typedef void (*AudioCallback)(InputBuffer  in,
  74:/home/nahomts/Desktop/DaisyExamples/libDaisy/src/hid/audio.h ****                                   OutputBuffer out,
ARM GAS  /tmp/ccJku0Fb.s 			page 8


  75:/home/nahomts/Desktop/DaisyExamples/libDaisy/src/hid/audio.h ****                                   size_t       size);
  76:/home/nahomts/Desktop/DaisyExamples/libDaisy/src/hid/audio.h **** 
  77:/home/nahomts/Desktop/DaisyExamples/libDaisy/src/hid/audio.h ****     /** Interleaving Input buffer
  78:/home/nahomts/Desktop/DaisyExamples/libDaisy/src/hid/audio.h ****      ** audio is prepared as { L0, R0, L1, R1, . . . LN, RN }]
  79:/home/nahomts/Desktop/DaisyExamples/libDaisy/src/hid/audio.h ****      ** this is const, as the user shouldn't modify it
  80:/home/nahomts/Desktop/DaisyExamples/libDaisy/src/hid/audio.h ****     */
  81:/home/nahomts/Desktop/DaisyExamples/libDaisy/src/hid/audio.h ****     typedef const float* InterleavingInputBuffer;
  82:/home/nahomts/Desktop/DaisyExamples/libDaisy/src/hid/audio.h **** 
  83:/home/nahomts/Desktop/DaisyExamples/libDaisy/src/hid/audio.h ****     /** Interleaving Output buffer 
  84:/home/nahomts/Desktop/DaisyExamples/libDaisy/src/hid/audio.h ****      ** audio is prepared as { L0, R0, L1, R1, . . . LN, RN }
  85:/home/nahomts/Desktop/DaisyExamples/libDaisy/src/hid/audio.h ****     */
  86:/home/nahomts/Desktop/DaisyExamples/libDaisy/src/hid/audio.h ****     typedef float* InterleavingOutputBuffer;
  87:/home/nahomts/Desktop/DaisyExamples/libDaisy/src/hid/audio.h **** 
  88:/home/nahomts/Desktop/DaisyExamples/libDaisy/src/hid/audio.h ****     /** Interleaving Audio Callback 
  89:/home/nahomts/Desktop/DaisyExamples/libDaisy/src/hid/audio.h ****      * Interleaving audio callbacks in daisy must be of this type
  90:/home/nahomts/Desktop/DaisyExamples/libDaisy/src/hid/audio.h ****      */
  91:/home/nahomts/Desktop/DaisyExamples/libDaisy/src/hid/audio.h ****     typedef void (*InterleavingAudioCallback)(InterleavingInputBuffer  in,
  92:/home/nahomts/Desktop/DaisyExamples/libDaisy/src/hid/audio.h ****                                               InterleavingOutputBuffer out,
  93:/home/nahomts/Desktop/DaisyExamples/libDaisy/src/hid/audio.h ****                                               size_t                   size);
  94:/home/nahomts/Desktop/DaisyExamples/libDaisy/src/hid/audio.h **** 
  95:/home/nahomts/Desktop/DaisyExamples/libDaisy/src/hid/audio.h ****     AudioHandle() : pimpl_(nullptr) {}
  96:/home/nahomts/Desktop/DaisyExamples/libDaisy/src/hid/audio.h ****     ~AudioHandle() {}
  56              		.loc 5 96 5 is_stmt 1 view .LVU7
  57              		.loc 5 96 5 is_stmt 0 view .LVU8
  58              	.LBE108:
  59              		.loc 1 22 19 view .LVU9
  60 0000 7047     		bx	lr
  61              		.cfi_endproc
  62              	.LFE2555:
  64              		.weak	_ZN5daisy9DaisySeedD1Ev
  65              		.thumb_set _ZN5daisy9DaisySeedD1Ev,_ZN5daisy9DaisySeedD2Ev
  66 0002 00BF     		.section	.text._ZN7daisysp10OscillatorD2Ev,"axG",%progbits,_ZN7daisysp10OscillatorD5Ev,comdat
  67              		.align	1
  68              		.p2align 2,,3
  69              		.weak	_ZN7daisysp10OscillatorD2Ev
  70              		.syntax unified
  71              		.thumb
  72              		.thumb_func
  73              		.fpu fpv5-d16
  75              	_ZN7daisysp10OscillatorD2Ev:
  76              	.LVL1:
  77              	.LFB4240:
  78              		.file 6 "/home/nahomts/Desktop/DaisyExamples/DaisySP/Source/Synthesis/oscillator.h"
   1:/home/nahomts/Desktop/DaisyExamples/DaisySP/Source/Synthesis/oscillator.h **** /*
   2:/home/nahomts/Desktop/DaisyExamples/DaisySP/Source/Synthesis/oscillator.h **** Copyright (c) 2020 Electrosmith, Corp
   3:/home/nahomts/Desktop/DaisyExamples/DaisySP/Source/Synthesis/oscillator.h **** 
   4:/home/nahomts/Desktop/DaisyExamples/DaisySP/Source/Synthesis/oscillator.h **** Use of this source code is governed by an MIT-style
   5:/home/nahomts/Desktop/DaisyExamples/DaisySP/Source/Synthesis/oscillator.h **** license that can be found in the LICENSE file or at
   6:/home/nahomts/Desktop/DaisyExamples/DaisySP/Source/Synthesis/oscillator.h **** https://opensource.org/licenses/MIT.
   7:/home/nahomts/Desktop/DaisyExamples/DaisySP/Source/Synthesis/oscillator.h **** */
   8:/home/nahomts/Desktop/DaisyExamples/DaisySP/Source/Synthesis/oscillator.h **** 
   9:/home/nahomts/Desktop/DaisyExamples/DaisySP/Source/Synthesis/oscillator.h **** #pragma once
  10:/home/nahomts/Desktop/DaisyExamples/DaisySP/Source/Synthesis/oscillator.h **** #ifndef DSY_OSCILLATOR_H
  11:/home/nahomts/Desktop/DaisyExamples/DaisySP/Source/Synthesis/oscillator.h **** #define DSY_OSCILLATOR_H
  12:/home/nahomts/Desktop/DaisyExamples/DaisySP/Source/Synthesis/oscillator.h **** #include <stdint.h>
  13:/home/nahomts/Desktop/DaisyExamples/DaisySP/Source/Synthesis/oscillator.h **** #include "Utility/dsp.h"
  14:/home/nahomts/Desktop/DaisyExamples/DaisySP/Source/Synthesis/oscillator.h **** #ifdef __cplusplus
ARM GAS  /tmp/ccJku0Fb.s 			page 9


  15:/home/nahomts/Desktop/DaisyExamples/DaisySP/Source/Synthesis/oscillator.h **** 
  16:/home/nahomts/Desktop/DaisyExamples/DaisySP/Source/Synthesis/oscillator.h **** namespace daisysp
  17:/home/nahomts/Desktop/DaisyExamples/DaisySP/Source/Synthesis/oscillator.h **** {
  18:/home/nahomts/Desktop/DaisyExamples/DaisySP/Source/Synthesis/oscillator.h **** /** Synthesis of several waveforms, including polyBLEP bandlimited waveforms.
  19:/home/nahomts/Desktop/DaisyExamples/DaisySP/Source/Synthesis/oscillator.h **** */
  20:/home/nahomts/Desktop/DaisyExamples/DaisySP/Source/Synthesis/oscillator.h **** class Oscillator
  21:/home/nahomts/Desktop/DaisyExamples/DaisySP/Source/Synthesis/oscillator.h **** {
  22:/home/nahomts/Desktop/DaisyExamples/DaisySP/Source/Synthesis/oscillator.h ****   public:
  23:/home/nahomts/Desktop/DaisyExamples/DaisySP/Source/Synthesis/oscillator.h ****     Oscillator() {}
  24:/home/nahomts/Desktop/DaisyExamples/DaisySP/Source/Synthesis/oscillator.h ****     ~Oscillator() {}
  79              		.loc 6 24 5 is_stmt 1 view -0
  80              		.cfi_startproc
  81              		@ args = 0, pretend = 0, frame = 0
  82              		@ frame_needed = 0, uses_anonymous_args = 0
  83              		@ link register save eliminated.
  84              		.loc 6 24 20 is_stmt 0 view .LVU11
  85 0000 7047     		bx	lr
  86              		.cfi_endproc
  87              	.LFE4240:
  89              		.weak	_ZN7daisysp10OscillatorD1Ev
  90              		.thumb_set _ZN7daisysp10OscillatorD1Ev,_ZN7daisysp10OscillatorD2Ev
  91 0002 00BF     		.section	.text._Z19WriteBNO055Registerhh,"ax",%progbits
  92              		.align	1
  93              		.p2align 2,,3
  94              		.global	_Z19WriteBNO055Registerhh
  95              		.syntax unified
  96              		.thumb
  97              		.thumb_func
  98              		.fpu fpv5-d16
 100              	_Z19WriteBNO055Registerhh:
 101              	.LVL2:
 102              	.LFB4681:
 103              		.file 7 "I2C.cpp"
   1:I2C.cpp       **** #include "daisy_seed.h"
   2:I2C.cpp       **** #include "daisysp.h"
   3:I2C.cpp       **** 
   4:I2C.cpp       **** using namespace daisy;
   5:I2C.cpp       **** using namespace daisysp;
   6:I2C.cpp       **** 
   7:I2C.cpp       **** DaisySeed  hardware;
   8:I2C.cpp       **** Oscillator osc;
   9:I2C.cpp       **** I2CHandle  i2c;
  10:I2C.cpp       **** 
  11:I2C.cpp       **** // BNO055 I2C Base Address
  12:I2C.cpp       **** const uint8_t BNO055_ADDRESS = 0x28;
  13:I2C.cpp       **** 
  14:I2C.cpp       **** // BNO055 Register Addresses
  15:I2C.cpp       **** const uint8_t BNO055_OPR_MODE_ADDR = 0x3D;
  16:I2C.cpp       **** const uint8_t BNO055_PWR_MODE_ADDR = 0x3E;
  17:I2C.cpp       **** const uint8_t BNO055_EULER_H_LSB_ADDR = 0x1A;
  18:I2C.cpp       **** const uint8_t BNO055_PAGE_ID_ADDR = 0x07;
  19:I2C.cpp       **** 
  20:I2C.cpp       **** // Operation modes
  21:I2C.cpp       **** const uint8_t OPERATION_MODE_NDOF = 0x0C;
  22:I2C.cpp       **** const uint8_t POWER_MODE_NORMAL = 0x00;
  23:I2C.cpp       **** 
  24:I2C.cpp       **** // Orientation data
ARM GAS  /tmp/ccJku0Fb.s 			page 10


  25:I2C.cpp       **** float euler_heading = 0.0f;
  26:I2C.cpp       **** float euler_roll = 0.0f;
  27:I2C.cpp       **** float euler_pitch = 0.0f;
  28:I2C.cpp       **** 
  29:I2C.cpp       **** void WriteBNO055Register(uint8_t reg, uint8_t value)
  30:I2C.cpp       **** {
 104              		.loc 7 30 1 is_stmt 1 view -0
 105              		.cfi_startproc
 106              		@ args = 0, pretend = 0, frame = 8
 107              		@ frame_needed = 0, uses_anonymous_args = 0
  31:I2C.cpp       ****     uint8_t buffer[2] = {reg, value};
 108              		.loc 7 31 5 view .LVU13
  30:I2C.cpp       ****     uint8_t buffer[2] = {reg, value};
 109              		.loc 7 30 1 is_stmt 0 view .LVU14
 110 0000 10B5     		push	{r4, lr}
 111              		.cfi_def_cfa_offset 8
 112              		.cfi_offset 4, -8
 113              		.cfi_offset 14, -4
 114 0002 84B0     		sub	sp, sp, #16
 115              		.cfi_def_cfa_offset 24
  32:I2C.cpp       ****     i2c.TransmitBlocking(BNO055_ADDRESS, buffer, 2, 100);
 116              		.loc 7 32 25 view .LVU15
 117 0004 6424     		movs	r4, #100
 118 0006 0223     		movs	r3, #2
  31:I2C.cpp       ****     uint8_t buffer[2] = {reg, value};
 119              		.loc 7 31 36 view .LVU16
 120 0008 8DF80D10 		strb	r1, [sp, #13]
 121              		.loc 7 32 5 is_stmt 1 view .LVU17
 122              		.loc 7 32 25 is_stmt 0 view .LVU18
 123 000c 03AA     		add	r2, sp, #12
 124 000e 2821     		movs	r1, #40
 125              	.LVL3:
  31:I2C.cpp       ****     uint8_t buffer[2] = {reg, value};
 126              		.loc 7 31 36 view .LVU19
 127 0010 8DF80C00 		strb	r0, [sp, #12]
 128              		.loc 7 32 25 view .LVU20
 129 0014 0094     		str	r4, [sp]
 130 0016 0248     		ldr	r0, .L6
 131              	.LVL4:
 132              		.loc 7 32 25 view .LVU21
 133 0018 FFF7FEFF 		bl	_ZN5daisy9I2CHandle16TransmitBlockingEtPhtm
 134              	.LVL5:
  33:I2C.cpp       **** }
 135              		.loc 7 33 1 view .LVU22
 136 001c 04B0     		add	sp, sp, #16
 137              		.cfi_def_cfa_offset 8
 138              		@ sp needed
 139 001e 10BD     		pop	{r4, pc}
 140              	.L7:
 141              		.align	2
 142              	.L6:
 143 0020 00000000 		.word	.LANCHOR0
 144              		.cfi_endproc
 145              	.LFE4681:
 147              		.section	.text._Z18ReadBNO055RegisterhPhh,"ax",%progbits
 148              		.align	1
 149              		.p2align 2,,3
ARM GAS  /tmp/ccJku0Fb.s 			page 11


 150              		.global	_Z18ReadBNO055RegisterhPhh
 151              		.syntax unified
 152              		.thumb
 153              		.thumb_func
 154              		.fpu fpv5-d16
 156              	_Z18ReadBNO055RegisterhPhh:
 157              	.LVL6:
 158              	.LFB4682:
  34:I2C.cpp       **** 
  35:I2C.cpp       **** void ReadBNO055Register(uint8_t reg, uint8_t arr[], uint8_t size)
  36:I2C.cpp       **** {
 159              		.loc 7 36 1 is_stmt 1 view -0
 160              		.cfi_startproc
 161              		@ args = 0, pretend = 0, frame = 8
 162              		@ frame_needed = 0, uses_anonymous_args = 0
  37:I2C.cpp       ****     i2c.TransmitBlocking(BNO055_ADDRESS, &reg, 1, 100);
 163              		.loc 7 37 5 view .LVU24
  36:I2C.cpp       ****     i2c.TransmitBlocking(BNO055_ADDRESS, &reg, 1, 100);
 164              		.loc 7 36 1 is_stmt 0 view .LVU25
 165 0000 F0B5     		push	{r4, r5, r6, r7, lr}
 166              		.cfi_def_cfa_offset 20
 167              		.cfi_offset 4, -20
 168              		.cfi_offset 5, -16
 169              		.cfi_offset 6, -12
 170              		.cfi_offset 7, -8
 171              		.cfi_offset 14, -4
 172              		.loc 7 37 25 view .LVU26
 173 0002 0C4F     		ldr	r7, .L10
  36:I2C.cpp       ****     i2c.TransmitBlocking(BNO055_ADDRESS, &reg, 1, 100);
 174              		.loc 7 36 1 view .LVU27
 175 0004 85B0     		sub	sp, sp, #20
 176              		.cfi_def_cfa_offset 40
 177              		.loc 7 37 25 view .LVU28
 178 0006 6426     		movs	r6, #100
  36:I2C.cpp       ****     i2c.TransmitBlocking(BNO055_ADDRESS, &reg, 1, 100);
 179              		.loc 7 36 1 view .LVU29
 180 0008 0C46     		mov	r4, r1
 181 000a 1546     		mov	r5, r2
 182 000c 8DF80F00 		strb	r0, [sp, #15]
 183              		.loc 7 37 25 view .LVU30
 184 0010 0DF10F02 		add	r2, sp, #15
 185              	.LVL7:
 186              		.loc 7 37 25 view .LVU31
 187 0014 0123     		movs	r3, #1
 188 0016 2821     		movs	r1, #40
 189              	.LVL8:
 190              		.loc 7 37 25 view .LVU32
 191 0018 3846     		mov	r0, r7
 192              	.LVL9:
 193              		.loc 7 37 25 view .LVU33
 194 001a 0096     		str	r6, [sp]
 195 001c FFF7FEFF 		bl	_ZN5daisy9I2CHandle16TransmitBlockingEtPhtm
 196              	.LVL10:
  38:I2C.cpp       ****     i2c.ReceiveBlocking(BNO055_ADDRESS, arr, size, 100);
 197              		.loc 7 38 5 is_stmt 1 view .LVU34
 198              		.loc 7 38 24 is_stmt 0 view .LVU35
 199 0020 2B46     		mov	r3, r5
ARM GAS  /tmp/ccJku0Fb.s 			page 12


 200 0022 2246     		mov	r2, r4
 201 0024 2821     		movs	r1, #40
 202 0026 3846     		mov	r0, r7
 203 0028 0096     		str	r6, [sp]
 204 002a FFF7FEFF 		bl	_ZN5daisy9I2CHandle15ReceiveBlockingEtPhtm
 205              	.LVL11:
  39:I2C.cpp       **** }
 206              		.loc 7 39 1 view .LVU36
 207 002e 05B0     		add	sp, sp, #20
 208              		.cfi_def_cfa_offset 20
 209              		@ sp needed
 210 0030 F0BD     		pop	{r4, r5, r6, r7, pc}
 211              	.LVL12:
 212              	.L11:
 213              		.loc 7 39 1 view .LVU37
 214 0032 00BF     		.align	2
 215              	.L10:
 216 0034 00000000 		.word	.LANCHOR0
 217              		.cfi_endproc
 218              	.LFE4682:
 220              		.section	.text._Z10InitBNO055v,"ax",%progbits
 221              		.align	1
 222              		.p2align 2,,3
 223              		.global	_Z10InitBNO055v
 224              		.syntax unified
 225              		.thumb
 226              		.thumb_func
 227              		.fpu fpv5-d16
 229              	_Z10InitBNO055v:
 230              	.LFB4683:
  40:I2C.cpp       **** 
  41:I2C.cpp       **** void InitBNO055()
  42:I2C.cpp       **** {
 231              		.loc 7 42 1 is_stmt 1 view -0
 232              		.cfi_startproc
 233              		@ args = 0, pretend = 0, frame = 8
 234              		@ frame_needed = 0, uses_anonymous_args = 0
  43:I2C.cpp       ****     // Set to config mode first
  44:I2C.cpp       ****     WriteBNO055Register(BNO055_OPR_MODE_ADDR, 0x00);
 235              		.loc 7 44 5 view .LVU39
 236              	.LVL13:
 237              	.LBB117:
 238              	.LBI117:
  29:I2C.cpp       **** {
 239              		.loc 7 29 6 view .LVU40
 240              	.LBB118:
  31:I2C.cpp       ****     i2c.TransmitBlocking(BNO055_ADDRESS, buffer, 2, 100);
 241              		.loc 7 31 5 view .LVU41
 242              	.LBE118:
 243              	.LBE117:
  42:I2C.cpp       ****     // Set to config mode first
 244              		.loc 7 42 1 is_stmt 0 view .LVU42
 245 0000 F0B5     		push	{r4, r5, r6, r7, lr}
 246              		.cfi_def_cfa_offset 20
 247              		.cfi_offset 4, -20
 248              		.cfi_offset 5, -16
 249              		.cfi_offset 6, -12
ARM GAS  /tmp/ccJku0Fb.s 			page 13


 250              		.cfi_offset 7, -8
 251              		.cfi_offset 14, -4
 252              	.LBB121:
 253              	.LBB119:
  32:I2C.cpp       **** }
 254              		.loc 7 32 25 view .LVU43
 255 0002 224D     		ldr	r5, .L14
 256              	.LBE119:
 257              	.LBE121:
  42:I2C.cpp       ****     // Set to config mode first
 258              		.loc 7 42 1 view .LVU44
 259 0004 85B0     		sub	sp, sp, #20
 260              		.cfi_def_cfa_offset 40
 261              	.LBB122:
 262              	.LBB120:
  32:I2C.cpp       **** }
 263              		.loc 7 32 25 view .LVU45
 264 0006 6424     		movs	r4, #100
  31:I2C.cpp       ****     i2c.TransmitBlocking(BNO055_ADDRESS, buffer, 2, 100);
 265              		.loc 7 31 36 view .LVU46
 266 0008 0026     		movs	r6, #0
 267 000a 3D27     		movs	r7, #61
  32:I2C.cpp       **** }
 268              		.loc 7 32 25 view .LVU47
 269 000c 03AA     		add	r2, sp, #12
 270 000e 0223     		movs	r3, #2
 271 0010 2821     		movs	r1, #40
 272 0012 2846     		mov	r0, r5
 273 0014 0094     		str	r4, [sp]
  31:I2C.cpp       ****     i2c.TransmitBlocking(BNO055_ADDRESS, buffer, 2, 100);
 274              		.loc 7 31 36 view .LVU48
 275 0016 8DF80D60 		strb	r6, [sp, #13]
  32:I2C.cpp       **** }
 276              		.loc 7 32 5 is_stmt 1 view .LVU49
  31:I2C.cpp       ****     i2c.TransmitBlocking(BNO055_ADDRESS, buffer, 2, 100);
 277              		.loc 7 31 36 is_stmt 0 view .LVU50
 278 001a 8DF80C70 		strb	r7, [sp, #12]
  32:I2C.cpp       **** }
 279              		.loc 7 32 25 view .LVU51
 280 001e FFF7FEFF 		bl	_ZN5daisy9I2CHandle16TransmitBlockingEtPhtm
 281              	.LVL14:
  32:I2C.cpp       **** }
 282              		.loc 7 32 25 view .LVU52
 283              	.LBE120:
 284              	.LBE122:
  45:I2C.cpp       ****     System::Delay(30);
 285              		.loc 7 45 5 is_stmt 1 view .LVU53
 286              		.loc 7 45 18 is_stmt 0 view .LVU54
 287 0022 1E20     		movs	r0, #30
 288 0024 FFF7FEFF 		bl	_ZN5daisy6System5DelayEm
 289              	.LVL15:
  46:I2C.cpp       ****     
  47:I2C.cpp       ****     // Set to normal power mode
  48:I2C.cpp       ****     WriteBNO055Register(BNO055_PWR_MODE_ADDR, POWER_MODE_NORMAL);
 290              		.loc 7 48 5 is_stmt 1 view .LVU55
 291              	.LBB123:
 292              	.LBI123:
ARM GAS  /tmp/ccJku0Fb.s 			page 14


  29:I2C.cpp       **** {
 293              		.loc 7 29 6 view .LVU56
 294              	.LBB124:
  31:I2C.cpp       ****     i2c.TransmitBlocking(BNO055_ADDRESS, buffer, 2, 100);
 295              		.loc 7 31 5 view .LVU57
  31:I2C.cpp       ****     i2c.TransmitBlocking(BNO055_ADDRESS, buffer, 2, 100);
 296              		.loc 7 31 36 is_stmt 0 view .LVU58
 297 0028 3E23     		movs	r3, #62
  32:I2C.cpp       **** }
 298              		.loc 7 32 25 view .LVU59
 299 002a 03AA     		add	r2, sp, #12
 300 002c 2821     		movs	r1, #40
  31:I2C.cpp       ****     i2c.TransmitBlocking(BNO055_ADDRESS, buffer, 2, 100);
 301              		.loc 7 31 36 view .LVU60
 302 002e 8DF80C30 		strb	r3, [sp, #12]
  32:I2C.cpp       **** }
 303              		.loc 7 32 25 view .LVU61
 304 0032 2846     		mov	r0, r5
 305 0034 0223     		movs	r3, #2
 306 0036 0094     		str	r4, [sp]
  31:I2C.cpp       ****     i2c.TransmitBlocking(BNO055_ADDRESS, buffer, 2, 100);
 307              		.loc 7 31 36 view .LVU62
 308 0038 8DF80D60 		strb	r6, [sp, #13]
  32:I2C.cpp       **** }
 309              		.loc 7 32 5 is_stmt 1 view .LVU63
  32:I2C.cpp       **** }
 310              		.loc 7 32 25 is_stmt 0 view .LVU64
 311 003c FFF7FEFF 		bl	_ZN5daisy9I2CHandle16TransmitBlockingEtPhtm
 312              	.LVL16:
  32:I2C.cpp       **** }
 313              		.loc 7 32 25 view .LVU65
 314              	.LBE124:
 315              	.LBE123:
  49:I2C.cpp       ****     System::Delay(10);
 316              		.loc 7 49 5 is_stmt 1 view .LVU66
 317              		.loc 7 49 18 is_stmt 0 view .LVU67
 318 0040 0A20     		movs	r0, #10
 319 0042 FFF7FEFF 		bl	_ZN5daisy6System5DelayEm
 320              	.LVL17:
  50:I2C.cpp       ****     
  51:I2C.cpp       ****     // Select page 0
  52:I2C.cpp       ****     WriteBNO055Register(BNO055_PAGE_ID_ADDR, 0x00);
 321              		.loc 7 52 5 is_stmt 1 view .LVU68
 322              	.LBB125:
 323              	.LBI125:
  29:I2C.cpp       **** {
 324              		.loc 7 29 6 view .LVU69
 325              	.LBB126:
  31:I2C.cpp       ****     i2c.TransmitBlocking(BNO055_ADDRESS, buffer, 2, 100);
 326              		.loc 7 31 5 view .LVU70
  31:I2C.cpp       ****     i2c.TransmitBlocking(BNO055_ADDRESS, buffer, 2, 100);
 327              		.loc 7 31 36 is_stmt 0 view .LVU71
 328 0046 0722     		movs	r2, #7
  32:I2C.cpp       **** }
 329              		.loc 7 32 25 view .LVU72
 330 0048 0223     		movs	r3, #2
 331 004a 2821     		movs	r1, #40
ARM GAS  /tmp/ccJku0Fb.s 			page 15


  31:I2C.cpp       ****     i2c.TransmitBlocking(BNO055_ADDRESS, buffer, 2, 100);
 332              		.loc 7 31 36 view .LVU73
 333 004c 8DF80C20 		strb	r2, [sp, #12]
  32:I2C.cpp       **** }
 334              		.loc 7 32 25 view .LVU74
 335 0050 2846     		mov	r0, r5
 336 0052 03AA     		add	r2, sp, #12
 337 0054 0094     		str	r4, [sp]
  31:I2C.cpp       ****     i2c.TransmitBlocking(BNO055_ADDRESS, buffer, 2, 100);
 338              		.loc 7 31 36 view .LVU75
 339 0056 8DF80D60 		strb	r6, [sp, #13]
  32:I2C.cpp       **** }
 340              		.loc 7 32 5 is_stmt 1 view .LVU76
  32:I2C.cpp       **** }
 341              		.loc 7 32 25 is_stmt 0 view .LVU77
 342 005a FFF7FEFF 		bl	_ZN5daisy9I2CHandle16TransmitBlockingEtPhtm
 343              	.LVL18:
  32:I2C.cpp       **** }
 344              		.loc 7 32 25 view .LVU78
 345              	.LBE126:
 346              	.LBE125:
  53:I2C.cpp       ****     System::Delay(10);
 347              		.loc 7 53 5 is_stmt 1 view .LVU79
 348              		.loc 7 53 18 is_stmt 0 view .LVU80
 349 005e 0A20     		movs	r0, #10
 350 0060 FFF7FEFF 		bl	_ZN5daisy6System5DelayEm
 351              	.LVL19:
  54:I2C.cpp       ****     
  55:I2C.cpp       ****     // Set to NDOF mode (fusion mode with magnetometer)
  56:I2C.cpp       ****     WriteBNO055Register(BNO055_OPR_MODE_ADDR, OPERATION_MODE_NDOF);
 352              		.loc 7 56 5 is_stmt 1 view .LVU81
 353              	.LBB127:
 354              	.LBI127:
  29:I2C.cpp       **** {
 355              		.loc 7 29 6 view .LVU82
 356              	.LBB128:
  31:I2C.cpp       ****     i2c.TransmitBlocking(BNO055_ADDRESS, buffer, 2, 100);
 357              		.loc 7 31 5 view .LVU83
  31:I2C.cpp       ****     i2c.TransmitBlocking(BNO055_ADDRESS, buffer, 2, 100);
 358              		.loc 7 31 36 is_stmt 0 view .LVU84
 359 0064 0C21     		movs	r1, #12
  32:I2C.cpp       **** }
 360              		.loc 7 32 25 view .LVU85
 361 0066 2846     		mov	r0, r5
 362 0068 0223     		movs	r3, #2
 363 006a 0DEB0102 		add	r2, sp, r1
  31:I2C.cpp       ****     i2c.TransmitBlocking(BNO055_ADDRESS, buffer, 2, 100);
 364              		.loc 7 31 36 view .LVU86
 365 006e 8DF80D10 		strb	r1, [sp, #13]
  32:I2C.cpp       **** }
 366              		.loc 7 32 5 is_stmt 1 view .LVU87
  32:I2C.cpp       **** }
 367              		.loc 7 32 25 is_stmt 0 view .LVU88
 368 0072 0094     		str	r4, [sp]
 369 0074 2821     		movs	r1, #40
  31:I2C.cpp       ****     i2c.TransmitBlocking(BNO055_ADDRESS, buffer, 2, 100);
 370              		.loc 7 31 36 view .LVU89
ARM GAS  /tmp/ccJku0Fb.s 			page 16


 371 0076 8DF80C70 		strb	r7, [sp, #12]
  32:I2C.cpp       **** }
 372              		.loc 7 32 25 view .LVU90
 373 007a FFF7FEFF 		bl	_ZN5daisy9I2CHandle16TransmitBlockingEtPhtm
 374              	.LVL20:
  32:I2C.cpp       **** }
 375              		.loc 7 32 25 view .LVU91
 376              	.LBE128:
 377              	.LBE127:
  57:I2C.cpp       ****     System::Delay(20);
 378              		.loc 7 57 5 is_stmt 1 view .LVU92
 379              		.loc 7 57 18 is_stmt 0 view .LVU93
 380 007e 1420     		movs	r0, #20
  58:I2C.cpp       **** }
 381              		.loc 7 58 1 view .LVU94
 382 0080 05B0     		add	sp, sp, #20
 383              		.cfi_def_cfa_offset 20
 384              		@ sp needed
 385 0082 BDE8F040 		pop	{r4, r5, r6, r7, lr}
 386              		.cfi_restore 14
 387              		.cfi_restore 7
 388              		.cfi_restore 6
 389              		.cfi_restore 5
 390              		.cfi_restore 4
 391              		.cfi_def_cfa_offset 0
  57:I2C.cpp       ****     System::Delay(20);
 392              		.loc 7 57 18 view .LVU95
 393 0086 FFF7FEBF 		b	_ZN5daisy6System5DelayEm
 394              	.LVL21:
 395              	.L15:
 396 008a 00BF     		.align	2
 397              	.L14:
 398 008c 00000000 		.word	.LANCHOR0
 399              		.cfi_endproc
 400              	.LFE4683:
 402              		.section	.text._Z15ReadEulerAnglesv,"ax",%progbits
 403              		.align	1
 404              		.p2align 2,,3
 405              		.global	_Z15ReadEulerAnglesv
 406              		.syntax unified
 407              		.thumb
 408              		.thumb_func
 409              		.fpu fpv5-d16
 411              	_Z15ReadEulerAnglesv:
 412              	.LFB4684:
  59:I2C.cpp       **** 
  60:I2C.cpp       **** void ReadEulerAngles()
  61:I2C.cpp       **** {
 413              		.loc 7 61 1 is_stmt 1 view -0
 414              		.cfi_startproc
 415              		@ args = 0, pretend = 0, frame = 16
 416              		@ frame_needed = 0, uses_anonymous_args = 0
  62:I2C.cpp       ****     uint8_t buffer[6];
 417              		.loc 7 62 5 view .LVU97
  63:I2C.cpp       ****     uint8_t reg = BNO055_EULER_H_LSB_ADDR;
 418              		.loc 7 63 5 view .LVU98
 419              	.LVL22:
ARM GAS  /tmp/ccJku0Fb.s 			page 17


  64:I2C.cpp       ****     
  65:I2C.cpp       ****     // Read 6 bytes starting from Euler heading LSB
  66:I2C.cpp       ****     ReadBNO055Register(reg, buffer, 6);
 420              		.loc 7 66 5 view .LVU99
  61:I2C.cpp       ****     uint8_t buffer[6];
 421              		.loc 7 61 1 is_stmt 0 view .LVU100
 422 0000 30B5     		push	{r4, r5, lr}
 423              		.cfi_def_cfa_offset 12
 424              		.cfi_offset 4, -12
 425              		.cfi_offset 5, -8
 426              		.cfi_offset 14, -4
 427 0002 1A21     		movs	r1, #26
 428 0004 87B0     		sub	sp, sp, #28
 429              		.cfi_def_cfa_offset 40
 430              	.LBB131:
 431              	.LBB132:
  37:I2C.cpp       ****     i2c.ReceiveBlocking(BNO055_ADDRESS, arr, size, 100);
 432              		.loc 7 37 25 view .LVU101
 433 0006 1C4D     		ldr	r5, .L18
 434 0008 6424     		movs	r4, #100
 435 000a 0DF10F02 		add	r2, sp, #15
 436 000e 8DF80F10 		strb	r1, [sp, #15]
 437              	.LVL23:
  37:I2C.cpp       ****     i2c.ReceiveBlocking(BNO055_ADDRESS, arr, size, 100);
 438              		.loc 7 37 25 view .LVU102
 439              	.LBE132:
 440              	.LBI131:
  35:I2C.cpp       **** {
 441              		.loc 7 35 6 is_stmt 1 view .LVU103
 442              	.LBB133:
  37:I2C.cpp       ****     i2c.ReceiveBlocking(BNO055_ADDRESS, arr, size, 100);
 443              		.loc 7 37 5 view .LVU104
  37:I2C.cpp       ****     i2c.ReceiveBlocking(BNO055_ADDRESS, arr, size, 100);
 444              		.loc 7 37 25 is_stmt 0 view .LVU105
 445 0012 0123     		movs	r3, #1
 446 0014 2821     		movs	r1, #40
 447              	.LVL24:
  37:I2C.cpp       ****     i2c.ReceiveBlocking(BNO055_ADDRESS, arr, size, 100);
 448              		.loc 7 37 25 view .LVU106
 449 0016 2846     		mov	r0, r5
 450 0018 0094     		str	r4, [sp]
 451 001a FFF7FEFF 		bl	_ZN5daisy9I2CHandle16TransmitBlockingEtPhtm
 452              	.LVL25:
  38:I2C.cpp       **** }
 453              		.loc 7 38 5 is_stmt 1 view .LVU107
  38:I2C.cpp       **** }
 454              		.loc 7 38 24 is_stmt 0 view .LVU108
 455 001e 04AA     		add	r2, sp, #16
 456              	.LVL26:
  38:I2C.cpp       **** }
 457              		.loc 7 38 24 view .LVU109
 458 0020 0623     		movs	r3, #6
 459 0022 2821     		movs	r1, #40
 460 0024 2846     		mov	r0, r5
 461 0026 0094     		str	r4, [sp]
 462 0028 FFF7FEFF 		bl	_ZN5daisy9I2CHandle15ReceiveBlockingEtPhtm
 463              	.LVL27:
ARM GAS  /tmp/ccJku0Fb.s 			page 18


  38:I2C.cpp       **** }
 464              		.loc 7 38 24 view .LVU110
 465              	.LBE133:
 466              	.LBE131:
  67:I2C.cpp       ****     
  68:I2C.cpp       ****     // Separate Angles
  69:I2C.cpp       ****     int16_t heading_raw = (buffer[1] << 8) | buffer[0];
 467              		.loc 7 69 5 is_stmt 1 view .LVU111
  70:I2C.cpp       ****     int16_t roll_raw = (buffer[3] << 8) | buffer[2];
 468              		.loc 7 70 5 view .LVU112
 469              		.loc 7 70 13 is_stmt 0 view .LVU113
 470 002c BDF91230 		ldrsh	r3, [sp, #18]
  71:I2C.cpp       ****     int16_t pitch_raw = (buffer[5] << 8) | buffer[4];
  72:I2C.cpp       ****     
  73:I2C.cpp       ****     // Convert to degrees
  74:I2C.cpp       ****     euler_heading = heading_raw / 16.0f;
 471              		.loc 7 74 33 view .LVU114
 472 0030 9FED126A 		vldr.32	s12, .L18+4
  70:I2C.cpp       ****     int16_t roll_raw = (buffer[3] << 8) | buffer[2];
 473              		.loc 7 70 13 view .LVU115
 474 0034 06EE903A 		vmov	s13, r3	@ int
 475              	.LVL28:
  71:I2C.cpp       ****     int16_t pitch_raw = (buffer[5] << 8) | buffer[4];
 476              		.loc 7 71 5 is_stmt 1 view .LVU116
  71:I2C.cpp       ****     int16_t pitch_raw = (buffer[5] << 8) | buffer[4];
 477              		.loc 7 71 13 is_stmt 0 view .LVU117
 478 0038 BDF91430 		ldrsh	r3, [sp, #20]
 479              		.loc 7 74 19 view .LVU118
 480 003c 104A     		ldr	r2, .L18+8
  71:I2C.cpp       ****     int16_t pitch_raw = (buffer[5] << 8) | buffer[4];
 481              		.loc 7 71 13 view .LVU119
 482 003e 07EE903A 		vmov	s15, r3	@ int
 483              	.LVL29:
 484              		.loc 7 74 5 is_stmt 1 view .LVU120
 485              		.loc 7 74 33 is_stmt 0 view .LVU121
 486 0042 BDF91030 		ldrsh	r3, [sp, #16]
  75:I2C.cpp       ****     euler_roll = roll_raw / 16.0f;
 487              		.loc 7 75 27 view .LVU122
 488 0046 F8EEE66A 		vcvt.f32.s32	s13, s13
 489              		.loc 7 75 16 view .LVU123
 490 004a 0E49     		ldr	r1, .L18+12
  74:I2C.cpp       ****     euler_roll = roll_raw / 16.0f;
 491              		.loc 7 74 33 view .LVU124
 492 004c 07EE103A 		vmov	s14, r3	@ int
  76:I2C.cpp       ****     euler_pitch = pitch_raw / 16.0f;
 493              		.loc 7 76 29 view .LVU125
 494 0050 F8EEE77A 		vcvt.f32.s32	s15, s15
 495              		.loc 7 76 17 view .LVU126
 496 0054 0C4B     		ldr	r3, .L18+16
  74:I2C.cpp       ****     euler_roll = roll_raw / 16.0f;
 497              		.loc 7 74 33 view .LVU127
 498 0056 B8EEC77A 		vcvt.f32.s32	s14, s14
  75:I2C.cpp       ****     euler_roll = roll_raw / 16.0f;
 499              		.loc 7 75 27 view .LVU128
 500 005a 66EE866A 		vmul.f32	s13, s13, s12
 501              		.loc 7 76 29 view .LVU129
 502 005e 67EE867A 		vmul.f32	s15, s15, s12
ARM GAS  /tmp/ccJku0Fb.s 			page 19


  74:I2C.cpp       ****     euler_roll = roll_raw / 16.0f;
 503              		.loc 7 74 33 view .LVU130
 504 0062 27EE067A 		vmul.f32	s14, s14, s12
  75:I2C.cpp       ****     euler_roll = roll_raw / 16.0f;
 505              		.loc 7 75 16 view .LVU131
 506 0066 C1ED006A 		vstr.32	s13, [r1]
 507              		.loc 7 76 17 view .LVU132
 508 006a C3ED007A 		vstr.32	s15, [r3]
  74:I2C.cpp       ****     euler_roll = roll_raw / 16.0f;
 509              		.loc 7 74 19 view .LVU133
 510 006e 82ED007A 		vstr.32	s14, [r2]
  75:I2C.cpp       ****     euler_roll = roll_raw / 16.0f;
 511              		.loc 7 75 5 is_stmt 1 view .LVU134
 512              		.loc 7 76 5 view .LVU135
  77:I2C.cpp       **** }
 513              		.loc 7 77 1 is_stmt 0 view .LVU136
 514 0072 07B0     		add	sp, sp, #28
 515              		.cfi_def_cfa_offset 12
 516              		@ sp needed
 517 0074 30BD     		pop	{r4, r5, pc}
 518              	.LVL30:
 519              	.L19:
 520              		.loc 7 77 1 view .LVU137
 521 0076 00BF     		.align	2
 522              	.L18:
 523 0078 00000000 		.word	.LANCHOR0
 524 007c 0000803D 		.word	1031798784
 525 0080 00000000 		.word	.LANCHOR1
 526 0084 00000000 		.word	.LANCHOR2
 527 0088 00000000 		.word	.LANCHOR3
 528              		.cfi_endproc
 529              	.LFE4684:
 531              		.section	.text._Z13AudioCallbackPKfPfj,"ax",%progbits
 532              		.align	1
 533              		.p2align 2,,3
 534              		.global	_Z13AudioCallbackPKfPfj
 535              		.syntax unified
 536              		.thumb
 537              		.thumb_func
 538              		.fpu fpv5-d16
 540              	_Z13AudioCallbackPKfPfj:
 541              	.LVL31:
 542              	.LFB4685:
  78:I2C.cpp       **** 
  79:I2C.cpp       **** void AudioCallback(AudioHandle::InterleavingInputBuffer  in,
  80:I2C.cpp       ****                    AudioHandle::InterleavingOutputBuffer out,
  81:I2C.cpp       ****                    size_t                                size)
  82:I2C.cpp       **** {
 543              		.loc 7 82 1 is_stmt 1 view -0
 544              		.cfi_startproc
 545              		@ args = 0, pretend = 0, frame = 0
 546              		@ frame_needed = 0, uses_anonymous_args = 0
  83:I2C.cpp       ****     static uint32_t counter = 0;
 547              		.loc 7 83 5 view .LVU139
  84:I2C.cpp       ****     float osc_out;
 548              		.loc 7 84 5 view .LVU140
  85:I2C.cpp       ****     
ARM GAS  /tmp/ccJku0Fb.s 			page 20


  86:I2C.cpp       ****     // Read orientation around every 100ms
  87:I2C.cpp       ****     if (counter++ % 1200 == 0) {
 549              		.loc 7 87 5 view .LVU141
 550              	.LBB134:
 551              		.loc 7 87 16 is_stmt 0 view .LVU142
 552 0000 3A48     		ldr	r0, .L44
 553              	.LVL32:
 554              		.loc 7 87 16 view .LVU143
 555 0002 0368     		ldr	r3, [r0]
 556              	.LBE134:
  82:I2C.cpp       ****     static uint32_t counter = 0;
 557              		.loc 7 82 1 view .LVU144
 558 0004 70B5     		push	{r4, r5, r6, lr}
 559              		.cfi_def_cfa_offset 16
 560              		.cfi_offset 4, -16
 561              		.cfi_offset 5, -12
 562              		.cfi_offset 6, -8
 563              		.cfi_offset 14, -4
 564 0006 1646     		mov	r6, r2
 565              	.LBB152:
 566              		.loc 7 87 16 view .LVU145
 567 0008 5A1C     		adds	r2, r3, #1
 568              	.LVL33:
 569              		.loc 7 87 16 view .LVU146
 570              	.LBE152:
  82:I2C.cpp       ****     static uint32_t counter = 0;
 571              		.loc 7 82 1 view .LVU147
 572 000a 0C46     		mov	r4, r1
 573 000c 2DED028B 		vpush.64	{d8}
 574              		.cfi_def_cfa_offset 24
 575              		.cfi_offset 80, -24
 576              		.cfi_offset 81, -20
 577              	.LBB153:
 578              		.loc 7 87 16 view .LVU148
 579 0010 0260     		str	r2, [r0]
 580 0012 3748     		ldr	r0, .L44+4
 581              		.loc 7 87 5 view .LVU149
 582 0014 374A     		ldr	r2, .L44+8
 583              		.loc 7 87 16 view .LVU150
 584 0016 00FB03F3 		mul	r3, r0, r3
 585              		.loc 7 87 5 view .LVU151
 586 001a B2EB331F 		cmp	r2, r3, ror #4
 587 001e 12D2     		bcs	.L42
 588              	.LVL34:
 589              	.L21:
 590              		.loc 7 87 5 view .LVU152
 591              	.LBE153:
 592              	.LBB154:
  88:I2C.cpp       ****         ReadEulerAngles();
  89:I2C.cpp       ****         
  90:I2C.cpp       ****         // Continuously update sound parameters based on orientation
  91:I2C.cpp       ****         // Map heading (0-360) to frequency range (200Hz - 2000Hz)
  92:I2C.cpp       ****         float freq = 200.0f + (euler_heading / 360.0f) * 1800.0f;
  93:I2C.cpp       ****         osc.SetFreq(freq);
  94:I2C.cpp       ****         
  95:I2C.cpp       ****         // Map roll (-180 to 180) to waveform selection
  96:I2C.cpp       ****         float roll_normalized = (euler_roll + 180.0f) / 360.0f; // 0.0 to 1.0
ARM GAS  /tmp/ccJku0Fb.s 			page 21


  97:I2C.cpp       **** 
  98:I2C.cpp       ****         if(roll_normalized < 0.25f) {
  99:I2C.cpp       ****             osc.SetWaveform(Oscillator::WAVE_SIN);
 100:I2C.cpp       ****         } else if(roll_normalized < 0.5f) {
 101:I2C.cpp       ****             osc.SetWaveform(Oscillator::WAVE_TRI);
 102:I2C.cpp       ****         } else if(roll_normalized < 0.75f) {
 103:I2C.cpp       ****             osc.SetWaveform(Oscillator::WAVE_SAW);
 104:I2C.cpp       ****         } else {
 105:I2C.cpp       ****             osc.SetWaveform(Oscillator::WAVE_SQUARE);
 106:I2C.cpp       ****         }
 107:I2C.cpp       **** 
 108:I2C.cpp       ****         // Map pitch (-180 to 180) to amplitude (0.3 to 0.8)
 109:I2C.cpp       ****         float pitch_normalized = (euler_pitch + 180.0f) / 360.0f;
 110:I2C.cpp       ****         float amplitude = 0.3f + pitch_normalized * 0.5f;
 111:I2C.cpp       ****         osc.SetAmp(amplitude);
 112:I2C.cpp       ****     }
 113:I2C.cpp       ****     
 114:I2C.cpp       ****     // Fill the block with samples - continuous playback
 115:I2C.cpp       ****     for(size_t i = 0; i < size; i += 2)
 593              		.loc 7 115 25 is_stmt 1 discriminator 3 view .LVU153
 594 0020 76B1     		cbz	r6, .L20
 595 0022 013E     		subs	r6, r6, #1
 596              	.LVL35:
 597              		.loc 7 115 25 is_stmt 0 view .LVU154
 598 0024 0025     		movs	r5, #0
 599 0026 7608     		lsrs	r6, r6, #1
 600              	.LVL36:
 601              	.L30:
 116:I2C.cpp       ****     {
 117:I2C.cpp       ****         osc_out = osc.Process();
 602              		.loc 7 117 9 is_stmt 1 discriminator 2 view .LVU155
 603              		.loc 7 117 30 is_stmt 0 discriminator 2 view .LVU156
 604 0028 3348     		ldr	r0, .L44+12
 115:I2C.cpp       ****     {
 605              		.loc 7 115 25 discriminator 2 view .LVU157
 606 002a 0834     		adds	r4, r4, #8
 607              		.loc 7 117 30 discriminator 2 view .LVU158
 608 002c FFF7FEFF 		bl	_ZN7daisysp10Oscillator7ProcessEv
 609              	.LVL37:
 118:I2C.cpp       ****         
 119:I2C.cpp       ****         out[i]     = osc_out;
 610              		.loc 7 119 9 is_stmt 1 discriminator 2 view .LVU159
 115:I2C.cpp       ****     {
 611              		.loc 7 115 25 is_stmt 0 discriminator 2 view .LVU160
 612 0030 AE42     		cmp	r6, r5
 613              		.loc 7 119 20 discriminator 2 view .LVU161
 614 0032 04ED020A 		vstr.32	s0, [r4, #-8]
 120:I2C.cpp       ****         out[i + 1] = osc_out;
 615              		.loc 7 120 9 is_stmt 1 discriminator 2 view .LVU162
 115:I2C.cpp       ****     {
 616              		.loc 7 115 25 is_stmt 0 discriminator 2 view .LVU163
 617 0036 05F10105 		add	r5, r5, #1
 618              	.LVL38:
 619              		.loc 7 120 20 discriminator 2 view .LVU164
 620 003a 04ED010A 		vstr.32	s0, [r4, #-4]
 115:I2C.cpp       ****     {
 621              		.loc 7 115 5 is_stmt 1 discriminator 2 view .LVU165
ARM GAS  /tmp/ccJku0Fb.s 			page 22


 622              	.LVL39:
 115:I2C.cpp       ****     {
 623              		.loc 7 115 25 discriminator 2 view .LVU166
 624 003e F3D1     		bne	.L30
 625              	.LVL40:
 626              	.L20:
 115:I2C.cpp       ****     {
 627              		.loc 7 115 25 is_stmt 0 discriminator 2 view .LVU167
 628              	.LBE154:
 121:I2C.cpp       ****     }
 122:I2C.cpp       **** }
 629              		.loc 7 122 1 view .LVU168
 630 0040 BDEC028B 		vldm	sp!, {d8}
 631              		.cfi_remember_state
 632              		.cfi_restore 80
 633              		.cfi_restore 81
 634              		.cfi_def_cfa_offset 16
 635 0044 70BD     		pop	{r4, r5, r6, pc}
 636              	.LVL41:
 637              	.L42:
 638              		.cfi_restore_state
 639              	.LBB155:
 640              	.LBB135:
  88:I2C.cpp       ****         
 641              		.loc 7 88 9 is_stmt 1 view .LVU169
  88:I2C.cpp       ****         
 642              		.loc 7 88 24 is_stmt 0 view .LVU170
 643 0046 FFF7FEFF 		bl	_Z15ReadEulerAnglesv
 644              	.LVL42:
  92:I2C.cpp       ****         osc.SetFreq(freq);
 645              		.loc 7 92 9 is_stmt 1 view .LVU171
  92:I2C.cpp       ****         osc.SetFreq(freq);
 646              		.loc 7 92 46 is_stmt 0 view .LVU172
 647 004a 2C4B     		ldr	r3, .L44+16
 648 004c 9FED2C8A 		vldr.32	s16, .L44+20
 649 0050 D3ED006A 		vldr.32	s13, [r3]
  92:I2C.cpp       ****         osc.SetFreq(freq);
 650              		.loc 7 92 15 view .LVU173
 651 0054 DFED2B7A 		vldr.32	s15, .L44+24
  92:I2C.cpp       ****         osc.SetFreq(freq);
 652              		.loc 7 92 46 view .LVU174
 653 0058 86EE887A 		vdiv.f32	s14, s13, s16
  92:I2C.cpp       ****         osc.SetFreq(freq);
 654              		.loc 7 92 15 view .LVU175
 655 005c 9FED2A0A 		vldr.32	s0, .L44+28
 656              	.LBB136:
 657              	.LBB137:
  25:/home/nahomts/Desktop/DaisyExamples/DaisySP/Source/Synthesis/oscillator.h ****     /** Choices for output waveforms, POLYBLEP are appropriately labeled. Others are naive forms.
  26:/home/nahomts/Desktop/DaisyExamples/DaisySP/Source/Synthesis/oscillator.h ****     */
  27:/home/nahomts/Desktop/DaisyExamples/DaisySP/Source/Synthesis/oscillator.h ****     enum
  28:/home/nahomts/Desktop/DaisyExamples/DaisySP/Source/Synthesis/oscillator.h ****     {
  29:/home/nahomts/Desktop/DaisyExamples/DaisySP/Source/Synthesis/oscillator.h ****         WAVE_SIN,
  30:/home/nahomts/Desktop/DaisyExamples/DaisySP/Source/Synthesis/oscillator.h ****         WAVE_TRI,
  31:/home/nahomts/Desktop/DaisyExamples/DaisySP/Source/Synthesis/oscillator.h ****         WAVE_SAW,
  32:/home/nahomts/Desktop/DaisyExamples/DaisySP/Source/Synthesis/oscillator.h ****         WAVE_RAMP,
  33:/home/nahomts/Desktop/DaisyExamples/DaisySP/Source/Synthesis/oscillator.h ****         WAVE_SQUARE,
  34:/home/nahomts/Desktop/DaisyExamples/DaisySP/Source/Synthesis/oscillator.h ****         WAVE_POLYBLEP_TRI,
ARM GAS  /tmp/ccJku0Fb.s 			page 23


  35:/home/nahomts/Desktop/DaisyExamples/DaisySP/Source/Synthesis/oscillator.h ****         WAVE_POLYBLEP_SAW,
  36:/home/nahomts/Desktop/DaisyExamples/DaisySP/Source/Synthesis/oscillator.h ****         WAVE_POLYBLEP_SQUARE,
  37:/home/nahomts/Desktop/DaisyExamples/DaisySP/Source/Synthesis/oscillator.h ****         WAVE_LAST,
  38:/home/nahomts/Desktop/DaisyExamples/DaisySP/Source/Synthesis/oscillator.h ****     };
  39:/home/nahomts/Desktop/DaisyExamples/DaisySP/Source/Synthesis/oscillator.h **** 
  40:/home/nahomts/Desktop/DaisyExamples/DaisySP/Source/Synthesis/oscillator.h **** 
  41:/home/nahomts/Desktop/DaisyExamples/DaisySP/Source/Synthesis/oscillator.h ****     /** Initializes the Oscillator
  42:/home/nahomts/Desktop/DaisyExamples/DaisySP/Source/Synthesis/oscillator.h **** 
  43:/home/nahomts/Desktop/DaisyExamples/DaisySP/Source/Synthesis/oscillator.h ****         \param sample_rate - sample rate of the audio engine being run, and the frequency that the 
  44:/home/nahomts/Desktop/DaisyExamples/DaisySP/Source/Synthesis/oscillator.h **** 
  45:/home/nahomts/Desktop/DaisyExamples/DaisySP/Source/Synthesis/oscillator.h ****         Defaults:
  46:/home/nahomts/Desktop/DaisyExamples/DaisySP/Source/Synthesis/oscillator.h ****         - freq_ = 100 Hz
  47:/home/nahomts/Desktop/DaisyExamples/DaisySP/Source/Synthesis/oscillator.h ****         - amp_ = 0.5
  48:/home/nahomts/Desktop/DaisyExamples/DaisySP/Source/Synthesis/oscillator.h ****         - waveform_ = sine wave.
  49:/home/nahomts/Desktop/DaisyExamples/DaisySP/Source/Synthesis/oscillator.h ****     */
  50:/home/nahomts/Desktop/DaisyExamples/DaisySP/Source/Synthesis/oscillator.h ****     void Init(float sample_rate)
  51:/home/nahomts/Desktop/DaisyExamples/DaisySP/Source/Synthesis/oscillator.h ****     {
  52:/home/nahomts/Desktop/DaisyExamples/DaisySP/Source/Synthesis/oscillator.h ****         sr_        = sample_rate;
  53:/home/nahomts/Desktop/DaisyExamples/DaisySP/Source/Synthesis/oscillator.h ****         sr_recip_  = 1.0f / sample_rate;
  54:/home/nahomts/Desktop/DaisyExamples/DaisySP/Source/Synthesis/oscillator.h ****         freq_      = 100.0f;
  55:/home/nahomts/Desktop/DaisyExamples/DaisySP/Source/Synthesis/oscillator.h ****         amp_       = 0.5f;
  56:/home/nahomts/Desktop/DaisyExamples/DaisySP/Source/Synthesis/oscillator.h ****         pw_        = 0.5f;
  57:/home/nahomts/Desktop/DaisyExamples/DaisySP/Source/Synthesis/oscillator.h ****         phase_     = 0.0f;
  58:/home/nahomts/Desktop/DaisyExamples/DaisySP/Source/Synthesis/oscillator.h ****         phase_inc_ = CalcPhaseInc(freq_);
  59:/home/nahomts/Desktop/DaisyExamples/DaisySP/Source/Synthesis/oscillator.h ****         waveform_  = WAVE_SIN;
  60:/home/nahomts/Desktop/DaisyExamples/DaisySP/Source/Synthesis/oscillator.h ****         eoc_       = true;
  61:/home/nahomts/Desktop/DaisyExamples/DaisySP/Source/Synthesis/oscillator.h ****         eor_       = true;
  62:/home/nahomts/Desktop/DaisyExamples/DaisySP/Source/Synthesis/oscillator.h ****     }
  63:/home/nahomts/Desktop/DaisyExamples/DaisySP/Source/Synthesis/oscillator.h **** 
  64:/home/nahomts/Desktop/DaisyExamples/DaisySP/Source/Synthesis/oscillator.h **** 
  65:/home/nahomts/Desktop/DaisyExamples/DaisySP/Source/Synthesis/oscillator.h ****     /** Changes the frequency of the Oscillator, and recalculates phase increment.
  66:/home/nahomts/Desktop/DaisyExamples/DaisySP/Source/Synthesis/oscillator.h ****     */
  67:/home/nahomts/Desktop/DaisyExamples/DaisySP/Source/Synthesis/oscillator.h ****     inline void SetFreq(const float f)
  68:/home/nahomts/Desktop/DaisyExamples/DaisySP/Source/Synthesis/oscillator.h ****     {
  69:/home/nahomts/Desktop/DaisyExamples/DaisySP/Source/Synthesis/oscillator.h ****         freq_      = f;
 658              		.loc 6 69 20 view .LVU176
 659 0060 254D     		ldr	r5, .L44+12
  70:/home/nahomts/Desktop/DaisyExamples/DaisySP/Source/Synthesis/oscillator.h ****         phase_inc_ = CalcPhaseInc(f);
 660              		.loc 6 70 34 view .LVU177
 661 0062 2846     		mov	r0, r5
 662              	.LBE137:
 663              	.LBE136:
  92:I2C.cpp       ****         osc.SetFreq(freq);
 664              		.loc 7 92 15 view .LVU178
 665 0064 A7EE270A 		vfma.f32	s0, s14, s15
 666              	.LVL43:
  93:I2C.cpp       ****         
 667              		.loc 7 93 9 is_stmt 1 view .LVU179
 668              	.LBB140:
 669              	.LBI136:
  67:/home/nahomts/Desktop/DaisyExamples/DaisySP/Source/Synthesis/oscillator.h ****     {
 670              		.loc 6 67 17 view .LVU180
 671              	.LBB138:
  69:/home/nahomts/Desktop/DaisyExamples/DaisySP/Source/Synthesis/oscillator.h ****         phase_inc_ = CalcPhaseInc(f);
 672              		.loc 6 69 9 view .LVU181
  69:/home/nahomts/Desktop/DaisyExamples/DaisySP/Source/Synthesis/oscillator.h ****         phase_inc_ = CalcPhaseInc(f);
 673              		.loc 6 69 20 is_stmt 0 view .LVU182
ARM GAS  /tmp/ccJku0Fb.s 			page 24


 674 0068 85ED020A 		vstr.32	s0, [r5, #8]
 675              		.loc 6 70 9 is_stmt 1 view .LVU183
 676              		.loc 6 70 34 is_stmt 0 view .LVU184
 677 006c FFF7FEFF 		bl	_ZN7daisysp10Oscillator12CalcPhaseIncEf
 678              	.LVL44:
 679              		.loc 6 70 34 view .LVU185
 680              	.LBE138:
 681              	.LBE140:
  96:I2C.cpp       **** 
 682              		.loc 7 96 45 view .LVU186
 683 0070 264B     		ldr	r3, .L44+32
  98:I2C.cpp       ****             osc.SetWaveform(Oscillator::WAVE_SIN);
 684              		.loc 7 98 9 view .LVU187
 685 0072 F5EE006A 		vmov.f32	s13, #2.5e-1
  96:I2C.cpp       **** 
 686              		.loc 7 96 45 view .LVU188
 687 0076 9FED267A 		vldr.32	s14, .L44+36
 688 007a D3ED007A 		vldr.32	s15, [r3]
 689              	.LBB141:
 690              	.LBB139:
 691              		.loc 6 70 20 view .LVU189
 692 007e 85ED070A 		vstr.32	s0, [r5, #28]
 693              	.LVL45:
 694              		.loc 6 70 20 view .LVU190
 695              	.LBE139:
 696              	.LBE141:
  96:I2C.cpp       **** 
 697              		.loc 7 96 9 is_stmt 1 view .LVU191
  96:I2C.cpp       **** 
 698              		.loc 7 96 45 is_stmt 0 view .LVU192
 699 0082 77EE877A 		vadd.f32	s15, s15, s14
  96:I2C.cpp       **** 
 700              		.loc 7 96 15 view .LVU193
 701 0086 87EE887A 		vdiv.f32	s14, s15, s16
 702              	.LVL46:
  98:I2C.cpp       ****             osc.SetWaveform(Oscillator::WAVE_SIN);
 703              		.loc 7 98 9 is_stmt 1 view .LVU194
 704 008a B4EEE67A 		vcmpe.f32	s14, s13
 705 008e F1EE10FA 		vmrs	APSR_nzcv, FPSCR
 706 0092 1CD4     		bmi	.L43
 100:I2C.cpp       ****             osc.SetWaveform(Oscillator::WAVE_TRI);
 707              		.loc 7 100 16 view .LVU195
 708 0094 F6EE007A 		vmov.f32	s15, #5.0e-1
 709 0098 B4EEE77A 		vcmpe.f32	s14, s15
 710 009c F1EE10FA 		vmrs	APSR_nzcv, FPSCR
 711 00a0 18D5     		bpl	.L39
 101:I2C.cpp       ****         } else if(roll_normalized < 0.75f) {
 712              		.loc 7 101 13 view .LVU196
 713              	.LVL47:
 714              	.LBB142:
 715              	.LBI142:
  71:/home/nahomts/Desktop/DaisyExamples/DaisySP/Source/Synthesis/oscillator.h ****     }
  72:/home/nahomts/Desktop/DaisyExamples/DaisySP/Source/Synthesis/oscillator.h **** 
  73:/home/nahomts/Desktop/DaisyExamples/DaisySP/Source/Synthesis/oscillator.h **** 
  74:/home/nahomts/Desktop/DaisyExamples/DaisySP/Source/Synthesis/oscillator.h ****     /** Sets the amplitude of the waveform.
  75:/home/nahomts/Desktop/DaisyExamples/DaisySP/Source/Synthesis/oscillator.h ****     */
  76:/home/nahomts/Desktop/DaisyExamples/DaisySP/Source/Synthesis/oscillator.h ****     inline void SetAmp(const float a) { amp_ = a; }
ARM GAS  /tmp/ccJku0Fb.s 			page 25


  77:/home/nahomts/Desktop/DaisyExamples/DaisySP/Source/Synthesis/oscillator.h ****     /** Sets the waveform to be synthesized by the Process() function.
  78:/home/nahomts/Desktop/DaisyExamples/DaisySP/Source/Synthesis/oscillator.h ****     */
  79:/home/nahomts/Desktop/DaisyExamples/DaisySP/Source/Synthesis/oscillator.h ****     inline void SetWaveform(const uint8_t wf)
 716              		.loc 6 79 17 view .LVU197
 717              	.LBB143:
  80:/home/nahomts/Desktop/DaisyExamples/DaisySP/Source/Synthesis/oscillator.h ****     {
  81:/home/nahomts/Desktop/DaisyExamples/DaisySP/Source/Synthesis/oscillator.h ****         waveform_ = wf < WAVE_LAST ? wf : WAVE_SIN;
 718              		.loc 6 81 9 view .LVU198
 719              		.loc 6 81 19 is_stmt 0 view .LVU199
 720 00a2 0123     		movs	r3, #1
 721 00a4 2B70     		strb	r3, [r5]
 722              	.LVL48:
 723              	.L24:
 724              		.loc 6 81 19 view .LVU200
 725              	.LBE143:
 726              	.LBE142:
 109:I2C.cpp       ****         float amplitude = 0.3f + pitch_normalized * 0.5f;
 727              		.loc 7 109 9 is_stmt 1 view .LVU201
 110:I2C.cpp       ****         osc.SetAmp(amplitude);
 728              		.loc 7 110 9 view .LVU202
 109:I2C.cpp       ****         float amplitude = 0.3f + pitch_normalized * 0.5f;
 729              		.loc 7 109 47 is_stmt 0 view .LVU203
 730 00a6 1B4B     		ldr	r3, .L44+40
 110:I2C.cpp       ****         osc.SetAmp(amplitude);
 731              		.loc 7 110 15 view .LVU204
 732 00a8 F6EE006A 		vmov.f32	s13, #5.0e-1
 109:I2C.cpp       ****         float amplitude = 0.3f + pitch_normalized * 0.5f;
 733              		.loc 7 109 47 view .LVU205
 734 00ac 9FED186A 		vldr.32	s12, .L44+36
 735 00b0 93ED007A 		vldr.32	s14, [r3]
 736              	.LVL49:
 109:I2C.cpp       ****         float amplitude = 0.3f + pitch_normalized * 0.5f;
 737              		.loc 7 109 15 view .LVU206
 738 00b4 DFED125A 		vldr.32	s11, .L44+20
 109:I2C.cpp       ****         float amplitude = 0.3f + pitch_normalized * 0.5f;
 739              		.loc 7 109 47 view .LVU207
 740 00b8 37EE067A 		vadd.f32	s14, s14, s12
 110:I2C.cpp       ****         osc.SetAmp(amplitude);
 741              		.loc 7 110 15 view .LVU208
 742 00bc DFED167A 		vldr.32	s15, .L44+44
 109:I2C.cpp       ****         float amplitude = 0.3f + pitch_normalized * 0.5f;
 743              		.loc 7 109 15 view .LVU209
 744 00c0 87EE256A 		vdiv.f32	s12, s14, s11
 745              	.LVL50:
 110:I2C.cpp       ****         osc.SetAmp(amplitude);
 746              		.loc 7 110 15 view .LVU210
 747 00c4 E6EE267A 		vfma.f32	s15, s12, s13
 748              	.LVL51:
 111:I2C.cpp       ****     }
 749              		.loc 7 111 9 is_stmt 1 view .LVU211
 750              	.LBB144:
 751              	.LBI144:
  76:/home/nahomts/Desktop/DaisyExamples/DaisySP/Source/Synthesis/oscillator.h ****     /** Sets the waveform to be synthesized by the Process() function.
 752              		.loc 6 76 17 view .LVU212
 753              	.LBB145:
  76:/home/nahomts/Desktop/DaisyExamples/DaisySP/Source/Synthesis/oscillator.h ****     /** Sets the waveform to be synthesized by the Process() function.
 754              		.loc 6 76 41 view .LVU213
ARM GAS  /tmp/ccJku0Fb.s 			page 26


  76:/home/nahomts/Desktop/DaisyExamples/DaisySP/Source/Synthesis/oscillator.h ****     /** Sets the waveform to be synthesized by the Process() function.
 755              		.loc 6 76 46 is_stmt 0 view .LVU214
 756 00c8 C5ED017A 		vstr.32	s15, [r5, #4]
  76:/home/nahomts/Desktop/DaisyExamples/DaisySP/Source/Synthesis/oscillator.h ****     /** Sets the waveform to be synthesized by the Process() function.
 757              		.loc 6 76 51 view .LVU215
 758 00cc A8E7     		b	.L21
 759              	.LVL52:
 760              	.L43:
  76:/home/nahomts/Desktop/DaisyExamples/DaisySP/Source/Synthesis/oscillator.h ****     /** Sets the waveform to be synthesized by the Process() function.
 761              		.loc 6 76 51 view .LVU216
 762              	.LBE145:
 763              	.LBE144:
  99:I2C.cpp       ****         } else if(roll_normalized < 0.5f) {
 764              		.loc 7 99 13 is_stmt 1 view .LVU217
 765              	.LBB146:
 766              	.LBI146:
  79:/home/nahomts/Desktop/DaisyExamples/DaisySP/Source/Synthesis/oscillator.h ****     {
 767              		.loc 6 79 17 view .LVU218
 768              	.LBB147:
 769              		.loc 6 81 9 view .LVU219
 770              		.loc 6 81 19 is_stmt 0 view .LVU220
 771 00ce 0023     		movs	r3, #0
 772 00d0 2B70     		strb	r3, [r5]
  82:/home/nahomts/Desktop/DaisyExamples/DaisySP/Source/Synthesis/oscillator.h ****     }
 773              		.loc 6 82 5 view .LVU221
 774 00d2 E8E7     		b	.L24
 775              	.LVL53:
 776              	.L39:
 777              		.loc 6 82 5 view .LVU222
 778              	.LBE147:
 779              	.LBE146:
 102:I2C.cpp       ****             osc.SetWaveform(Oscillator::WAVE_SAW);
 780              		.loc 7 102 16 is_stmt 1 view .LVU223
 781 00d4 F6EE087A 		vmov.f32	s15, #7.5e-1
 782 00d8 B4EEE77A 		vcmpe.f32	s14, s15
 783 00dc F1EE10FA 		vmrs	APSR_nzcv, FPSCR
 103:I2C.cpp       ****         } else {
 784              		.loc 7 103 13 view .LVU224
 785              	.LVL54:
 786              	.LBB148:
 787              	.LBI148:
  79:/home/nahomts/Desktop/DaisyExamples/DaisySP/Source/Synthesis/oscillator.h ****     {
 788              		.loc 6 79 17 view .LVU225
 789              	.LBB149:
  81:/home/nahomts/Desktop/DaisyExamples/DaisySP/Source/Synthesis/oscillator.h ****     }
 790              		.loc 6 81 9 view .LVU226
  81:/home/nahomts/Desktop/DaisyExamples/DaisySP/Source/Synthesis/oscillator.h ****     }
 791              		.loc 6 81 19 is_stmt 0 view .LVU227
 792 00e0 4CBF     		ite	mi
 793 00e2 0223     		movmi	r3, #2
 794              	.LBE149:
 795              	.LBE148:
 105:I2C.cpp       ****         }
 796              		.loc 7 105 13 is_stmt 1 view .LVU228
 797              	.LVL55:
 798              	.LBB150:
 799              	.LBI150:
ARM GAS  /tmp/ccJku0Fb.s 			page 27


  79:/home/nahomts/Desktop/DaisyExamples/DaisySP/Source/Synthesis/oscillator.h ****     {
 800              		.loc 6 79 17 view .LVU229
 801              	.LBB151:
  81:/home/nahomts/Desktop/DaisyExamples/DaisySP/Source/Synthesis/oscillator.h ****     }
 802              		.loc 6 81 9 view .LVU230
  81:/home/nahomts/Desktop/DaisyExamples/DaisySP/Source/Synthesis/oscillator.h ****     }
 803              		.loc 6 81 19 is_stmt 0 view .LVU231
 804 00e4 0423     		movpl	r3, #4
 805 00e6 2B70     		strb	r3, [r5]
 806              		.loc 6 82 5 view .LVU232
 807 00e8 DDE7     		b	.L24
 808              	.L45:
 809 00ea 00BF     		.align	2
 810              	.L44:
 811 00ec 00000000 		.word	.LANCHOR4
 812 00f0 63C92F96 		.word	-1775253149
 813 00f4 039D3600 		.word	3579139
 814 00f8 00000000 		.word	.LANCHOR5
 815 00fc 00000000 		.word	.LANCHOR1
 816 0100 0000B443 		.word	1135869952
 817 0104 0000E144 		.word	1155596288
 818 0108 00004843 		.word	1128792064
 819 010c 00000000 		.word	.LANCHOR2
 820 0110 00003443 		.word	1127481344
 821 0114 00000000 		.word	.LANCHOR3
 822 0118 9A99993E 		.word	1050253722
 823              	.LBE151:
 824              	.LBE150:
 825              	.LBE135:
 826              	.LBE155:
 827              		.cfi_endproc
 828              	.LFE4685:
 830              		.section	.text.startup.main,"ax",%progbits
 831              		.align	1
 832              		.p2align 2,,3
 833              		.global	main
 834              		.syntax unified
 835              		.thumb
 836              		.thumb_func
 837              		.fpu fpv5-d16
 839              	main:
 840              	.LFB4686:
 123:I2C.cpp       **** 
 124:I2C.cpp       **** int main(void)
 125:I2C.cpp       **** {
 841              		.loc 7 125 1 is_stmt 1 view -0
 842              		.cfi_startproc
 843              		@ args = 0, pretend = 0, frame = 24
 844              		@ frame_needed = 0, uses_anonymous_args = 0
 126:I2C.cpp       ****     hardware.Configure();
 845              		.loc 7 126 5 view .LVU234
 125:I2C.cpp       ****     hardware.Configure();
 846              		.loc 7 125 1 is_stmt 0 view .LVU235
 847 0000 70B5     		push	{r4, r5, r6, lr}
 848              		.cfi_def_cfa_offset 16
 849              		.cfi_offset 4, -16
 850              		.cfi_offset 5, -12
ARM GAS  /tmp/ccJku0Fb.s 			page 28


 851              		.cfi_offset 6, -8
 852              		.cfi_offset 14, -4
 853              		.loc 7 126 23 view .LVU236
 854 0002 2D48     		ldr	r0, .L51
 127:I2C.cpp       ****     hardware.Init();
 128:I2C.cpp       ****     hardware.SetAudioBlockSize(4);
 129:I2C.cpp       ****     
 130:I2C.cpp       ****     float samplerate = hardware.AudioSampleRate();
 131:I2C.cpp       ****     
 132:I2C.cpp       ****     // Configure I2C for BNO055
 133:I2C.cpp       ****     I2CHandle::Config i2c_conf;
 134:I2C.cpp       ****     i2c_conf.periph = I2CHandle::Config::Peripheral::I2C_1;
 135:I2C.cpp       ****     i2c_conf.mode   = I2CHandle::Config::Mode::I2C_MASTER;
 136:I2C.cpp       ****     i2c_conf.speed  = I2CHandle::Config::Speed::I2C_400KHZ;
 855              		.loc 7 136 21 view .LVU237
 856 0004 0125     		movs	r5, #1
 125:I2C.cpp       ****     hardware.Configure();
 857              		.loc 7 125 1 view .LVU238
 858 0006 2DED028B 		vpush.64	{d8}
 859              		.cfi_def_cfa_offset 24
 860              		.cfi_offset 80, -24
 861              		.cfi_offset 81, -20
 862 000a 86B0     		sub	sp, sp, #24
 863              		.cfi_def_cfa_offset 48
 126:I2C.cpp       ****     hardware.Init();
 864              		.loc 7 126 23 view .LVU239
 865 000c FFF7FEFF 		bl	_ZN5daisy9DaisySeed9ConfigureEv
 866              	.LVL56:
 127:I2C.cpp       ****     hardware.Init();
 867              		.loc 7 127 5 is_stmt 1 view .LVU240
 127:I2C.cpp       ****     hardware.Init();
 868              		.loc 7 127 18 is_stmt 0 view .LVU241
 869 0010 0021     		movs	r1, #0
 870 0012 2948     		ldr	r0, .L51
 871 0014 FFF7FEFF 		bl	_ZN5daisy9DaisySeed4InitEb
 872              	.LVL57:
 128:I2C.cpp       ****     
 873              		.loc 7 128 5 is_stmt 1 view .LVU242
 128:I2C.cpp       ****     
 874              		.loc 7 128 31 is_stmt 0 view .LVU243
 875 0018 0421     		movs	r1, #4
 876 001a 2748     		ldr	r0, .L51
 877 001c FFF7FEFF 		bl	_ZN5daisy9DaisySeed17SetAudioBlockSizeEj
 878              	.LVL58:
 130:I2C.cpp       ****     
 879              		.loc 7 130 5 is_stmt 1 view .LVU244
 130:I2C.cpp       ****     
 880              		.loc 7 130 48 is_stmt 0 view .LVU245
 881 0020 2548     		ldr	r0, .L51
 882 0022 FFF7FEFF 		bl	_ZN5daisy9DaisySeed15AudioSampleRateEv
 883              	.LVL59:
 137:I2C.cpp       ****     i2c_conf.pin_config.scl = seed::D11;
 884              		.loc 7 137 29 view .LVU246
 885 0026 254A     		ldr	r2, .L51+4
 886              	.LBB166:
 887              	.LBB167:
 888              		.file 8 "/home/nahomts/Desktop/DaisyExamples/libDaisy/src/per/i2c.h"
ARM GAS  /tmp/ccJku0Fb.s 			page 29


   1:/home/nahomts/Desktop/DaisyExamples/libDaisy/src/per/i2c.h **** #pragma once
   2:/home/nahomts/Desktop/DaisyExamples/libDaisy/src/per/i2c.h **** #include "daisy_core.h"
   3:/home/nahomts/Desktop/DaisyExamples/libDaisy/src/per/i2c.h **** 
   4:/home/nahomts/Desktop/DaisyExamples/libDaisy/src/per/i2c.h **** namespace daisy
   5:/home/nahomts/Desktop/DaisyExamples/libDaisy/src/per/i2c.h **** {
   6:/home/nahomts/Desktop/DaisyExamples/libDaisy/src/per/i2c.h **** /** A handle for interacting with an I2C peripheral. This is a dumb
   7:/home/nahomts/Desktop/DaisyExamples/libDaisy/src/per/i2c.h ****  *  gateway that internally points to one of the four I2C peripherals
   8:/home/nahomts/Desktop/DaisyExamples/libDaisy/src/per/i2c.h ****  *  after it was initialised. It can then be copied and passed around.
   9:/home/nahomts/Desktop/DaisyExamples/libDaisy/src/per/i2c.h ****  *  Use an I2CHandle like this:
  10:/home/nahomts/Desktop/DaisyExamples/libDaisy/src/per/i2c.h ****  *  
  11:/home/nahomts/Desktop/DaisyExamples/libDaisy/src/per/i2c.h ****  *      // setup the configuration
  12:/home/nahomts/Desktop/DaisyExamples/libDaisy/src/per/i2c.h ****  *      I2CHandle::Config i2c_conf;
  13:/home/nahomts/Desktop/DaisyExamples/libDaisy/src/per/i2c.h ****  *      i2c_conf.periph = I2CHandle::Config::Peripheral::I2C_1;
  14:/home/nahomts/Desktop/DaisyExamples/libDaisy/src/per/i2c.h ****  *      i2c_conf.speed  = I2CHandle::Config::Speed::I2C_400KHZ;
  15:/home/nahomts/Desktop/DaisyExamples/libDaisy/src/per/i2c.h ****  *      i2c_conf.mode   = I2CHandle::Config::Mode::Master;
  16:/home/nahomts/Desktop/DaisyExamples/libDaisy/src/per/i2c.h ****  *      i2c_conf.pin_config.scl  = {DSY_GPIOB, 8};
  17:/home/nahomts/Desktop/DaisyExamples/libDaisy/src/per/i2c.h ****  *      i2c_conf.pin_config.sda  = {DSY_GPIOB, 9};
  18:/home/nahomts/Desktop/DaisyExamples/libDaisy/src/per/i2c.h ****  *      // initialise the peripheral
  19:/home/nahomts/Desktop/DaisyExamples/libDaisy/src/per/i2c.h ****  *      I2CHandle i2c;
  20:/home/nahomts/Desktop/DaisyExamples/libDaisy/src/per/i2c.h ****  *      i2c.Init(i2c_conf);
  21:/home/nahomts/Desktop/DaisyExamples/libDaisy/src/per/i2c.h ****  *      // now i2c points to the corresponding peripheral and can be used.
  22:/home/nahomts/Desktop/DaisyExamples/libDaisy/src/per/i2c.h ****  *      i2c.TransmitBlocking( ... );
  23:/home/nahomts/Desktop/DaisyExamples/libDaisy/src/per/i2c.h ****  */
  24:/home/nahomts/Desktop/DaisyExamples/libDaisy/src/per/i2c.h **** class I2CHandle
  25:/home/nahomts/Desktop/DaisyExamples/libDaisy/src/per/i2c.h **** {
  26:/home/nahomts/Desktop/DaisyExamples/libDaisy/src/per/i2c.h ****   public:
  27:/home/nahomts/Desktop/DaisyExamples/libDaisy/src/per/i2c.h ****     /** Contains settings for initialising an I2C interface. */
  28:/home/nahomts/Desktop/DaisyExamples/libDaisy/src/per/i2c.h ****     struct Config
 889              		.loc 8 28 12 view .LVU247
 890 0028 1021     		movs	r1, #16
 891              	.LBE167:
 892              	.LBE166:
 134:I2C.cpp       ****     i2c_conf.mode   = I2CHandle::Config::Mode::I2C_MASTER;
 893              		.loc 7 134 21 view .LVU248
 894 002a 0023     		movs	r3, #0
 895              		.loc 7 137 29 view .LVU249
 896 002c 1488     		ldrh	r4, [r2]
 130:I2C.cpp       ****     
 897              		.loc 7 130 48 view .LVU250
 898 002e B0EE408A 		vmov.f32	s16, s0
 899              	.LVL60:
 133:I2C.cpp       ****     i2c_conf.periph = I2CHandle::Config::Peripheral::I2C_1;
 900              		.loc 7 133 5 is_stmt 1 view .LVU251
 901              	.LBB169:
 902              	.LBI166:
 903              		.loc 8 28 12 view .LVU252
 904              	.LBE169:
 138:I2C.cpp       ****     i2c_conf.pin_config.sda = seed::D12;
 905              		.loc 7 138 29 is_stmt 0 view .LVU253
 906 0032 9288     		ldrh	r2, [r2, #4]
 907              	.LBB170:
 908              	.LBB168:
 909              		.loc 8 28 12 view .LVU254
 910 0034 8DF81410 		strb	r1, [sp, #20]
 911              	.LVL61:
 912              		.loc 8 28 12 view .LVU255
 913              	.LBE168:
ARM GAS  /tmp/ccJku0Fb.s 			page 30


 914              	.LBE170:
 134:I2C.cpp       ****     i2c_conf.mode   = I2CHandle::Config::Mode::I2C_MASTER;
 915              		.loc 7 134 5 is_stmt 1 view .LVU256
 139:I2C.cpp       ****     
 140:I2C.cpp       ****     // Initialize I2C
 141:I2C.cpp       ****     if (i2c.Init(i2c_conf) != I2CHandle::Result::OK) {
 916              		.loc 7 141 17 is_stmt 0 view .LVU257
 917 0038 01A9     		add	r1, sp, #4
 918 003a 2148     		ldr	r0, .L51+8
 134:I2C.cpp       ****     i2c_conf.mode   = I2CHandle::Config::Mode::I2C_MASTER;
 919              		.loc 7 134 21 view .LVU258
 920 003c 0193     		str	r3, [sp, #4]
 135:I2C.cpp       ****     i2c_conf.speed  = I2CHandle::Config::Speed::I2C_400KHZ;
 921              		.loc 7 135 5 is_stmt 1 view .LVU259
 135:I2C.cpp       ****     i2c_conf.speed  = I2CHandle::Config::Speed::I2C_400KHZ;
 922              		.loc 7 135 21 is_stmt 0 view .LVU260
 923 003e 0493     		str	r3, [sp, #16]
 136:I2C.cpp       ****     i2c_conf.pin_config.scl = seed::D11;
 924              		.loc 7 136 5 is_stmt 1 view .LVU261
 136:I2C.cpp       ****     i2c_conf.pin_config.scl = seed::D11;
 925              		.loc 7 136 21 is_stmt 0 view .LVU262
 926 0040 0395     		str	r5, [sp, #12]
 137:I2C.cpp       ****     i2c_conf.pin_config.sda = seed::D12;
 927              		.loc 7 137 5 is_stmt 1 view .LVU263
 137:I2C.cpp       ****     i2c_conf.pin_config.sda = seed::D12;
 928              		.loc 7 137 29 is_stmt 0 view .LVU264
 929 0042 ADF80840 		strh	r4, [sp, #8]	@ movhi
 138:I2C.cpp       ****     
 930              		.loc 7 138 5 is_stmt 1 view .LVU265
 138:I2C.cpp       ****     
 931              		.loc 7 138 29 is_stmt 0 view .LVU266
 932 0046 ADF80A20 		strh	r2, [sp, #10]	@ movhi
 933              		.loc 7 141 5 is_stmt 1 view .LVU267
 934              		.loc 7 141 17 is_stmt 0 view .LVU268
 935 004a FFF7FEFF 		bl	_ZN5daisy9I2CHandle4InitERKNS0_6ConfigE
 936              	.LVL62:
 937              		.loc 7 141 5 view .LVU269
 938 004e 00B1     		cbz	r0, .L47
 939              	.L48:
 142:I2C.cpp       ****         // I2C initialization failed - handle error
 143:I2C.cpp       ****         while(1);
 940              		.loc 7 143 9 is_stmt 1 discriminator 1 view .LVU270
 941              		.loc 7 143 9 discriminator 1 view .LVU271
 942              		.loc 7 143 9 discriminator 1 view .LVU272
 943              		.loc 7 143 9 discriminator 1 view .LVU273
 944 0050 FEE7     		b	.L48
 945              	.L47:
 144:I2C.cpp       ****     }
 145:I2C.cpp       ****     
 146:I2C.cpp       ****     // Initialize BNO055
 147:I2C.cpp       ****     System::Delay(100); // Give sensor time to boot
 946              		.loc 7 147 5 view .LVU274
 947 0052 0546     		mov	r5, r0
 948              		.loc 7 147 18 is_stmt 0 view .LVU275
 949 0054 6420     		movs	r0, #100
 950 0056 FFF7FEFF 		bl	_ZN5daisy6System5DelayEm
 951              	.LVL63:
ARM GAS  /tmp/ccJku0Fb.s 			page 31


 148:I2C.cpp       ****     InitBNO055();
 952              		.loc 7 148 5 is_stmt 1 view .LVU276
 953              	.LBB171:
 954              	.LBB172:
  52:/home/nahomts/Desktop/DaisyExamples/DaisySP/Source/Synthesis/oscillator.h ****         sr_recip_  = 1.0f / sample_rate;
 955              		.loc 6 52 20 is_stmt 0 view .LVU277
 956 005a 1A4C     		ldr	r4, .L51+12
 957              	.LBE172:
 958              	.LBE171:
 959              		.loc 7 148 15 view .LVU278
 960 005c FFF7FEFF 		bl	_Z10InitBNO055v
 961              	.LVL64:
 149:I2C.cpp       ****     
 150:I2C.cpp       ****     // Set up oscillator with default values
 151:I2C.cpp       ****     osc.Init(samplerate);
 962              		.loc 7 151 5 is_stmt 1 view .LVU279
 963              	.LBB175:
 964              	.LBI171:
  50:/home/nahomts/Desktop/DaisyExamples/DaisySP/Source/Synthesis/oscillator.h ****     {
 965              		.loc 6 50 10 view .LVU280
 966              	.LBB173:
  52:/home/nahomts/Desktop/DaisyExamples/DaisySP/Source/Synthesis/oscillator.h ****         sr_recip_  = 1.0f / sample_rate;
 967              		.loc 6 52 9 view .LVU281
  53:/home/nahomts/Desktop/DaisyExamples/DaisySP/Source/Synthesis/oscillator.h ****         freq_      = 100.0f;
 968              		.loc 6 53 27 is_stmt 0 view .LVU282
 969 0060 B7EE007A 		vmov.f32	s14, #1.0e+0
  55:/home/nahomts/Desktop/DaisyExamples/DaisySP/Source/Synthesis/oscillator.h ****         pw_        = 0.5f;
 970              		.loc 6 55 20 view .LVU283
 971 0064 4FF07C56 		mov	r6, #1056964608
  57:/home/nahomts/Desktop/DaisyExamples/DaisySP/Source/Synthesis/oscillator.h ****         phase_inc_ = CalcPhaseInc(freq_);
 972              		.loc 6 57 20 view .LVU284
 973 0068 0023     		movs	r3, #0
  54:/home/nahomts/Desktop/DaisyExamples/DaisySP/Source/Synthesis/oscillator.h ****         amp_       = 0.5f;
 974              		.loc 6 54 20 view .LVU285
 975 006a 9FED170A 		vldr.32	s0, .L51+16
  58:/home/nahomts/Desktop/DaisyExamples/DaisySP/Source/Synthesis/oscillator.h ****         waveform_  = WAVE_SIN;
 976              		.loc 6 58 34 view .LVU286
 977 006e 2046     		mov	r0, r4
  53:/home/nahomts/Desktop/DaisyExamples/DaisySP/Source/Synthesis/oscillator.h ****         freq_      = 100.0f;
 978              		.loc 6 53 27 view .LVU287
 979 0070 C7EE087A 		vdiv.f32	s15, s14, s16
  57:/home/nahomts/Desktop/DaisyExamples/DaisySP/Source/Synthesis/oscillator.h ****         phase_inc_ = CalcPhaseInc(freq_);
 980              		.loc 6 57 20 view .LVU288
 981 0074 A361     		str	r3, [r4, #24]	@ float
  52:/home/nahomts/Desktop/DaisyExamples/DaisySP/Source/Synthesis/oscillator.h ****         sr_recip_  = 1.0f / sample_rate;
 982              		.loc 6 52 20 view .LVU289
 983 0076 84ED048A 		vstr.32	s16, [r4, #16]
  53:/home/nahomts/Desktop/DaisyExamples/DaisySP/Source/Synthesis/oscillator.h ****         freq_      = 100.0f;
 984              		.loc 6 53 9 is_stmt 1 view .LVU290
  54:/home/nahomts/Desktop/DaisyExamples/DaisySP/Source/Synthesis/oscillator.h ****         amp_       = 0.5f;
 985              		.loc 6 54 20 is_stmt 0 view .LVU291
 986 007a 84ED020A 		vstr.32	s0, [r4, #8]
  55:/home/nahomts/Desktop/DaisyExamples/DaisySP/Source/Synthesis/oscillator.h ****         pw_        = 0.5f;
 987              		.loc 6 55 20 view .LVU292
 988 007e 6660     		str	r6, [r4, #4]	@ float
  56:/home/nahomts/Desktop/DaisyExamples/DaisySP/Source/Synthesis/oscillator.h ****         phase_     = 0.0f;
 989              		.loc 6 56 20 view .LVU293
ARM GAS  /tmp/ccJku0Fb.s 			page 32


 990 0080 E660     		str	r6, [r4, #12]	@ float
  53:/home/nahomts/Desktop/DaisyExamples/DaisySP/Source/Synthesis/oscillator.h ****         freq_      = 100.0f;
 991              		.loc 6 53 20 view .LVU294
 992 0082 C4ED057A 		vstr.32	s15, [r4, #20]
  54:/home/nahomts/Desktop/DaisyExamples/DaisySP/Source/Synthesis/oscillator.h ****         amp_       = 0.5f;
 993              		.loc 6 54 9 is_stmt 1 view .LVU295
  55:/home/nahomts/Desktop/DaisyExamples/DaisySP/Source/Synthesis/oscillator.h ****         pw_        = 0.5f;
 994              		.loc 6 55 9 view .LVU296
  56:/home/nahomts/Desktop/DaisyExamples/DaisySP/Source/Synthesis/oscillator.h ****         phase_     = 0.0f;
 995              		.loc 6 56 9 view .LVU297
  57:/home/nahomts/Desktop/DaisyExamples/DaisySP/Source/Synthesis/oscillator.h ****         phase_inc_ = CalcPhaseInc(freq_);
 996              		.loc 6 57 9 view .LVU298
  58:/home/nahomts/Desktop/DaisyExamples/DaisySP/Source/Synthesis/oscillator.h ****         waveform_  = WAVE_SIN;
 997              		.loc 6 58 9 view .LVU299
  58:/home/nahomts/Desktop/DaisyExamples/DaisySP/Source/Synthesis/oscillator.h ****         waveform_  = WAVE_SIN;
 998              		.loc 6 58 34 is_stmt 0 view .LVU300
 999 0086 FFF7FEFF 		bl	_ZN7daisysp10Oscillator12CalcPhaseIncEf
 1000              	.LVL65:
  61:/home/nahomts/Desktop/DaisyExamples/DaisySP/Source/Synthesis/oscillator.h ****     }
 1001              		.loc 6 61 20 view .LVU301
 1002 008a 40F20113 		movw	r3, #257
  58:/home/nahomts/Desktop/DaisyExamples/DaisySP/Source/Synthesis/oscillator.h ****         waveform_  = WAVE_SIN;
 1003              		.loc 6 58 34 view .LVU302
 1004 008e F0EE407A 		vmov.f32	s15, s0
 1005              	.LBE173:
 1006              	.LBE175:
 1007              	.LBB176:
 1008              	.LBB177:
  69:/home/nahomts/Desktop/DaisyExamples/DaisySP/Source/Synthesis/oscillator.h ****         phase_inc_ = CalcPhaseInc(f);
 1009              		.loc 6 69 20 view .LVU303
 1010 0092 9FED0E0A 		vldr.32	s0, .L51+20
  70:/home/nahomts/Desktop/DaisyExamples/DaisySP/Source/Synthesis/oscillator.h ****     }
 1011              		.loc 6 70 34 view .LVU304
 1012 0096 2046     		mov	r0, r4
 1013              	.LBE177:
 1014              	.LBE176:
 1015              	.LBB180:
 1016              	.LBB174:
  61:/home/nahomts/Desktop/DaisyExamples/DaisySP/Source/Synthesis/oscillator.h ****     }
 1017              		.loc 6 61 20 view .LVU305
 1018 0098 2385     		strh	r3, [r4, #40]	@ movhi
  59:/home/nahomts/Desktop/DaisyExamples/DaisySP/Source/Synthesis/oscillator.h ****         eoc_       = true;
 1019              		.loc 6 59 20 view .LVU306
 1020 009a 2570     		strb	r5, [r4]
  58:/home/nahomts/Desktop/DaisyExamples/DaisySP/Source/Synthesis/oscillator.h ****         waveform_  = WAVE_SIN;
 1021              		.loc 6 58 20 view .LVU307
 1022 009c C4ED077A 		vstr.32	s15, [r4, #28]
  59:/home/nahomts/Desktop/DaisyExamples/DaisySP/Source/Synthesis/oscillator.h ****         eoc_       = true;
 1023              		.loc 6 59 9 is_stmt 1 view .LVU308
  60:/home/nahomts/Desktop/DaisyExamples/DaisySP/Source/Synthesis/oscillator.h ****         eor_       = true;
 1024              		.loc 6 60 9 view .LVU309
  61:/home/nahomts/Desktop/DaisyExamples/DaisySP/Source/Synthesis/oscillator.h ****     }
 1025              		.loc 6 61 9 view .LVU310
 1026              	.LVL66:
  61:/home/nahomts/Desktop/DaisyExamples/DaisySP/Source/Synthesis/oscillator.h ****     }
 1027              		.loc 6 61 9 is_stmt 0 view .LVU311
 1028              	.LBE174:
ARM GAS  /tmp/ccJku0Fb.s 			page 33


 1029              	.LBE180:
 152:I2C.cpp       ****     osc.SetWaveform(Oscillator::WAVE_SIN);
 1030              		.loc 7 152 5 is_stmt 1 view .LVU312
  81:/home/nahomts/Desktop/DaisyExamples/DaisySP/Source/Synthesis/oscillator.h ****     }
 1031              		.loc 6 81 9 view .LVU313
 153:I2C.cpp       ****     osc.SetAmp(0.5f);
 1032              		.loc 7 153 5 view .LVU314
 1033              	.LBB181:
 1034              	.LBI181:
  76:/home/nahomts/Desktop/DaisyExamples/DaisySP/Source/Synthesis/oscillator.h ****     /** Sets the waveform to be synthesized by the Process() function.
 1035              		.loc 6 76 17 view .LVU315
 1036              	.LBB182:
  76:/home/nahomts/Desktop/DaisyExamples/DaisySP/Source/Synthesis/oscillator.h ****     /** Sets the waveform to be synthesized by the Process() function.
 1037              		.loc 6 76 41 view .LVU316
  76:/home/nahomts/Desktop/DaisyExamples/DaisySP/Source/Synthesis/oscillator.h ****     /** Sets the waveform to be synthesized by the Process() function.
 1038              		.loc 6 76 46 is_stmt 0 view .LVU317
 1039 00a0 6660     		str	r6, [r4, #4]	@ float
 1040              	.LVL67:
  76:/home/nahomts/Desktop/DaisyExamples/DaisySP/Source/Synthesis/oscillator.h ****     /** Sets the waveform to be synthesized by the Process() function.
 1041              		.loc 6 76 46 view .LVU318
 1042              	.LBE182:
 1043              	.LBE181:
 154:I2C.cpp       ****     osc.SetFreq(440.0f);
 1044              		.loc 7 154 5 is_stmt 1 view .LVU319
 1045              	.LBB183:
 1046              	.LBI176:
  67:/home/nahomts/Desktop/DaisyExamples/DaisySP/Source/Synthesis/oscillator.h ****     {
 1047              		.loc 6 67 17 view .LVU320
 1048              	.LBB178:
  69:/home/nahomts/Desktop/DaisyExamples/DaisySP/Source/Synthesis/oscillator.h ****         phase_inc_ = CalcPhaseInc(f);
 1049              		.loc 6 69 9 view .LVU321
  69:/home/nahomts/Desktop/DaisyExamples/DaisySP/Source/Synthesis/oscillator.h ****         phase_inc_ = CalcPhaseInc(f);
 1050              		.loc 6 69 20 is_stmt 0 view .LVU322
 1051 00a2 84ED020A 		vstr.32	s0, [r4, #8]
  70:/home/nahomts/Desktop/DaisyExamples/DaisySP/Source/Synthesis/oscillator.h ****     }
 1052              		.loc 6 70 9 is_stmt 1 view .LVU323
  70:/home/nahomts/Desktop/DaisyExamples/DaisySP/Source/Synthesis/oscillator.h ****     }
 1053              		.loc 6 70 34 is_stmt 0 view .LVU324
 1054 00a6 FFF7FEFF 		bl	_ZN7daisysp10Oscillator12CalcPhaseIncEf
 1055              	.LVL68:
 1056              	.LBE178:
 1057              	.LBE183:
 155:I2C.cpp       ****     
 156:I2C.cpp       ****     hardware.StartAudio(AudioCallback);
 1058              		.loc 7 156 24 view .LVU325
 1059 00aa 0949     		ldr	r1, .L51+24
 1060 00ac 0248     		ldr	r0, .L51
 1061              	.LBB184:
 1062              	.LBB179:
  70:/home/nahomts/Desktop/DaisyExamples/DaisySP/Source/Synthesis/oscillator.h ****     }
 1063              		.loc 6 70 20 view .LVU326
 1064 00ae 84ED070A 		vstr.32	s0, [r4, #28]
 1065              	.LVL69:
  70:/home/nahomts/Desktop/DaisyExamples/DaisySP/Source/Synthesis/oscillator.h ****     }
 1066              		.loc 6 70 20 view .LVU327
 1067              	.LBE179:
 1068              	.LBE184:
ARM GAS  /tmp/ccJku0Fb.s 			page 34


 1069              		.loc 7 156 5 is_stmt 1 view .LVU328
 1070              		.loc 7 156 24 is_stmt 0 view .LVU329
 1071 00b2 FFF7FEFF 		bl	_ZN5daisy9DaisySeed10StartAudioEPFvPKfPfjE
 1072              	.LVL70:
 1073              	.L49:
 157:I2C.cpp       ****     
 158:I2C.cpp       ****     for(;;) {}
 1074              		.loc 7 158 5 is_stmt 1 discriminator 2 view .LVU330
 1075              		.loc 7 158 5 discriminator 2 view .LVU331
 1076              		.loc 7 158 5 discriminator 2 view .LVU332
 1077              		.loc 7 158 5 discriminator 2 view .LVU333
 1078 00b6 FEE7     		b	.L49
 1079              	.L52:
 1080              		.align	2
 1081              	.L51:
 1082 00b8 00000000 		.word	.LANCHOR6
 1083 00bc 00000000 		.word	.LANCHOR7
 1084 00c0 00000000 		.word	.LANCHOR0
 1085 00c4 00000000 		.word	.LANCHOR5
 1086 00c8 0000C842 		.word	1120403456
 1087 00cc 0000DC43 		.word	1138491392
 1088 00d0 00000000 		.word	_Z13AudioCallbackPKfPfj
 1089              		.cfi_endproc
 1090              	.LFE4686:
 1092              		.section	.text.startup._GLOBAL__sub_I_hardware,"ax",%progbits
 1093              		.align	1
 1094              		.p2align 2,,3
 1095              		.syntax unified
 1096              		.thumb
 1097              		.thumb_func
 1098              		.fpu fpv5-d16
 1100              	_GLOBAL__sub_I_hardware:
 1101              	.LFB5249:
 159:I2C.cpp       **** }...
 1102              		.loc 7 159 1 view -0
 1103              		.cfi_startproc
 1104              		@ args = 0, pretend = 0, frame = 0
 1105              		@ frame_needed = 0, uses_anonymous_args = 0
 1106              	.LBB211:
 1107              	.LBI211:
 1108              		.loc 7 159 1 view .LVU335
 1109              	.LVL71:
 1110              	.LBB212:
 1111              	.LBB213:
 1112              	.LBI213:
  21:/home/nahomts/Desktop/DaisyExamples/libDaisy/src/daisy_seed.h ****     ~DaisySeed() {}
 1113              		.loc 1 21 5 view .LVU336
 1114              	.LBB214:
 1115              	.LBB215:
 1116              	.LBI215:
 1117              		.file 9 "/home/nahomts/Desktop/DaisyExamples/libDaisy/src/per/qspi.h"
   1:/home/nahomts/Desktop/DaisyExamples/libDaisy/src/per/qspi.h **** #ifndef DSY_QSPI
   2:/home/nahomts/Desktop/DaisyExamples/libDaisy/src/per/qspi.h **** #define DSY_QSPI /**< Macro */
   3:/home/nahomts/Desktop/DaisyExamples/libDaisy/src/per/qspi.h **** 
   4:/home/nahomts/Desktop/DaisyExamples/libDaisy/src/per/qspi.h **** #ifndef UNIT_TEST // for unit tests, a dummy implementation
   5:/home/nahomts/Desktop/DaisyExamples/libDaisy/src/per/qspi.h **** 
   6:/home/nahomts/Desktop/DaisyExamples/libDaisy/src/per/qspi.h **** #include <cstdint>
ARM GAS  /tmp/ccJku0Fb.s 			page 35


   7:/home/nahomts/Desktop/DaisyExamples/libDaisy/src/per/qspi.h **** #include "daisy_core.h" // Added for dsy_gpio_pin typedef
   8:/home/nahomts/Desktop/DaisyExamples/libDaisy/src/per/qspi.h **** 
   9:/home/nahomts/Desktop/DaisyExamples/libDaisy/src/per/qspi.h **** #define DSY_QSPI_TEXT       \
  10:/home/nahomts/Desktop/DaisyExamples/libDaisy/src/per/qspi.h ****     __attribute__((section( \
  11:/home/nahomts/Desktop/DaisyExamples/libDaisy/src/per/qspi.h ****         ".qspiflash_text"))) /**< used for reading memory in memory_mapped mode. */
  12:/home/nahomts/Desktop/DaisyExamples/libDaisy/src/per/qspi.h **** #define DSY_QSPI_DATA       \
  13:/home/nahomts/Desktop/DaisyExamples/libDaisy/src/per/qspi.h ****     __attribute__((section( \
  14:/home/nahomts/Desktop/DaisyExamples/libDaisy/src/per/qspi.h ****         ".qspiflash_data"))) /**< used for reading memory in memory_mapped mode. */
  15:/home/nahomts/Desktop/DaisyExamples/libDaisy/src/per/qspi.h **** #define DSY_QSPI_BSS        \
  16:/home/nahomts/Desktop/DaisyExamples/libDaisy/src/per/qspi.h ****     __attribute__((section( \
  17:/home/nahomts/Desktop/DaisyExamples/libDaisy/src/per/qspi.h ****         ".qspiflash_bss"))) /**< used for reading memory in memory_mapped mode. */
  18:/home/nahomts/Desktop/DaisyExamples/libDaisy/src/per/qspi.h **** 
  19:/home/nahomts/Desktop/DaisyExamples/libDaisy/src/per/qspi.h **** namespace daisy
  20:/home/nahomts/Desktop/DaisyExamples/libDaisy/src/per/qspi.h **** {
  21:/home/nahomts/Desktop/DaisyExamples/libDaisy/src/per/qspi.h **** /** @addtogroup serial
  22:/home/nahomts/Desktop/DaisyExamples/libDaisy/src/per/qspi.h **** @{
  23:/home/nahomts/Desktop/DaisyExamples/libDaisy/src/per/qspi.h **** */
  24:/home/nahomts/Desktop/DaisyExamples/libDaisy/src/per/qspi.h **** 
  25:/home/nahomts/Desktop/DaisyExamples/libDaisy/src/per/qspi.h **** /** 
  26:/home/nahomts/Desktop/DaisyExamples/libDaisy/src/per/qspi.h ****  Driver for QSPI peripheral to interface with external flash memory. \n 
  27:/home/nahomts/Desktop/DaisyExamples/libDaisy/src/per/qspi.h ****     Currently supported QSPI Devices: \n 
  28:/home/nahomts/Desktop/DaisyExamples/libDaisy/src/per/qspi.h ****     * IS25LP080D
  29:/home/nahomts/Desktop/DaisyExamples/libDaisy/src/per/qspi.h **** */
  30:/home/nahomts/Desktop/DaisyExamples/libDaisy/src/per/qspi.h **** class QSPIHandle
  31:/home/nahomts/Desktop/DaisyExamples/libDaisy/src/per/qspi.h **** {
  32:/home/nahomts/Desktop/DaisyExamples/libDaisy/src/per/qspi.h ****   public:
  33:/home/nahomts/Desktop/DaisyExamples/libDaisy/src/per/qspi.h ****     enum Result
  34:/home/nahomts/Desktop/DaisyExamples/libDaisy/src/per/qspi.h ****     {
  35:/home/nahomts/Desktop/DaisyExamples/libDaisy/src/per/qspi.h ****         OK = 0,
  36:/home/nahomts/Desktop/DaisyExamples/libDaisy/src/per/qspi.h ****         ERR
  37:/home/nahomts/Desktop/DaisyExamples/libDaisy/src/per/qspi.h ****     };
  38:/home/nahomts/Desktop/DaisyExamples/libDaisy/src/per/qspi.h **** 
  39:/home/nahomts/Desktop/DaisyExamples/libDaisy/src/per/qspi.h ****     /** Indicates the current status of the module. 
  40:/home/nahomts/Desktop/DaisyExamples/libDaisy/src/per/qspi.h ****          *  Warnings are indicated by a leading W.
  41:/home/nahomts/Desktop/DaisyExamples/libDaisy/src/per/qspi.h ****          *  Errors are indicated by a leading E and cause an immediate exit.
  42:/home/nahomts/Desktop/DaisyExamples/libDaisy/src/per/qspi.h ****          * 
  43:/home/nahomts/Desktop/DaisyExamples/libDaisy/src/per/qspi.h ****          *  \param GOOD - No errors have been reported.
  44:/home/nahomts/Desktop/DaisyExamples/libDaisy/src/per/qspi.h ****          *  \param E_HAL_ERROR - HAL code did not return HAL_OK.
  45:/home/nahomts/Desktop/DaisyExamples/libDaisy/src/per/qspi.h ****          *  \param E_SWITCHING_MODES - An error was encountered while switching QSPI peripheral mod
  46:/home/nahomts/Desktop/DaisyExamples/libDaisy/src/per/qspi.h ****          *  \param E_INVALID_MODE - QSPI should not be written to while the program is executing fr
  47:/home/nahomts/Desktop/DaisyExamples/libDaisy/src/per/qspi.h ****          */
  48:/home/nahomts/Desktop/DaisyExamples/libDaisy/src/per/qspi.h ****     enum Status
  49:/home/nahomts/Desktop/DaisyExamples/libDaisy/src/per/qspi.h ****     {
  50:/home/nahomts/Desktop/DaisyExamples/libDaisy/src/per/qspi.h ****         GOOD = 0,
  51:/home/nahomts/Desktop/DaisyExamples/libDaisy/src/per/qspi.h ****         E_HAL_ERROR,
  52:/home/nahomts/Desktop/DaisyExamples/libDaisy/src/per/qspi.h ****         E_SWITCHING_MODES,
  53:/home/nahomts/Desktop/DaisyExamples/libDaisy/src/per/qspi.h ****         E_INVALID_MODE,
  54:/home/nahomts/Desktop/DaisyExamples/libDaisy/src/per/qspi.h ****     };
  55:/home/nahomts/Desktop/DaisyExamples/libDaisy/src/per/qspi.h **** 
  56:/home/nahomts/Desktop/DaisyExamples/libDaisy/src/per/qspi.h ****     /** Configuration structure for interfacing with QSPI Driver */
  57:/home/nahomts/Desktop/DaisyExamples/libDaisy/src/per/qspi.h ****     struct Config
  58:/home/nahomts/Desktop/DaisyExamples/libDaisy/src/per/qspi.h ****     {
  59:/home/nahomts/Desktop/DaisyExamples/libDaisy/src/per/qspi.h ****         /** Flash Devices supported. (Both of these are more-or-less the same, just different sizes
  60:/home/nahomts/Desktop/DaisyExamples/libDaisy/src/per/qspi.h ****         enum Device
  61:/home/nahomts/Desktop/DaisyExamples/libDaisy/src/per/qspi.h ****         {
  62:/home/nahomts/Desktop/DaisyExamples/libDaisy/src/per/qspi.h ****             IS25LP080D,  /**< & */
  63:/home/nahomts/Desktop/DaisyExamples/libDaisy/src/per/qspi.h ****             IS25LP064A,  /**< & */
ARM GAS  /tmp/ccJku0Fb.s 			page 36


  64:/home/nahomts/Desktop/DaisyExamples/libDaisy/src/per/qspi.h ****             DEVICE_LAST, /**< & */
  65:/home/nahomts/Desktop/DaisyExamples/libDaisy/src/per/qspi.h ****         };
  66:/home/nahomts/Desktop/DaisyExamples/libDaisy/src/per/qspi.h **** 
  67:/home/nahomts/Desktop/DaisyExamples/libDaisy/src/per/qspi.h ****         /** 
  68:/home/nahomts/Desktop/DaisyExamples/libDaisy/src/per/qspi.h ****         Modes of operation.
  69:/home/nahomts/Desktop/DaisyExamples/libDaisy/src/per/qspi.h ****         Memory Mapped mode: QSPI configured so that the QSPI can be
  70:/home/nahomts/Desktop/DaisyExamples/libDaisy/src/per/qspi.h ****         read from starting address 0x90000000. Writing is not
  71:/home/nahomts/Desktop/DaisyExamples/libDaisy/src/per/qspi.h ****         possible in this mode. \n 
  72:/home/nahomts/Desktop/DaisyExamples/libDaisy/src/per/qspi.h ****         Indirect Polling mode: Device driver enabled. 
  73:/home/nahomts/Desktop/DaisyExamples/libDaisy/src/per/qspi.h ****         */
  74:/home/nahomts/Desktop/DaisyExamples/libDaisy/src/per/qspi.h ****         enum Mode
  75:/home/nahomts/Desktop/DaisyExamples/libDaisy/src/per/qspi.h ****         {
  76:/home/nahomts/Desktop/DaisyExamples/libDaisy/src/per/qspi.h ****             MEMORY_MAPPED,    /**< & */
  77:/home/nahomts/Desktop/DaisyExamples/libDaisy/src/per/qspi.h ****             INDIRECT_POLLING, /**< & */
  78:/home/nahomts/Desktop/DaisyExamples/libDaisy/src/per/qspi.h ****             MODE_LAST,
  79:/home/nahomts/Desktop/DaisyExamples/libDaisy/src/per/qspi.h ****         };
  80:/home/nahomts/Desktop/DaisyExamples/libDaisy/src/per/qspi.h **** 
  81:/home/nahomts/Desktop/DaisyExamples/libDaisy/src/per/qspi.h ****         //SCK,  CE# (active low)
  82:/home/nahomts/Desktop/DaisyExamples/libDaisy/src/per/qspi.h ****         struct
  83:/home/nahomts/Desktop/DaisyExamples/libDaisy/src/per/qspi.h ****         {
  84:/home/nahomts/Desktop/DaisyExamples/libDaisy/src/per/qspi.h ****             dsy_gpio_pin io0; /**< & */
  85:/home/nahomts/Desktop/DaisyExamples/libDaisy/src/per/qspi.h ****             dsy_gpio_pin io1; /**< & */
  86:/home/nahomts/Desktop/DaisyExamples/libDaisy/src/per/qspi.h ****             dsy_gpio_pin io2; /**< & */
  87:/home/nahomts/Desktop/DaisyExamples/libDaisy/src/per/qspi.h ****             dsy_gpio_pin io3; /**< & */
  88:/home/nahomts/Desktop/DaisyExamples/libDaisy/src/per/qspi.h ****             dsy_gpio_pin clk; /**< & */
  89:/home/nahomts/Desktop/DaisyExamples/libDaisy/src/per/qspi.h ****             dsy_gpio_pin ncs; /**< & */
  90:/home/nahomts/Desktop/DaisyExamples/libDaisy/src/per/qspi.h ****         } pin_config;
  91:/home/nahomts/Desktop/DaisyExamples/libDaisy/src/per/qspi.h **** 
  92:/home/nahomts/Desktop/DaisyExamples/libDaisy/src/per/qspi.h ****         Device device;
  93:/home/nahomts/Desktop/DaisyExamples/libDaisy/src/per/qspi.h ****         Mode   mode;
  94:/home/nahomts/Desktop/DaisyExamples/libDaisy/src/per/qspi.h ****     };
  95:/home/nahomts/Desktop/DaisyExamples/libDaisy/src/per/qspi.h **** 
  96:/home/nahomts/Desktop/DaisyExamples/libDaisy/src/per/qspi.h ****     /** 
  97:/home/nahomts/Desktop/DaisyExamples/libDaisy/src/per/qspi.h ****         Initializes QSPI peripheral, and Resets, and prepares memory for access.
  98:/home/nahomts/Desktop/DaisyExamples/libDaisy/src/per/qspi.h ****         \param config should be populated with the mode, device and pin_config before calling this 
  99:/home/nahomts/Desktop/DaisyExamples/libDaisy/src/per/qspi.h ****         \return Result::OK or Result::ERR
 100:/home/nahomts/Desktop/DaisyExamples/libDaisy/src/per/qspi.h ****         */
 101:/home/nahomts/Desktop/DaisyExamples/libDaisy/src/per/qspi.h ****     Result Init(const Config& config);
 102:/home/nahomts/Desktop/DaisyExamples/libDaisy/src/per/qspi.h **** 
 103:/home/nahomts/Desktop/DaisyExamples/libDaisy/src/per/qspi.h ****     /** Returns the current config. */
 104:/home/nahomts/Desktop/DaisyExamples/libDaisy/src/per/qspi.h ****     const Config& GetConfig() const;
 105:/home/nahomts/Desktop/DaisyExamples/libDaisy/src/per/qspi.h **** 
 106:/home/nahomts/Desktop/DaisyExamples/libDaisy/src/per/qspi.h ****     // Couldn't this just be called before anything else in init? That
 107:/home/nahomts/Desktop/DaisyExamples/libDaisy/src/per/qspi.h ****     // would make manually calling it unnecessary.
 108:/home/nahomts/Desktop/DaisyExamples/libDaisy/src/per/qspi.h ****     /** 
 109:/home/nahomts/Desktop/DaisyExamples/libDaisy/src/per/qspi.h ****         Deinitializes the peripheral
 110:/home/nahomts/Desktop/DaisyExamples/libDaisy/src/per/qspi.h ****         This should be called before reinitializing QSPI in a different mode.
 111:/home/nahomts/Desktop/DaisyExamples/libDaisy/src/per/qspi.h ****         \return Result::OK or Result::ERR
 112:/home/nahomts/Desktop/DaisyExamples/libDaisy/src/per/qspi.h ****         */
 113:/home/nahomts/Desktop/DaisyExamples/libDaisy/src/per/qspi.h ****     Result DeInit();
 114:/home/nahomts/Desktop/DaisyExamples/libDaisy/src/per/qspi.h **** 
 115:/home/nahomts/Desktop/DaisyExamples/libDaisy/src/per/qspi.h ****     /** 
 116:/home/nahomts/Desktop/DaisyExamples/libDaisy/src/per/qspi.h ****         Writes a single page to to the specified address on the QSPI chip.
 117:/home/nahomts/Desktop/DaisyExamples/libDaisy/src/per/qspi.h ****         For IS25LP*, page size is 256 bytes.
 118:/home/nahomts/Desktop/DaisyExamples/libDaisy/src/per/qspi.h ****         \param address Address to write to
 119:/home/nahomts/Desktop/DaisyExamples/libDaisy/src/per/qspi.h ****         \param size Buffer size
 120:/home/nahomts/Desktop/DaisyExamples/libDaisy/src/per/qspi.h ****         \param buffer Buffer to write
ARM GAS  /tmp/ccJku0Fb.s 			page 37


 121:/home/nahomts/Desktop/DaisyExamples/libDaisy/src/per/qspi.h ****         \return Result::OK or Result::ERR
 122:/home/nahomts/Desktop/DaisyExamples/libDaisy/src/per/qspi.h ****         */
 123:/home/nahomts/Desktop/DaisyExamples/libDaisy/src/per/qspi.h ****     Result WritePage(uint32_t address, uint32_t size, uint8_t* buffer);
 124:/home/nahomts/Desktop/DaisyExamples/libDaisy/src/per/qspi.h **** 
 125:/home/nahomts/Desktop/DaisyExamples/libDaisy/src/per/qspi.h ****     /** 
 126:/home/nahomts/Desktop/DaisyExamples/libDaisy/src/per/qspi.h ****         Writes data in buffer to to the QSPI. Starting at address to address+size 
 127:/home/nahomts/Desktop/DaisyExamples/libDaisy/src/per/qspi.h ****         \param address Address to write to
 128:/home/nahomts/Desktop/DaisyExamples/libDaisy/src/per/qspi.h ****         \param size Buffer size
 129:/home/nahomts/Desktop/DaisyExamples/libDaisy/src/per/qspi.h ****         \param buffer Buffer to write
 130:/home/nahomts/Desktop/DaisyExamples/libDaisy/src/per/qspi.h ****         \return Result::OK or Result::ERR
 131:/home/nahomts/Desktop/DaisyExamples/libDaisy/src/per/qspi.h ****         */
 132:/home/nahomts/Desktop/DaisyExamples/libDaisy/src/per/qspi.h ****     Result Write(uint32_t address, uint32_t size, uint8_t* buffer);
 133:/home/nahomts/Desktop/DaisyExamples/libDaisy/src/per/qspi.h **** 
 134:/home/nahomts/Desktop/DaisyExamples/libDaisy/src/per/qspi.h ****     /** 
 135:/home/nahomts/Desktop/DaisyExamples/libDaisy/src/per/qspi.h ****         Erases the area specified on the chip.
 136:/home/nahomts/Desktop/DaisyExamples/libDaisy/src/per/qspi.h ****         Erasures will happen by 4K, 32K or 64K increments.
 137:/home/nahomts/Desktop/DaisyExamples/libDaisy/src/per/qspi.h ****         Smallest erase possible is 4kB at a time. (on IS25LP*)
 138:/home/nahomts/Desktop/DaisyExamples/libDaisy/src/per/qspi.h ****         \param start_addr Address to begin erasing from
 139:/home/nahomts/Desktop/DaisyExamples/libDaisy/src/per/qspi.h ****         \param end_addr  Address to stop erasing at
 140:/home/nahomts/Desktop/DaisyExamples/libDaisy/src/per/qspi.h ****         \return Result::OK or Result::ERR
 141:/home/nahomts/Desktop/DaisyExamples/libDaisy/src/per/qspi.h ****         */
 142:/home/nahomts/Desktop/DaisyExamples/libDaisy/src/per/qspi.h ****     Result Erase(uint32_t start_addr, uint32_t end_addr);
 143:/home/nahomts/Desktop/DaisyExamples/libDaisy/src/per/qspi.h **** 
 144:/home/nahomts/Desktop/DaisyExamples/libDaisy/src/per/qspi.h ****     /**  
 145:/home/nahomts/Desktop/DaisyExamples/libDaisy/src/per/qspi.h ****          Erases a single sector of the chip.  
 146:/home/nahomts/Desktop/DaisyExamples/libDaisy/src/per/qspi.h ****         TODO: Document the size of this function. 
 147:/home/nahomts/Desktop/DaisyExamples/libDaisy/src/per/qspi.h ****         \param address Address of sector to erase
 148:/home/nahomts/Desktop/DaisyExamples/libDaisy/src/per/qspi.h ****         \return Result::OK or Result::ERR
 149:/home/nahomts/Desktop/DaisyExamples/libDaisy/src/per/qspi.h ****         */
 150:/home/nahomts/Desktop/DaisyExamples/libDaisy/src/per/qspi.h ****     Result EraseSector(uint32_t address);
 151:/home/nahomts/Desktop/DaisyExamples/libDaisy/src/per/qspi.h **** 
 152:/home/nahomts/Desktop/DaisyExamples/libDaisy/src/per/qspi.h ****     /** Returns the current class status. Useful for debugging.
 153:/home/nahomts/Desktop/DaisyExamples/libDaisy/src/per/qspi.h ****      *  \returns Status
 154:/home/nahomts/Desktop/DaisyExamples/libDaisy/src/per/qspi.h ****      */
 155:/home/nahomts/Desktop/DaisyExamples/libDaisy/src/per/qspi.h ****     Status GetStatus();
 156:/home/nahomts/Desktop/DaisyExamples/libDaisy/src/per/qspi.h **** 
 157:/home/nahomts/Desktop/DaisyExamples/libDaisy/src/per/qspi.h ****     /** Returns a pointer to the actual memory used 
 158:/home/nahomts/Desktop/DaisyExamples/libDaisy/src/per/qspi.h ****      *  The memory at this address is read-only
 159:/home/nahomts/Desktop/DaisyExamples/libDaisy/src/per/qspi.h ****      *  to write to it use the Write function.
 160:/home/nahomts/Desktop/DaisyExamples/libDaisy/src/per/qspi.h ****      * 
 161:/home/nahomts/Desktop/DaisyExamples/libDaisy/src/per/qspi.h ****      *  \param offset returns the pointer starting this 
 162:/home/nahomts/Desktop/DaisyExamples/libDaisy/src/per/qspi.h ****      *                many bytes into the memory
 163:/home/nahomts/Desktop/DaisyExamples/libDaisy/src/per/qspi.h ****     */
 164:/home/nahomts/Desktop/DaisyExamples/libDaisy/src/per/qspi.h ****     void* GetData(uint32_t offset = 0);
 165:/home/nahomts/Desktop/DaisyExamples/libDaisy/src/per/qspi.h **** 
 166:/home/nahomts/Desktop/DaisyExamples/libDaisy/src/per/qspi.h ****     QSPIHandle() : pimpl_(nullptr) {}
 1118              		.loc 9 166 5 view .LVU337
 1119              	.LBE215:
 1120              	.LBE214:
 1121              	.LBE213:
 1122              	.LBE212:
 1123              	.LBE211:
 1124              		.loc 7 159 1 is_stmt 0 view .LVU338
 1125 0000 10B5     		push	{r4, lr}
 1126              		.cfi_def_cfa_offset 8
 1127              		.cfi_offset 4, -8
 1128              		.cfi_offset 14, -4
ARM GAS  /tmp/ccJku0Fb.s 			page 38


 1129              	.LBB243:
 1130              	.LBB242:
 1131              	.LBB236:
 1132              	.LBB234:
 1133              	.LBB220:
 1134              	.LBB216:
 1135              	.LBB217:
 1136              		.loc 9 166 34 view .LVU339
 1137 0002 0948     		ldr	r0, .L55
 1138 0004 0024     		movs	r4, #0
 1139              	.LBE217:
 1140              	.LBE216:
 1141              	.LBE220:
 1142              	.LBE234:
 1143              	.LBE236:
   7:I2C.cpp       **** DaisySeed  hardware;
 1144              		.loc 7 7 12 view .LVU340
 1145 0006 094A     		ldr	r2, .L55+4
 1146 0008 0949     		ldr	r1, .L55+8
 1147              	.LBB237:
 1148              	.LBB235:
 1149              	.LBB221:
 1150              	.LBB219:
 1151              	.LBB218:
 1152              		.loc 9 166 34 view .LVU341
 1153 000a 0460     		str	r4, [r0]
 1154              	.LVL72:
 1155              		.loc 9 166 34 view .LVU342
 1156              	.LBE218:
 1157              	.LBE219:
 1158              	.LBE221:
 1159              	.LBB222:
 1160              	.LBI222:
  95:/home/nahomts/Desktop/DaisyExamples/libDaisy/src/hid/audio.h ****     ~AudioHandle() {}
 1161              		.loc 5 95 5 is_stmt 1 view .LVU343
 1162              	.LBB223:
 1163              	.LBB224:
  95:/home/nahomts/Desktop/DaisyExamples/libDaisy/src/hid/audio.h ****     ~AudioHandle() {}
 1164              		.loc 5 95 35 is_stmt 0 view .LVU344
 1165 000c 4461     		str	r4, [r0, #20]
 1166              	.LVL73:
  95:/home/nahomts/Desktop/DaisyExamples/libDaisy/src/hid/audio.h ****     ~AudioHandle() {}
 1167              		.loc 5 95 35 view .LVU345
 1168              	.LBE224:
 1169              	.LBE223:
 1170              	.LBE222:
 1171              	.LBB225:
 1172              	.LBI225:
 109:/home/nahomts/Desktop/DaisyExamples/libDaisy/src/per/adc.h ****     ~AdcHandle() {}
 1173              		.loc 4 109 5 is_stmt 1 view .LVU346
 109:/home/nahomts/Desktop/DaisyExamples/libDaisy/src/per/adc.h ****     ~AdcHandle() {}
 1174              		.loc 4 109 5 is_stmt 0 view .LVU347
 1175              	.LBE225:
 1176              	.LBB226:
 1177              	.LBI226:
 1178              		.file 10 "/home/nahomts/Desktop/DaisyExamples/libDaisy/src/per/dac.h"
   1:/home/nahomts/Desktop/DaisyExamples/libDaisy/src/per/dac.h **** #pragma once
ARM GAS  /tmp/ccJku0Fb.s 			page 39


   2:/home/nahomts/Desktop/DaisyExamples/libDaisy/src/per/dac.h **** #ifndef DSY_DAC_H
   3:/home/nahomts/Desktop/DaisyExamples/libDaisy/src/per/dac.h **** #define DSY_DAC_H
   4:/home/nahomts/Desktop/DaisyExamples/libDaisy/src/per/dac.h **** 
   5:/home/nahomts/Desktop/DaisyExamples/libDaisy/src/per/dac.h **** #include "daisy_core.h"
   6:/home/nahomts/Desktop/DaisyExamples/libDaisy/src/per/dac.h **** 
   7:/home/nahomts/Desktop/DaisyExamples/libDaisy/src/per/dac.h **** namespace daisy
   8:/home/nahomts/Desktop/DaisyExamples/libDaisy/src/per/dac.h **** {
   9:/home/nahomts/Desktop/DaisyExamples/libDaisy/src/per/dac.h **** /** @brief DAC handle for Built-in DAC Peripheral 
  10:/home/nahomts/Desktop/DaisyExamples/libDaisy/src/per/dac.h ****  *  @ingroup per_analog
  11:/home/nahomts/Desktop/DaisyExamples/libDaisy/src/per/dac.h ****  ** 
  12:/home/nahomts/Desktop/DaisyExamples/libDaisy/src/per/dac.h ****  ** For now only Normal Mode is supported,
  13:/home/nahomts/Desktop/DaisyExamples/libDaisy/src/per/dac.h ****  ** Sample and hold mode provides reduced power consumption, but requires a bit more setup.
  14:/home/nahomts/Desktop/DaisyExamples/libDaisy/src/per/dac.h ****  **
  15:/home/nahomts/Desktop/DaisyExamples/libDaisy/src/per/dac.h ****  ** For now connecting the DAC through other internal peripherals is also not supported.
  16:/home/nahomts/Desktop/DaisyExamples/libDaisy/src/per/dac.h ****  **
  17:/home/nahomts/Desktop/DaisyExamples/libDaisy/src/per/dac.h ****  ** Since the DAC channels have dedicated pins we don't need to pass in a pin config like with
  18:/home/nahomts/Desktop/DaisyExamples/libDaisy/src/per/dac.h ****  ** other modules. However, it is still important to not try to use the DAC pins for anything else.
  19:/home/nahomts/Desktop/DaisyExamples/libDaisy/src/per/dac.h ****  ** DAC Channel 1 is on PA4, and DAC Channel 2 is on PA5
  20:/home/nahomts/Desktop/DaisyExamples/libDaisy/src/per/dac.h ****  ***/
  21:/home/nahomts/Desktop/DaisyExamples/libDaisy/src/per/dac.h **** class DacHandle
  22:/home/nahomts/Desktop/DaisyExamples/libDaisy/src/per/dac.h **** {
  23:/home/nahomts/Desktop/DaisyExamples/libDaisy/src/per/dac.h ****   public:
  24:/home/nahomts/Desktop/DaisyExamples/libDaisy/src/per/dac.h ****     /** Return Values for the DacHandle class */
  25:/home/nahomts/Desktop/DaisyExamples/libDaisy/src/per/dac.h ****     enum class Result
  26:/home/nahomts/Desktop/DaisyExamples/libDaisy/src/per/dac.h ****     {
  27:/home/nahomts/Desktop/DaisyExamples/libDaisy/src/per/dac.h ****         OK,
  28:/home/nahomts/Desktop/DaisyExamples/libDaisy/src/per/dac.h ****         ERR,
  29:/home/nahomts/Desktop/DaisyExamples/libDaisy/src/per/dac.h ****     };
  30:/home/nahomts/Desktop/DaisyExamples/libDaisy/src/per/dac.h **** 
  31:/home/nahomts/Desktop/DaisyExamples/libDaisy/src/per/dac.h ****     /** Selects which channel(s) will be configured for use. */
  32:/home/nahomts/Desktop/DaisyExamples/libDaisy/src/per/dac.h ****     enum class Channel
  33:/home/nahomts/Desktop/DaisyExamples/libDaisy/src/per/dac.h ****     {
  34:/home/nahomts/Desktop/DaisyExamples/libDaisy/src/per/dac.h ****         ONE,
  35:/home/nahomts/Desktop/DaisyExamples/libDaisy/src/per/dac.h ****         TWO,
  36:/home/nahomts/Desktop/DaisyExamples/libDaisy/src/per/dac.h ****         BOTH,
  37:/home/nahomts/Desktop/DaisyExamples/libDaisy/src/per/dac.h ****     };
  38:/home/nahomts/Desktop/DaisyExamples/libDaisy/src/per/dac.h **** 
  39:/home/nahomts/Desktop/DaisyExamples/libDaisy/src/per/dac.h ****     /** Sets the Mode for the DAC channels.
  40:/home/nahomts/Desktop/DaisyExamples/libDaisy/src/per/dac.h ****      **
  41:/home/nahomts/Desktop/DaisyExamples/libDaisy/src/per/dac.h ****      ** Polling mode uses the blocking mode to transmit a single value at a time.
  42:/home/nahomts/Desktop/DaisyExamples/libDaisy/src/per/dac.h ****      **
  43:/home/nahomts/Desktop/DaisyExamples/libDaisy/src/per/dac.h ****      ** DMA mode uses a buffer, and periodically transmits it triggering a 
  44:/home/nahomts/Desktop/DaisyExamples/libDaisy/src/per/dac.h ****      ** callback to fill the buffer when it is ready for more samples.
  45:/home/nahomts/Desktop/DaisyExamples/libDaisy/src/per/dac.h ****      ***/
  46:/home/nahomts/Desktop/DaisyExamples/libDaisy/src/per/dac.h ****     enum class Mode
  47:/home/nahomts/Desktop/DaisyExamples/libDaisy/src/per/dac.h ****     {
  48:/home/nahomts/Desktop/DaisyExamples/libDaisy/src/per/dac.h ****         POLLING,
  49:/home/nahomts/Desktop/DaisyExamples/libDaisy/src/per/dac.h ****         DMA,
  50:/home/nahomts/Desktop/DaisyExamples/libDaisy/src/per/dac.h ****     };
  51:/home/nahomts/Desktop/DaisyExamples/libDaisy/src/per/dac.h **** 
  52:/home/nahomts/Desktop/DaisyExamples/libDaisy/src/per/dac.h ****     /** Sets the number of bits per sample transmitted out of the DAC.
  53:/home/nahomts/Desktop/DaisyExamples/libDaisy/src/per/dac.h ****      ** The output range will be: 0V - VDDA
  54:/home/nahomts/Desktop/DaisyExamples/libDaisy/src/per/dac.h ****      ** The resolution will be roughly: bitdepth / (VDDA - 0V) 
  55:/home/nahomts/Desktop/DaisyExamples/libDaisy/src/per/dac.h ****      ***/
  56:/home/nahomts/Desktop/DaisyExamples/libDaisy/src/per/dac.h ****     enum class BitDepth
  57:/home/nahomts/Desktop/DaisyExamples/libDaisy/src/per/dac.h ****     {
  58:/home/nahomts/Desktop/DaisyExamples/libDaisy/src/per/dac.h ****         BITS_8,
ARM GAS  /tmp/ccJku0Fb.s 			page 40


  59:/home/nahomts/Desktop/DaisyExamples/libDaisy/src/per/dac.h ****         BITS_12
  60:/home/nahomts/Desktop/DaisyExamples/libDaisy/src/per/dac.h ****     };
  61:/home/nahomts/Desktop/DaisyExamples/libDaisy/src/per/dac.h **** 
  62:/home/nahomts/Desktop/DaisyExamples/libDaisy/src/per/dac.h ****     /** Sets whether the DAC output is buffered for higher drive ability. */
  63:/home/nahomts/Desktop/DaisyExamples/libDaisy/src/per/dac.h ****     enum class BufferState
  64:/home/nahomts/Desktop/DaisyExamples/libDaisy/src/per/dac.h ****     {
  65:/home/nahomts/Desktop/DaisyExamples/libDaisy/src/per/dac.h ****         ENABLED,
  66:/home/nahomts/Desktop/DaisyExamples/libDaisy/src/per/dac.h ****         DISABLED,
  67:/home/nahomts/Desktop/DaisyExamples/libDaisy/src/per/dac.h ****     };
  68:/home/nahomts/Desktop/DaisyExamples/libDaisy/src/per/dac.h **** 
  69:/home/nahomts/Desktop/DaisyExamples/libDaisy/src/per/dac.h ****     /** Configuration structure for initializing the DAC structure. */
  70:/home/nahomts/Desktop/DaisyExamples/libDaisy/src/per/dac.h ****     struct Config
  71:/home/nahomts/Desktop/DaisyExamples/libDaisy/src/per/dac.h ****     {
  72:/home/nahomts/Desktop/DaisyExamples/libDaisy/src/per/dac.h ****         /** Target Samplerate in Hz used to configure the internal 
  73:/home/nahomts/Desktop/DaisyExamples/libDaisy/src/per/dac.h ****          ** timebase for DMA mode. Does nothing in POLLING mode.
  74:/home/nahomts/Desktop/DaisyExamples/libDaisy/src/per/dac.h ****          ** If the value is 0 at Init time this will default to 48000Hz 
  75:/home/nahomts/Desktop/DaisyExamples/libDaisy/src/per/dac.h ****          ** otherwise the driver will attempt meet the target.*/
  76:/home/nahomts/Desktop/DaisyExamples/libDaisy/src/per/dac.h ****         uint32_t target_samplerate;
  77:/home/nahomts/Desktop/DaisyExamples/libDaisy/src/per/dac.h **** 
  78:/home/nahomts/Desktop/DaisyExamples/libDaisy/src/per/dac.h ****         Channel     chn;
  79:/home/nahomts/Desktop/DaisyExamples/libDaisy/src/per/dac.h ****         Mode        mode;
  80:/home/nahomts/Desktop/DaisyExamples/libDaisy/src/per/dac.h ****         BitDepth    bitdepth;
  81:/home/nahomts/Desktop/DaisyExamples/libDaisy/src/per/dac.h ****         BufferState buff_state;
  82:/home/nahomts/Desktop/DaisyExamples/libDaisy/src/per/dac.h ****     };
  83:/home/nahomts/Desktop/DaisyExamples/libDaisy/src/per/dac.h **** 
  84:/home/nahomts/Desktop/DaisyExamples/libDaisy/src/per/dac.h ****     DacHandle() : pimpl_(nullptr) {}
 1179              		.loc 10 84 5 is_stmt 1 view .LVU348
 1180              	.LBB227:
 1181              	.LBB228:
 1182              		.loc 10 84 33 is_stmt 0 view .LVU349
 1183 000e 0462     		str	r4, [r0, #32]
 1184              	.LVL74:
 1185              		.loc 10 84 33 view .LVU350
 1186              	.LBE228:
 1187              	.LBE227:
 1188              	.LBE226:
 1189              	.LBB229:
 1190              	.LBI229:
  40:/home/nahomts/Desktop/DaisyExamples/libDaisy/src/hid/usb.h **** 
 1191              		.loc 3 40 5 is_stmt 1 view .LVU351
  40:/home/nahomts/Desktop/DaisyExamples/libDaisy/src/hid/usb.h **** 
 1192              		.loc 3 40 5 is_stmt 0 view .LVU352
 1193              	.LBE229:
 1194              	.LBB230:
 1195              	.LBI230:
  96:/home/nahomts/Desktop/DaisyExamples/libDaisy/src/sys/system.h ****     ~System() {}
 1196              		.loc 2 96 5 is_stmt 1 view .LVU353
  96:/home/nahomts/Desktop/DaisyExamples/libDaisy/src/sys/system.h ****     ~System() {}
 1197              		.loc 2 96 5 is_stmt 0 view .LVU354
 1198              	.LBE230:
 1199              	.LBB231:
 1200              	.LBI231:
 1201              		.file 11 "/home/nahomts/Desktop/DaisyExamples/libDaisy/src/per/sai.h"
   1:/home/nahomts/Desktop/DaisyExamples/libDaisy/src/per/sai.h **** #pragma once
   2:/home/nahomts/Desktop/DaisyExamples/libDaisy/src/per/sai.h **** #ifndef DSY_SAI_H
   3:/home/nahomts/Desktop/DaisyExamples/libDaisy/src/per/sai.h **** #define DSY_SAI_H
   4:/home/nahomts/Desktop/DaisyExamples/libDaisy/src/per/sai.h **** 
ARM GAS  /tmp/ccJku0Fb.s 			page 41


   5:/home/nahomts/Desktop/DaisyExamples/libDaisy/src/per/sai.h **** #include "daisy_core.h"
   6:/home/nahomts/Desktop/DaisyExamples/libDaisy/src/per/sai.h **** 
   7:/home/nahomts/Desktop/DaisyExamples/libDaisy/src/per/sai.h **** namespace daisy
   8:/home/nahomts/Desktop/DaisyExamples/libDaisy/src/per/sai.h **** {
   9:/home/nahomts/Desktop/DaisyExamples/libDaisy/src/per/sai.h **** /** 
  10:/home/nahomts/Desktop/DaisyExamples/libDaisy/src/per/sai.h ****  * Support for I2S Audio Protocol with different bit-depth, samplerate options
  11:/home/nahomts/Desktop/DaisyExamples/libDaisy/src/per/sai.h ****  * Allows for master or slave, as well as freedom of selecting direction, 
  12:/home/nahomts/Desktop/DaisyExamples/libDaisy/src/per/sai.h ****  * and other behavior for each peripheral, and block.
  13:/home/nahomts/Desktop/DaisyExamples/libDaisy/src/per/sai.h ****  * 
  14:/home/nahomts/Desktop/DaisyExamples/libDaisy/src/per/sai.h ****  * DMA Transfer commands must use buffers located within non-cached memory or use cache maintenance
  15:/home/nahomts/Desktop/DaisyExamples/libDaisy/src/per/sai.h ****  * To declare an unitialized global element in the DMA memory section:
  16:/home/nahomts/Desktop/DaisyExamples/libDaisy/src/per/sai.h ****  *    int32_t DSY_DMA_BUFFER_SECTOR my_buffer[96];
  17:/home/nahomts/Desktop/DaisyExamples/libDaisy/src/per/sai.h ****  *
  18:/home/nahomts/Desktop/DaisyExamples/libDaisy/src/per/sai.h ****  * Callback functions will be called once per half of the buffer. In the above example, 
  19:/home/nahomts/Desktop/DaisyExamples/libDaisy/src/per/sai.h ****  * the callback function would be called once for every 48 samples.
  20:/home/nahomts/Desktop/DaisyExamples/libDaisy/src/per/sai.h ****  * 
  21:/home/nahomts/Desktop/DaisyExamples/libDaisy/src/per/sai.h ****  * Use SAI Handle like this:
  22:/home/nahomts/Desktop/DaisyExamples/libDaisy/src/per/sai.h ****  * 
  23:/home/nahomts/Desktop/DaisyExamples/libDaisy/src/per/sai.h ****  *  SaiHandle::Config sai_config;
  24:/home/nahomts/Desktop/DaisyExamples/libDaisy/src/per/sai.h ****  *  sai_config.periph          = SaiHandle::Config::Peripheral::SAI_1;
  25:/home/nahomts/Desktop/DaisyExamples/libDaisy/src/per/sai.h ****  *  sai_config.sr              = SaiHandle::Config::SampleRate::SAI_48KHZ;
  26:/home/nahomts/Desktop/DaisyExamples/libDaisy/src/per/sai.h ****  *  sai_config.bit_depth       = SaiHandle::Config::BitDepth::SAI_24BIT;
  27:/home/nahomts/Desktop/DaisyExamples/libDaisy/src/per/sai.h ****  *  sai_config.a_sync          = SaiHandle::Config::Sync::MASTER;
  28:/home/nahomts/Desktop/DaisyExamples/libDaisy/src/per/sai.h ****  *  sai_config.b_sync          = SaiHandle::Config::Sync::SLAVE;
  29:/home/nahomts/Desktop/DaisyExamples/libDaisy/src/per/sai.h ****  *  sai_config.a_dir           = SaiHandle::Config::Direction::RECEIVE;
  30:/home/nahomts/Desktop/DaisyExamples/libDaisy/src/per/sai.h ****  *  sai_config.b_dir           = SaiHandle::Config::Direction::TRANSMIT;
  31:/home/nahomts/Desktop/DaisyExamples/libDaisy/src/per/sai.h ****  *  sai_config.pin_config.fs   = {DSY_GPIOE, 4};
  32:/home/nahomts/Desktop/DaisyExamples/libDaisy/src/per/sai.h ****  *  sai_config.pin_config.mclk = {DSY_GPIOE, 2};
  33:/home/nahomts/Desktop/DaisyExamples/libDaisy/src/per/sai.h ****  *  sai_config.pin_config.sck  = {DSY_GPIOE, 5};
  34:/home/nahomts/Desktop/DaisyExamples/libDaisy/src/per/sai.h ****  *  sai_config.pin_config.sa   = {DSY_GPIOE, 6};
  35:/home/nahomts/Desktop/DaisyExamples/libDaisy/src/per/sai.h ****  *  sai_config.pin_config.sb   = {DSY_GPIOE, 3};
  36:/home/nahomts/Desktop/DaisyExamples/libDaisy/src/per/sai.h ****  *  // Then Initialize
  37:/home/nahomts/Desktop/DaisyExamples/libDaisy/src/per/sai.h ****  *  SaiHandle sai;
  38:/home/nahomts/Desktop/DaisyExamples/libDaisy/src/per/sai.h ****  *  sai.Init(sai_config);
  39:/home/nahomts/Desktop/DaisyExamples/libDaisy/src/per/sai.h ****  *  // Now you can use it:
  40:/home/nahomts/Desktop/DaisyExamples/libDaisy/src/per/sai.h ****  *  sai.StartDma(. . .);
  41:/home/nahomts/Desktop/DaisyExamples/libDaisy/src/per/sai.h ****  */
  42:/home/nahomts/Desktop/DaisyExamples/libDaisy/src/per/sai.h **** class SaiHandle
  43:/home/nahomts/Desktop/DaisyExamples/libDaisy/src/per/sai.h **** {
  44:/home/nahomts/Desktop/DaisyExamples/libDaisy/src/per/sai.h ****   public:
  45:/home/nahomts/Desktop/DaisyExamples/libDaisy/src/per/sai.h ****     /** Contains settings for initialising an SAI Interface */
  46:/home/nahomts/Desktop/DaisyExamples/libDaisy/src/per/sai.h ****     struct Config
  47:/home/nahomts/Desktop/DaisyExamples/libDaisy/src/per/sai.h ****     {
  48:/home/nahomts/Desktop/DaisyExamples/libDaisy/src/per/sai.h ****         /** Specifies the internal peripheral to use (mapped to different hardware pins) */
  49:/home/nahomts/Desktop/DaisyExamples/libDaisy/src/per/sai.h ****         enum class Peripheral
  50:/home/nahomts/Desktop/DaisyExamples/libDaisy/src/per/sai.h ****         {
  51:/home/nahomts/Desktop/DaisyExamples/libDaisy/src/per/sai.h ****             SAI_1,
  52:/home/nahomts/Desktop/DaisyExamples/libDaisy/src/per/sai.h ****             SAI_2,
  53:/home/nahomts/Desktop/DaisyExamples/libDaisy/src/per/sai.h ****         };
  54:/home/nahomts/Desktop/DaisyExamples/libDaisy/src/per/sai.h **** 
  55:/home/nahomts/Desktop/DaisyExamples/libDaisy/src/per/sai.h ****         /** Rate at which samples will be streaming to/from the device. */
  56:/home/nahomts/Desktop/DaisyExamples/libDaisy/src/per/sai.h ****         enum class SampleRate
  57:/home/nahomts/Desktop/DaisyExamples/libDaisy/src/per/sai.h ****         {
  58:/home/nahomts/Desktop/DaisyExamples/libDaisy/src/per/sai.h ****             SAI_8KHZ,
  59:/home/nahomts/Desktop/DaisyExamples/libDaisy/src/per/sai.h ****             SAI_16KHZ,
  60:/home/nahomts/Desktop/DaisyExamples/libDaisy/src/per/sai.h ****             SAI_32KHZ,
  61:/home/nahomts/Desktop/DaisyExamples/libDaisy/src/per/sai.h ****             SAI_48KHZ,
ARM GAS  /tmp/ccJku0Fb.s 			page 42


  62:/home/nahomts/Desktop/DaisyExamples/libDaisy/src/per/sai.h ****             SAI_96KHZ,
  63:/home/nahomts/Desktop/DaisyExamples/libDaisy/src/per/sai.h ****         };
  64:/home/nahomts/Desktop/DaisyExamples/libDaisy/src/per/sai.h **** 
  65:/home/nahomts/Desktop/DaisyExamples/libDaisy/src/per/sai.h ****         /** Bit Depth that the hardware expects to be transferred to/from the device. */
  66:/home/nahomts/Desktop/DaisyExamples/libDaisy/src/per/sai.h ****         enum class BitDepth
  67:/home/nahomts/Desktop/DaisyExamples/libDaisy/src/per/sai.h ****         {
  68:/home/nahomts/Desktop/DaisyExamples/libDaisy/src/per/sai.h ****             SAI_16BIT,
  69:/home/nahomts/Desktop/DaisyExamples/libDaisy/src/per/sai.h ****             SAI_24BIT,
  70:/home/nahomts/Desktop/DaisyExamples/libDaisy/src/per/sai.h ****             SAI_32BIT,
  71:/home/nahomts/Desktop/DaisyExamples/libDaisy/src/per/sai.h ****         };
  72:/home/nahomts/Desktop/DaisyExamples/libDaisy/src/per/sai.h **** 
  73:/home/nahomts/Desktop/DaisyExamples/libDaisy/src/per/sai.h ****         /** Specifies whether a particular block is the master or the slave 
  74:/home/nahomts/Desktop/DaisyExamples/libDaisy/src/per/sai.h ****          ** If both are set to slave, no MCLK signal will be used, and it is
  75:/home/nahomts/Desktop/DaisyExamples/libDaisy/src/per/sai.h ****          ** expected that the codec will have its own xtal.
  76:/home/nahomts/Desktop/DaisyExamples/libDaisy/src/per/sai.h ****          */
  77:/home/nahomts/Desktop/DaisyExamples/libDaisy/src/per/sai.h ****         enum class Sync
  78:/home/nahomts/Desktop/DaisyExamples/libDaisy/src/per/sai.h ****         {
  79:/home/nahomts/Desktop/DaisyExamples/libDaisy/src/per/sai.h ****             MASTER,
  80:/home/nahomts/Desktop/DaisyExamples/libDaisy/src/per/sai.h ****             SLAVE,
  81:/home/nahomts/Desktop/DaisyExamples/libDaisy/src/per/sai.h ****         };
  82:/home/nahomts/Desktop/DaisyExamples/libDaisy/src/per/sai.h **** 
  83:/home/nahomts/Desktop/DaisyExamples/libDaisy/src/per/sai.h ****         /** Specifies the direction for each peripheral block. */
  84:/home/nahomts/Desktop/DaisyExamples/libDaisy/src/per/sai.h ****         enum class Direction
  85:/home/nahomts/Desktop/DaisyExamples/libDaisy/src/per/sai.h ****         {
  86:/home/nahomts/Desktop/DaisyExamples/libDaisy/src/per/sai.h ****             TRANSMIT,
  87:/home/nahomts/Desktop/DaisyExamples/libDaisy/src/per/sai.h ****             RECEIVE,
  88:/home/nahomts/Desktop/DaisyExamples/libDaisy/src/per/sai.h ****         };
  89:/home/nahomts/Desktop/DaisyExamples/libDaisy/src/per/sai.h **** 
  90:/home/nahomts/Desktop/DaisyExamples/libDaisy/src/per/sai.h ****         Peripheral periph;
  91:/home/nahomts/Desktop/DaisyExamples/libDaisy/src/per/sai.h ****         struct
  92:/home/nahomts/Desktop/DaisyExamples/libDaisy/src/per/sai.h ****         {
  93:/home/nahomts/Desktop/DaisyExamples/libDaisy/src/per/sai.h ****             dsy_gpio_pin mclk, fs, sck, sa, sb;
  94:/home/nahomts/Desktop/DaisyExamples/libDaisy/src/per/sai.h ****         } pin_config;
  95:/home/nahomts/Desktop/DaisyExamples/libDaisy/src/per/sai.h ****         SampleRate sr;
  96:/home/nahomts/Desktop/DaisyExamples/libDaisy/src/per/sai.h ****         BitDepth   bit_depth;
  97:/home/nahomts/Desktop/DaisyExamples/libDaisy/src/per/sai.h ****         Sync       a_sync, b_sync;
  98:/home/nahomts/Desktop/DaisyExamples/libDaisy/src/per/sai.h ****         Direction  a_dir, b_dir;
  99:/home/nahomts/Desktop/DaisyExamples/libDaisy/src/per/sai.h ****     };
 100:/home/nahomts/Desktop/DaisyExamples/libDaisy/src/per/sai.h **** 
 101:/home/nahomts/Desktop/DaisyExamples/libDaisy/src/per/sai.h ****     /** Return values for SAI functions */
 102:/home/nahomts/Desktop/DaisyExamples/libDaisy/src/per/sai.h ****     enum class Result
 103:/home/nahomts/Desktop/DaisyExamples/libDaisy/src/per/sai.h ****     {
 104:/home/nahomts/Desktop/DaisyExamples/libDaisy/src/per/sai.h ****         OK,
 105:/home/nahomts/Desktop/DaisyExamples/libDaisy/src/per/sai.h ****         ERR,
 106:/home/nahomts/Desktop/DaisyExamples/libDaisy/src/per/sai.h ****     };
 107:/home/nahomts/Desktop/DaisyExamples/libDaisy/src/per/sai.h **** 
 108:/home/nahomts/Desktop/DaisyExamples/libDaisy/src/per/sai.h ****     SaiHandle() : pimpl_(nullptr) {}
 1202              		.loc 11 108 5 is_stmt 1 view .LVU355
 1203              	.LBB232:
 1204              	.LBB233:
 1205              		.loc 11 108 33 is_stmt 0 view .LVU356
 1206 0010 C463     		str	r4, [r0, #60]
 1207              	.LVL75:
 1208              		.loc 11 108 33 view .LVU357
 1209              	.LBE233:
 1210              	.LBE232:
 1211              	.LBE231:
ARM GAS  /tmp/ccJku0Fb.s 			page 43


 1212              	.LBE235:
 1213              	.LBE237:
   7:I2C.cpp       **** DaisySeed  hardware;
 1214              		.loc 7 7 12 view .LVU358
 1215 0012 FFF7FEFF 		bl	__aeabi_atexit
 1216              	.LVL76:
 1217              	.LBB238:
 1218              	.LBI238:
  23:/home/nahomts/Desktop/DaisyExamples/DaisySP/Source/Synthesis/oscillator.h ****     ~Oscillator() {}
 1219              		.loc 6 23 5 is_stmt 1 view .LVU359
  23:/home/nahomts/Desktop/DaisyExamples/DaisySP/Source/Synthesis/oscillator.h ****     ~Oscillator() {}
 1220              		.loc 6 23 5 is_stmt 0 view .LVU360
 1221              	.LBE238:
   8:I2C.cpp       **** Oscillator osc;
 1222              		.loc 7 8 12 view .LVU361
 1223 0016 054A     		ldr	r2, .L55+4
 1224 0018 0649     		ldr	r1, .L55+12
 1225 001a 0748     		ldr	r0, .L55+16
 1226 001c FFF7FEFF 		bl	__aeabi_atexit
 1227              	.LVL77:
 1228              	.LBB239:
 1229              	.LBI239:
  29:/home/nahomts/Desktop/DaisyExamples/libDaisy/src/per/i2c.h ****     {
  30:/home/nahomts/Desktop/DaisyExamples/libDaisy/src/per/i2c.h ****         /** Specifies whether the interface will operate in master or slave mode. */
  31:/home/nahomts/Desktop/DaisyExamples/libDaisy/src/per/i2c.h ****         enum class Mode
  32:/home/nahomts/Desktop/DaisyExamples/libDaisy/src/per/i2c.h ****         {
  33:/home/nahomts/Desktop/DaisyExamples/libDaisy/src/per/i2c.h ****             I2C_MASTER,
  34:/home/nahomts/Desktop/DaisyExamples/libDaisy/src/per/i2c.h ****             I2C_SLAVE,
  35:/home/nahomts/Desktop/DaisyExamples/libDaisy/src/per/i2c.h ****         };
  36:/home/nahomts/Desktop/DaisyExamples/libDaisy/src/per/i2c.h **** 
  37:/home/nahomts/Desktop/DaisyExamples/libDaisy/src/per/i2c.h ****         /** Specifices the internal peripheral to use (these are mapped to different pins on the ha
  38:/home/nahomts/Desktop/DaisyExamples/libDaisy/src/per/i2c.h ****         enum class Peripheral
  39:/home/nahomts/Desktop/DaisyExamples/libDaisy/src/per/i2c.h ****         {
  40:/home/nahomts/Desktop/DaisyExamples/libDaisy/src/per/i2c.h ****             I2C_1 = 0, /**< & */
  41:/home/nahomts/Desktop/DaisyExamples/libDaisy/src/per/i2c.h ****             I2C_2,     /**< & */
  42:/home/nahomts/Desktop/DaisyExamples/libDaisy/src/per/i2c.h ****             I2C_3,     /**< & */
  43:/home/nahomts/Desktop/DaisyExamples/libDaisy/src/per/i2c.h ****             I2C_4,     /**< & */
  44:/home/nahomts/Desktop/DaisyExamples/libDaisy/src/per/i2c.h ****         };
  45:/home/nahomts/Desktop/DaisyExamples/libDaisy/src/per/i2c.h **** 
  46:/home/nahomts/Desktop/DaisyExamples/libDaisy/src/per/i2c.h ****         /** Rate at which the clock/data will be sent/received. The device being used will have max
  47:/home/nahomts/Desktop/DaisyExamples/libDaisy/src/per/i2c.h ****          *  1MHZ Mode is currently 886kHz
  48:/home/nahomts/Desktop/DaisyExamples/libDaisy/src/per/i2c.h ****          */
  49:/home/nahomts/Desktop/DaisyExamples/libDaisy/src/per/i2c.h ****         enum class Speed
  50:/home/nahomts/Desktop/DaisyExamples/libDaisy/src/per/i2c.h ****         {
  51:/home/nahomts/Desktop/DaisyExamples/libDaisy/src/per/i2c.h ****             I2C_100KHZ, /**< & */
  52:/home/nahomts/Desktop/DaisyExamples/libDaisy/src/per/i2c.h ****             I2C_400KHZ, /**< & */
  53:/home/nahomts/Desktop/DaisyExamples/libDaisy/src/per/i2c.h ****             I2C_1MHZ,   /**< & */
  54:/home/nahomts/Desktop/DaisyExamples/libDaisy/src/per/i2c.h ****         };
  55:/home/nahomts/Desktop/DaisyExamples/libDaisy/src/per/i2c.h **** 
  56:/home/nahomts/Desktop/DaisyExamples/libDaisy/src/per/i2c.h ****         Peripheral periph; /**< & */
  57:/home/nahomts/Desktop/DaisyExamples/libDaisy/src/per/i2c.h ****         struct
  58:/home/nahomts/Desktop/DaisyExamples/libDaisy/src/per/i2c.h ****         {
  59:/home/nahomts/Desktop/DaisyExamples/libDaisy/src/per/i2c.h ****             dsy_gpio_pin scl; /**< & */
  60:/home/nahomts/Desktop/DaisyExamples/libDaisy/src/per/i2c.h ****             dsy_gpio_pin sda; /**< & */
  61:/home/nahomts/Desktop/DaisyExamples/libDaisy/src/per/i2c.h ****         } pin_config;         /**< & */
  62:/home/nahomts/Desktop/DaisyExamples/libDaisy/src/per/i2c.h **** 
  63:/home/nahomts/Desktop/DaisyExamples/libDaisy/src/per/i2c.h ****         Speed speed; /**< & */
ARM GAS  /tmp/ccJku0Fb.s 			page 44


  64:/home/nahomts/Desktop/DaisyExamples/libDaisy/src/per/i2c.h ****         Mode  mode;  /**< & */
  65:/home/nahomts/Desktop/DaisyExamples/libDaisy/src/per/i2c.h ****         // 0x10 is chosen as a default to avoid conflicts with reserved addresses
  66:/home/nahomts/Desktop/DaisyExamples/libDaisy/src/per/i2c.h ****         uint8_t address = 0x10; /**< & */
  67:/home/nahomts/Desktop/DaisyExamples/libDaisy/src/per/i2c.h ****     };
  68:/home/nahomts/Desktop/DaisyExamples/libDaisy/src/per/i2c.h **** 
  69:/home/nahomts/Desktop/DaisyExamples/libDaisy/src/per/i2c.h ****     /** Return values for I2C functions. */
  70:/home/nahomts/Desktop/DaisyExamples/libDaisy/src/per/i2c.h ****     enum class Result
  71:/home/nahomts/Desktop/DaisyExamples/libDaisy/src/per/i2c.h ****     {
  72:/home/nahomts/Desktop/DaisyExamples/libDaisy/src/per/i2c.h ****         OK, /**< & */
  73:/home/nahomts/Desktop/DaisyExamples/libDaisy/src/per/i2c.h ****         ERR /**< & */
  74:/home/nahomts/Desktop/DaisyExamples/libDaisy/src/per/i2c.h ****     };
  75:/home/nahomts/Desktop/DaisyExamples/libDaisy/src/per/i2c.h **** 
  76:/home/nahomts/Desktop/DaisyExamples/libDaisy/src/per/i2c.h ****     enum class Direction
  77:/home/nahomts/Desktop/DaisyExamples/libDaisy/src/per/i2c.h ****     {
  78:/home/nahomts/Desktop/DaisyExamples/libDaisy/src/per/i2c.h ****         TRANSMIT, /**< & */
  79:/home/nahomts/Desktop/DaisyExamples/libDaisy/src/per/i2c.h ****         RECEIVE,  /**< & */
  80:/home/nahomts/Desktop/DaisyExamples/libDaisy/src/per/i2c.h ****     };
  81:/home/nahomts/Desktop/DaisyExamples/libDaisy/src/per/i2c.h **** 
  82:/home/nahomts/Desktop/DaisyExamples/libDaisy/src/per/i2c.h ****     I2CHandle() : pimpl_(nullptr) {}
 1230              		.loc 8 82 5 is_stmt 1 view .LVU362
 1231              	.LBB240:
 1232              	.LBB241:
 1233              		.loc 8 82 33 is_stmt 0 view .LVU363
 1234 0020 064B     		ldr	r3, .L55+20
 1235 0022 1C60     		str	r4, [r3]
 1236              	.LVL78:
 1237              		.loc 8 82 33 view .LVU364
 1238              	.LBE241:
 1239              	.LBE240:
 1240              	.LBE239:
 1241              	.LBE242:
 1242              	.LBE243:
 1243              		.loc 7 159 1 view .LVU365
 1244 0024 10BD     		pop	{r4, pc}
 1245              	.L56:
 1246 0026 00BF     		.align	2
 1247              	.L55:
 1248 0028 00000000 		.word	.LANCHOR6
 1249 002c 00000000 		.word	__dso_handle
 1250 0030 00000000 		.word	_ZN5daisy9DaisySeedD1Ev
 1251 0034 00000000 		.word	_ZN7daisysp10OscillatorD1Ev
 1252 0038 00000000 		.word	.LANCHOR5
 1253 003c 00000000 		.word	.LANCHOR0
 1254              		.cfi_endproc
 1255              	.LFE5249:
 1257              		.section	.init_array,"aw",%init_array
 1258              		.align	2
 1259 0000 00000000 		.word	_GLOBAL__sub_I_hardware(target1)
 1260              		.global	euler_pitch
 1261              		.global	euler_roll
 1262              		.global	euler_heading
 1263              		.global	i2c
 1264              		.global	osc
 1265              		.global	hardware
 1266              		.section	.rodata
 1267              		.align	2
 1268              		.set	.LANCHOR7,. + 0
ARM GAS  /tmp/ccJku0Fb.s 			page 45


 1269              	.LC0:
 1270 0000 01       		.byte	1
 1271 0001 08       		.byte	8
 1272 0002 0000     		.space	2
 1273              	.LC1:
 1274 0004 01       		.byte	1
 1275 0005 09       		.byte	9
 1276              		.section	.bss._ZZ13AudioCallbackPKfPfjE7counter,"aw",%nobits
 1277              		.align	2
 1278              		.set	.LANCHOR4,. + 0
 1281              	_ZZ13AudioCallbackPKfPfjE7counter:
 1282 0000 00000000 		.space	4
 1283              		.section	.bss.euler_heading,"aw",%nobits
 1284              		.align	2
 1285              		.set	.LANCHOR1,. + 0
 1288              	euler_heading:
 1289 0000 00000000 		.space	4
 1290              		.section	.bss.euler_pitch,"aw",%nobits
 1291              		.align	2
 1292              		.set	.LANCHOR3,. + 0
 1295              	euler_pitch:
 1296 0000 00000000 		.space	4
 1297              		.section	.bss.euler_roll,"aw",%nobits
 1298              		.align	2
 1299              		.set	.LANCHOR2,. + 0
 1302              	euler_roll:
 1303 0000 00000000 		.space	4
 1304              		.section	.bss.hardware,"aw",%nobits
 1305              		.align	2
 1306              		.set	.LANCHOR6,. + 0
 1309              	hardware:
 1310 0000 00000000 		.space	64
 1310      00000000 
 1310      00000000 
 1310      00000000 
 1310      00000000 
 1311              		.section	.bss.i2c,"aw",%nobits
 1312              		.align	2
 1313              		.set	.LANCHOR0,. + 0
 1316              	i2c:
 1317 0000 00000000 		.space	4
 1318              		.section	.bss.osc,"aw",%nobits
 1319              		.align	2
 1320              		.set	.LANCHOR5,. + 0
 1323              	osc:
 1324 0000 00000000 		.space	44
 1324      00000000 
 1324      00000000 
 1324      00000000 
 1324      00000000 
 1325              		.text
 1326              	.Letext0:
 1327              		.file 12 "/home/nahomts/Developer/gcc-arm-none-eabi-10-2020-q4-major/arm-none-eabi/include/machine
 1328              		.file 13 "/home/nahomts/Developer/gcc-arm-none-eabi-10-2020-q4-major/arm-none-eabi/include/sys/_st
 1329              		.file 14 "/home/nahomts/Developer/gcc-arm-none-eabi-10-2020-q4-major/arm-none-eabi/include/stdint.
 1330              		.file 15 "/home/nahomts/Developer/gcc-arm-none-eabi-10-2020-q4-major/lib/gcc/arm-none-eabi/10.2.1/
 1331              		.file 16 "/home/nahomts/Developer/gcc-arm-none-eabi-10-2020-q4-major/arm-none-eabi/include/c++/10.
ARM GAS  /tmp/ccJku0Fb.s 			page 46


 1332              		.file 17 "/home/nahomts/Developer/gcc-arm-none-eabi-10-2020-q4-major/arm-none-eabi/include/c++/10.
 1333              		.file 18 "/home/nahomts/Developer/gcc-arm-none-eabi-10-2020-q4-major/arm-none-eabi/include/c++/10.
 1334              		.file 19 "/home/nahomts/Developer/gcc-arm-none-eabi-10-2020-q4-major/arm-none-eabi/include/c++/10.
 1335              		.file 20 "/home/nahomts/Developer/gcc-arm-none-eabi-10-2020-q4-major/arm-none-eabi/include/c++/10.
 1336              		.file 21 "/home/nahomts/Developer/gcc-arm-none-eabi-10-2020-q4-major/arm-none-eabi/include/c++/10.
 1337              		.file 22 "/home/nahomts/Developer/gcc-arm-none-eabi-10-2020-q4-major/arm-none-eabi/include/c++/10.
 1338              		.file 23 "/home/nahomts/Developer/gcc-arm-none-eabi-10-2020-q4-major/arm-none-eabi/include/c++/10.
 1339              		.file 24 "/home/nahomts/Developer/gcc-arm-none-eabi-10-2020-q4-major/arm-none-eabi/include/c++/10.
 1340              		.file 25 "/home/nahomts/Developer/gcc-arm-none-eabi-10-2020-q4-major/arm-none-eabi/include/c++/10.
 1341              		.file 26 "/home/nahomts/Developer/gcc-arm-none-eabi-10-2020-q4-major/arm-none-eabi/include/c++/10.
 1342              		.file 27 "/home/nahomts/Developer/gcc-arm-none-eabi-10-2020-q4-major/arm-none-eabi/include/c++/10.
 1343              		.file 28 "/home/nahomts/Developer/gcc-arm-none-eabi-10-2020-q4-major/arm-none-eabi/include/c++/10.
 1344              		.file 29 "/home/nahomts/Developer/gcc-arm-none-eabi-10-2020-q4-major/arm-none-eabi/include/c++/10.
 1345              		.file 30 "/home/nahomts/Developer/gcc-arm-none-eabi-10-2020-q4-major/arm-none-eabi/include/c++/10.
 1346              		.file 31 "/home/nahomts/Developer/gcc-arm-none-eabi-10-2020-q4-major/arm-none-eabi/include/c++/10.
 1347              		.file 32 "/home/nahomts/Developer/gcc-arm-none-eabi-10-2020-q4-major/arm-none-eabi/include/c++/10.
 1348              		.file 33 "/home/nahomts/Developer/gcc-arm-none-eabi-10-2020-q4-major/arm-none-eabi/include/c++/10.
 1349              		.file 34 "/home/nahomts/Developer/gcc-arm-none-eabi-10-2020-q4-major/arm-none-eabi/include/sys/_ty
 1350              		.file 35 "/home/nahomts/Developer/gcc-arm-none-eabi-10-2020-q4-major/arm-none-eabi/include/sys/ree
 1351              		.file 36 "/home/nahomts/Developer/gcc-arm-none-eabi-10-2020-q4-major/arm-none-eabi/include/sys/loc
 1352              		.file 37 "/home/nahomts/Developer/gcc-arm-none-eabi-10-2020-q4-major/arm-none-eabi/include/math.h"
 1353              		.file 38 "/home/nahomts/Developer/gcc-arm-none-eabi-10-2020-q4-major/arm-none-eabi/include/stdlib.
 1354              		.file 39 "/home/nahomts/Developer/gcc-arm-none-eabi-10-2020-q4-major/arm-none-eabi/include/c++/10.
 1355              		.file 40 "/home/nahomts/Developer/gcc-arm-none-eabi-10-2020-q4-major/arm-none-eabi/include/c++/10.
 1356              		.file 41 "/home/nahomts/Desktop/DaisyExamples/libDaisy/src/daisy_core.h"
 1357              		.file 42 "/home/nahomts/Desktop/DaisyExamples/libDaisy/src/per/tim.h"
 1358              		.file 43 "/home/nahomts/Desktop/DaisyExamples/libDaisy/src/util/wav_format.h"
 1359              		.file 44 "/home/nahomts/Desktop/DaisyExamples/libDaisy/src/dev/max11300.h"
 1360              		.file 45 "/home/nahomts/Desktop/DaisyExamples/libDaisy/src/per/gpio.h"
 1361              		.file 46 "/home/nahomts/Desktop/DaisyExamples/libDaisy/src/dev/sdram.h"
 1362              		.file 47 "/home/nahomts/Developer/gcc-arm-none-eabi-10-2020-q4-major/lib/gcc/arm-none-eabi/10.2.1/
 1363              		.file 48 "/home/nahomts/Developer/gcc-arm-none-eabi-10-2020-q4-major/arm-none-eabi/include/stdio.h
 1364              		.file 49 "/home/nahomts/Developer/gcc-arm-none-eabi-10-2020-q4-major/arm-none-eabi/include/string.
 1365              		.file 50 "/home/nahomts/Desktop/DaisyExamples/DaisySP/Source/Control/adenv.h"
 1366              		.file 51 "/home/nahomts/Desktop/DaisyExamples/DaisySP/Source/Utility/dsp.h"
 1367              		.file 52 "/home/nahomts/Developer/gcc-arm-none-eabi-10-2020-q4-major/arm-none-eabi/include/wchar.h
 1368              		.file 53 "/home/nahomts/Developer/gcc-arm-none-eabi-10-2020-q4-major/arm-none-eabi/include/locale.
 1369              		.file 54 "/home/nahomts/Desktop/DaisyExamples/libDaisy/src/dev/sr_595.h"
 1370              		.file 55 "<built-in>"
ARM GAS  /tmp/ccJku0Fb.s 			page 47

